

Microchip MPLAB XC8 Assembler V2.40 build 20220703182018 
                                                                                               Sat Jan 14 23:18:48 2023

Microchip MPLAB XC8 C Compiler v2.40 (Free license) build 20220703182018 Og1 
     1                           	processor	16F18877
     2                           	pagewidth 120
     3                           	opt	flic
     4                           	psect	idataBANK2,global,class=CODE,delta=2,noexec
     5                           	psect	stringtext1,global,class=STRCODE,delta=2,noexec
     6                           	psect	stringtext2,global,class=STRCODE,delta=2,noexec
     7                           	psect	stringtext3,global,class=STRCODE,delta=2,noexec
     8                           	psect	stringtext4,global,class=STRCODE,delta=2,noexec
     9                           	psect	cinit,global,class=CODE,merge=1,delta=2
    10                           	psect	bssBANK0,global,class=BANK0,space=1,delta=1,noexec
    11                           	psect	bssBANK1,global,class=BANK1,space=1,delta=1,noexec
    12                           	psect	bssBANK2,global,class=BANK2,space=1,delta=1,noexec
    13                           	psect	dataBANK2,global,class=BANK2,space=1,delta=1,noexec
    14                           	psect	bssBANK3,global,class=BANK3,space=1,delta=1,noexec
    15                           	psect	inittext,global,class=CODE,delta=2
    16                           	psect	clrtext,global,class=CODE,delta=2
    17                           	psect	cstackBANK1,global,class=BANK1,space=1,delta=1,noexec
    18                           	psect	cstackCOMMON,global,class=COMMON,space=1,delta=1,noexec
    19                           	psect	cstackBANK0,global,class=BANK0,space=1,delta=1,noexec
    20                           	psect	maintext,global,class=CODE,merge=1,split=1,delta=2
    21                           	psect	text1,local,class=CODE,merge=1,delta=2,group=3
    22                           	psect	text2,local,class=CODE,merge=1,delta=2,group=1
    23                           	psect	text3,local,class=CODE,merge=1,delta=2,group=1
    24                           	psect	text4,local,class=CODE,merge=1,delta=2,group=1
    25                           	psect	text5,local,class=CODE,merge=1,delta=2,group=3
    26                           	psect	text6,local,class=CODE,merge=1,delta=2,group=1
    27                           	psect	text7,local,class=CODE,merge=1,delta=2,group=3
    28                           	psect	text8,local,class=CODE,merge=1,delta=2,group=3
    29                           	psect	text9,local,class=CODE,merge=1,delta=2
    30                           	psect	text10,local,class=CODE,merge=1,delta=2,group=3
    31                           	psect	text11,local,class=CODE,merge=1,delta=2,group=3
    32                           	psect	text12,local,class=CODE,merge=1,delta=2,group=3
    33                           	psect	text13,local,class=CODE,merge=1,delta=2,group=3
    34                           	psect	text14,local,class=CODE,merge=1,delta=2,group=2
    35                           	psect	text15,local,class=CODE,merge=1,delta=2,group=2
    36                           	psect	text16,local,class=CODE,merge=1,delta=2,group=2
    37                           	psect	text17,local,class=CODE,merge=1,delta=2,group=2
    38                           	psect	text18,local,class=CODE,merge=1,delta=2,group=2
    39                           	psect	text19,local,class=CODE,merge=1,delta=2,group=2
    40                           	psect	text20,local,class=CODE,merge=1,delta=2,group=3
    41                           	psect	text21,local,class=CODE,merge=1,delta=2,group=3
    42                           	psect	text22,local,class=CODE,merge=1,delta=2,group=3
    43                           	psect	text23,local,class=CODE,merge=1,delta=2,group=2
    44                           	psect	text24,local,class=CODE,merge=1,delta=2
    45                           	psect	text25,local,class=CODE,merge=1,delta=2
    46                           	psect	text26,local,class=CODE,merge=1,delta=2
    47                           	psect	text27,local,class=CODE,merge=1,delta=2
    48                           	psect	text28,local,class=CODE,merge=1,delta=2
    49                           	psect	text29,local,class=CODE,merge=1,delta=2
    50                           	psect	text30,local,class=CODE,merge=1,delta=2
    51                           	psect	text31,local,class=CODE,merge=1,delta=2
    52                           	psect	text32,local,class=CODE,merge=1,delta=2
    53                           	psect	text33,local,class=CODE,merge=1,delta=2
    54                           	psect	text34,local,class=CODE,merge=1,delta=2
    55                           	psect	text35,local,class=CODE,merge=1,delta=2
    56                           	psect	text36,local,class=CODE,merge=1,delta=2
    57                           	psect	text37,local,class=CODE,merge=1,delta=2
    58                           	psect	text38,local,class=CODE,merge=1,delta=2
    59                           	psect	text39,local,class=CODE,merge=1,delta=2,group=2
    60                           	psect	text40,local,class=CODE,merge=1,delta=2,group=2
    61                           	psect	text41,local,class=CODE,merge=1,delta=2,group=2
    62                           	psect	text42,local,class=CODE,merge=1,delta=2,group=2
    63                           	psect	text43,local,class=CODE,merge=1,delta=2
    64                           	psect	text44,local,class=CODE,merge=1,delta=2
    65                           	psect	text45,local,class=CODE,merge=1,delta=2
    66                           	psect	text46,local,class=CODE,merge=1,delta=2
    67                           	psect	text47,local,class=CODE,merge=1,delta=2
    68                           	psect	text48,local,class=CODE,merge=1,delta=2
    69                           	psect	config,global,abs,ovrld,class=CONFIG,space=4,delta=2,noexec
    70                           	dabs	1,0x7E,2
    71     0000                     
    72                           ; Version 2.40
    73                           ; Generated 02/12/2021 GMT
    74                           ; 
    75                           ; Copyright © 2021, Microchip Technology Inc. and its subsidiaries ("Microchip")
    76                           ; All rights reserved.
    77                           ; 
    78                           ; This software is developed by Microchip Technology Inc. and its subsidiaries ("Microch
      +                          ip").
    79                           ; 
    80                           ; Redistribution and use in source and binary forms, with or without modification, are
    81                           ; permitted provided that the following conditions are met:
    82                           ; 
    83                           ;     1. Redistributions of source code must retain the above copyright notice, this lis
      +                          t of
    84                           ;        conditions and the following disclaimer.
    85                           ; 
    86                           ;     2. Redistributions in binary form must reproduce the above copyright notice, this 
      +                          list
    87                           ;        of conditions and the following disclaimer in the documentation and/or other
    88                           ;        materials provided with the distribution. Publication is not required when
    89                           ;        this file is used in an embedded application.
    90                           ; 
    91                           ;     3. Microchip's name may not be used to endorse or promote products derived from th
      +                          is
    92                           ;        software without specific prior written permission.
    93                           ; 
    94                           ; THIS SOFTWARE IS PROVIDED BY MICROCHIP "AS IS" AND ANY EXPRESS OR IMPLIED WARRANTIES,
    95                           ; INCLUDING, BUT NOT LIMITED TO, THE IMPLIED WARRANTIES OF MERCHANTABILITY AND FITNESS F
      +                          OR
    96                           ; PURPOSE ARE DISCLAIMED.  IN NO EVENT SHALL MICROCHIP BE LIABLE FOR ANY DIRECT, INDIREC
      +                          T,
    97                           ; INCIDENTAL, SPECIAL, EXEMPLARY, OR CONSEQUENTIAL DAMAGES (INCLUDING BUT NOT LIMITED TO
    98                           ; PROCUREMENT OF SUBSTITUTE GOODS OR SERVICES; LOSS OF USE, DATA OR PROFITS; OR BUSINESS
    99                           ; INTERRUPTION) HOWSOEVER CAUSED AND ON ANY THEORY OF LIABILITY, WHETHER IN CONTRACT, ST
      +                          RICT
   100                           ; LIABILITY, OR TORT (INCLUDING NEGLIGENCE OR OTHERWISE) ARISING IN ANY WAY OUT OF THE U
      +                          SE OF
   101                           ; THIS SOFTWARE, EVEN IF ADVISED OF THE POSSIBILITY OF SUCH DAMAGE.
   102                           ; 
   103                           ; 
   104                           ; Code-generator required, PIC16F18877 Definitions
   105                           ; 
   106                           ; SFR Addresses
   107     0000                     	;# 
   108     0001                     	;# 
   109     0002                     	;# 
   110     0003                     	;# 
   111     0004                     	;# 
   112     0005                     	;# 
   113     0006                     	;# 
   114     0007                     	;# 
   115     0008                     	;# 
   116     0009                     	;# 
   117     000A                     	;# 
   118     000B                     	;# 
   119     000C                     	;# 
   120     000D                     	;# 
   121     000E                     	;# 
   122     000F                     	;# 
   123     0010                     	;# 
   124     0011                     	;# 
   125     0012                     	;# 
   126     0013                     	;# 
   127     0014                     	;# 
   128     0015                     	;# 
   129     0016                     	;# 
   130     0017                     	;# 
   131     0018                     	;# 
   132     0019                     	;# 
   133     001A                     	;# 
   134     001C                     	;# 
   135     001C                     	;# 
   136     001D                     	;# 
   137     001D                     	;# 
   138     001E                     	;# 
   139     001F                     	;# 
   140     008C                     	;# 
   141     008C                     	;# 
   142     008D                     	;# 
   143     008E                     	;# 
   144     008E                     	;# 
   145     008F                     	;# 
   146     0090                     	;# 
   147     0090                     	;# 
   148     0091                     	;# 
   149     0093                     	;# 
   150     0094                     	;# 
   151     0095                     	;# 
   152     0096                     	;# 
   153     0097                     	;# 
   154     0098                     	;# 
   155     0099                     	;# 
   156     009A                     	;# 
   157     009B                     	;# 
   158     009C                     	;# 
   159     009D                     	;# 
   160     009E                     	;# 
   161     010C                     	;# 
   162     010D                     	;# 
   163     010E                     	;# 
   164     010E                     	;# 
   165     010F                     	;# 
   166     0110                     	;# 
   167     0110                     	;# 
   168     0111                     	;# 
   169     0112                     	;# 
   170     0112                     	;# 
   171     0113                     	;# 
   172     0114                     	;# 
   173     0114                     	;# 
   174     0115                     	;# 
   175     0116                     	;# 
   176     0116                     	;# 
   177     0117                     	;# 
   178     0119                     	;# 
   179     0119                     	;# 
   180     0119                     	;# 
   181     011A                     	;# 
   182     011A                     	;# 
   183     011A                     	;# 
   184     011B                     	;# 
   185     011B                     	;# 
   186     011B                     	;# 
   187     011B                     	;# 
   188     011B                     	;# 
   189     011C                     	;# 
   190     011C                     	;# 
   191     011C                     	;# 
   192     011D                     	;# 
   193     011D                     	;# 
   194     011D                     	;# 
   195     011E                     	;# 
   196     011E                     	;# 
   197     011E                     	;# 
   198     011F                     	;# 
   199     011F                     	;# 
   200     011F                     	;# 
   201     011F                     	;# 
   202     011F                     	;# 
   203     018C                     	;# 
   204     018D                     	;# 
   205     018E                     	;# 
   206     018F                     	;# 
   207     0190                     	;# 
   208     0191                     	;# 
   209     0192                     	;# 
   210     0196                     	;# 
   211     0197                     	;# 
   212     0198                     	;# 
   213     0199                     	;# 
   214     019A                     	;# 
   215     019B                     	;# 
   216     019C                     	;# 
   217     020C                     	;# 
   218     020C                     	;# 
   219     020D                     	;# 
   220     020E                     	;# 
   221     020F                     	;# 
   222     020F                     	;# 
   223     0210                     	;# 
   224     0210                     	;# 
   225     0211                     	;# 
   226     0211                     	;# 
   227     0212                     	;# 
   228     0212                     	;# 
   229     0213                     	;# 
   230     0214                     	;# 
   231     0215                     	;# 
   232     0215                     	;# 
   233     0216                     	;# 
   234     0216                     	;# 
   235     0217                     	;# 
   236     0217                     	;# 
   237     0218                     	;# 
   238     0218                     	;# 
   239     0219                     	;# 
   240     021A                     	;# 
   241     021B                     	;# 
   242     021B                     	;# 
   243     021C                     	;# 
   244     021C                     	;# 
   245     021D                     	;# 
   246     021D                     	;# 
   247     021E                     	;# 
   248     021F                     	;# 
   249     028C                     	;# 
   250     028C                     	;# 
   251     028D                     	;# 
   252     028D                     	;# 
   253     028E                     	;# 
   254     028F                     	;# 
   255     0290                     	;# 
   256     0290                     	;# 
   257     0291                     	;# 
   258     0292                     	;# 
   259     0292                     	;# 
   260     0293                     	;# 
   261     0293                     	;# 
   262     0294                     	;# 
   263     0295                     	;# 
   264     0296                     	;# 
   265     0296                     	;# 
   266     0297                     	;# 
   267     0298                     	;# 
   268     0298                     	;# 
   269     0299                     	;# 
   270     0299                     	;# 
   271     029A                     	;# 
   272     029B                     	;# 
   273     029C                     	;# 
   274     029C                     	;# 
   275     029D                     	;# 
   276     030C                     	;# 
   277     030C                     	;# 
   278     030D                     	;# 
   279     030E                     	;# 
   280     030F                     	;# 
   281     0310                     	;# 
   282     0310                     	;# 
   283     0311                     	;# 
   284     0312                     	;# 
   285     0313                     	;# 
   286     0314                     	;# 
   287     0314                     	;# 
   288     0315                     	;# 
   289     0316                     	;# 
   290     0317                     	;# 
   291     0318                     	;# 
   292     0318                     	;# 
   293     0319                     	;# 
   294     031A                     	;# 
   295     031B                     	;# 
   296     031C                     	;# 
   297     031C                     	;# 
   298     031D                     	;# 
   299     031E                     	;# 
   300     031F                     	;# 
   301     038C                     	;# 
   302     038C                     	;# 
   303     038D                     	;# 
   304     038E                     	;# 
   305     0390                     	;# 
   306     0390                     	;# 
   307     0391                     	;# 
   308     0392                     	;# 
   309     040C                     	;# 
   310     040D                     	;# 
   311     040E                     	;# 
   312     040F                     	;# 
   313     0410                     	;# 
   314     0411                     	;# 
   315     0416                     	;# 
   316     0416                     	;# 
   317     0417                     	;# 
   318     0418                     	;# 
   319     0418                     	;# 
   320     0419                     	;# 
   321     041A                     	;# 
   322     041A                     	;# 
   323     041B                     	;# 
   324     041C                     	;# 
   325     041C                     	;# 
   326     041D                     	;# 
   327     041E                     	;# 
   328     041F                     	;# 
   329     048C                     	;# 
   330     048C                     	;# 
   331     048D                     	;# 
   332     048E                     	;# 
   333     048F                     	;# 
   334     048F                     	;# 
   335     0490                     	;# 
   336     0491                     	;# 
   337     0492                     	;# 
   338     0492                     	;# 
   339     0493                     	;# 
   340     0494                     	;# 
   341     0495                     	;# 
   342     0495                     	;# 
   343     0496                     	;# 
   344     0497                     	;# 
   345     0498                     	;# 
   346     0499                     	;# 
   347     049A                     	;# 
   348     049B                     	;# 
   349     049C                     	;# 
   350     049D                     	;# 
   351     050C                     	;# 
   352     050C                     	;# 
   353     050D                     	;# 
   354     050E                     	;# 
   355     050F                     	;# 
   356     050F                     	;# 
   357     0510                     	;# 
   358     0511                     	;# 
   359     0512                     	;# 
   360     0512                     	;# 
   361     0513                     	;# 
   362     0514                     	;# 
   363     0515                     	;# 
   364     0515                     	;# 
   365     0516                     	;# 
   366     0517                     	;# 
   367     0518                     	;# 
   368     0519                     	;# 
   369     051A                     	;# 
   370     051B                     	;# 
   371     051C                     	;# 
   372     051D                     	;# 
   373     058C                     	;# 
   374     058C                     	;# 
   375     058D                     	;# 
   376     058E                     	;# 
   377     058F                     	;# 
   378     058F                     	;# 
   379     0590                     	;# 
   380     0591                     	;# 
   381     0592                     	;# 
   382     0593                     	;# 
   383     060C                     	;# 
   384     060D                     	;# 
   385     060E                     	;# 
   386     060F                     	;# 
   387     0610                     	;# 
   388     0611                     	;# 
   389     0612                     	;# 
   390     0613                     	;# 
   391     0614                     	;# 
   392     0616                     	;# 
   393     0617                     	;# 
   394     0618                     	;# 
   395     0619                     	;# 
   396     061A                     	;# 
   397     061B                     	;# 
   398     061C                     	;# 
   399     061D                     	;# 
   400     061E                     	;# 
   401     068C                     	;# 
   402     068D                     	;# 
   403     068E                     	;# 
   404     068F                     	;# 
   405     0690                     	;# 
   406     0691                     	;# 
   407     0692                     	;# 
   408     0693                     	;# 
   409     0694                     	;# 
   410     070C                     	;# 
   411     070D                     	;# 
   412     070E                     	;# 
   413     070F                     	;# 
   414     0710                     	;# 
   415     0711                     	;# 
   416     0712                     	;# 
   417     0713                     	;# 
   418     0714                     	;# 
   419     0716                     	;# 
   420     0717                     	;# 
   421     0718                     	;# 
   422     0719                     	;# 
   423     071A                     	;# 
   424     071B                     	;# 
   425     071C                     	;# 
   426     071D                     	;# 
   427     071E                     	;# 
   428     0796                     	;# 
   429     0797                     	;# 
   430     0798                     	;# 
   431     0799                     	;# 
   432     079A                     	;# 
   433     079B                     	;# 
   434     080C                     	;# 
   435     080D                     	;# 
   436     080E                     	;# 
   437     080F                     	;# 
   438     0810                     	;# 
   439     0811                     	;# 
   440     0812                     	;# 
   441     0813                     	;# 
   442     0814                     	;# 
   443     081A                     	;# 
   444     081B                     	;# 
   445     081C                     	;# 
   446     081D                     	;# 
   447     081E                     	;# 
   448     081F                     	;# 
   449     088C                     	;# 
   450     088D                     	;# 
   451     088E                     	;# 
   452     088F                     	;# 
   453     0890                     	;# 
   454     0891                     	;# 
   455     0892                     	;# 
   456     0893                     	;# 
   457     0895                     	;# 
   458     0896                     	;# 
   459     0897                     	;# 
   460     0898                     	;# 
   461     0899                     	;# 
   462     089A                     	;# 
   463     089B                     	;# 
   464     090C                     	;# 
   465     090E                     	;# 
   466     090F                     	;# 
   467     091F                     	;# 
   468     098F                     	;# 
   469     098F                     	;# 
   470     0990                     	;# 
   471     0991                     	;# 
   472     0992                     	;# 
   473     0993                     	;# 
   474     0994                     	;# 
   475     0995                     	;# 
   476     0996                     	;# 
   477     0997                     	;# 
   478     1E0F                     	;# 
   479     1E10                     	;# 
   480     1E11                     	;# 
   481     1E12                     	;# 
   482     1E13                     	;# 
   483     1E14                     	;# 
   484     1E15                     	;# 
   485     1E16                     	;# 
   486     1E17                     	;# 
   487     1E18                     	;# 
   488     1E19                     	;# 
   489     1E1A                     	;# 
   490     1E1B                     	;# 
   491     1E1C                     	;# 
   492     1E1D                     	;# 
   493     1E1E                     	;# 
   494     1E1F                     	;# 
   495     1E20                     	;# 
   496     1E21                     	;# 
   497     1E22                     	;# 
   498     1E23                     	;# 
   499     1E24                     	;# 
   500     1E25                     	;# 
   501     1E26                     	;# 
   502     1E27                     	;# 
   503     1E28                     	;# 
   504     1E29                     	;# 
   505     1E2A                     	;# 
   506     1E2B                     	;# 
   507     1E2C                     	;# 
   508     1E2D                     	;# 
   509     1E2E                     	;# 
   510     1E2F                     	;# 
   511     1E30                     	;# 
   512     1E31                     	;# 
   513     1E32                     	;# 
   514     1E33                     	;# 
   515     1E34                     	;# 
   516     1E35                     	;# 
   517     1E36                     	;# 
   518     1E37                     	;# 
   519     1E8F                     	;# 
   520     1E90                     	;# 
   521     1E91                     	;# 
   522     1E92                     	;# 
   523     1E93                     	;# 
   524     1E94                     	;# 
   525     1E95                     	;# 
   526     1E96                     	;# 
   527     1E97                     	;# 
   528     1E9C                     	;# 
   529     1E9D                     	;# 
   530     1E9E                     	;# 
   531     1EA1                     	;# 
   532     1EA2                     	;# 
   533     1EA3                     	;# 
   534     1EA4                     	;# 
   535     1EA5                     	;# 
   536     1EA9                     	;# 
   537     1EAA                     	;# 
   538     1EAB                     	;# 
   539     1EAC                     	;# 
   540     1EB1                     	;# 
   541     1EB2                     	;# 
   542     1EB3                     	;# 
   543     1EB8                     	;# 
   544     1EB9                     	;# 
   545     1EBA                     	;# 
   546     1EBB                     	;# 
   547     1EBC                     	;# 
   548     1EBD                     	;# 
   549     1EBE                     	;# 
   550     1EC3                     	;# 
   551     1EC5                     	;# 
   552     1EC6                     	;# 
   553     1EC7                     	;# 
   554     1EC8                     	;# 
   555     1EC9                     	;# 
   556     1ECA                     	;# 
   557     1ECB                     	;# 
   558     1ECC                     	;# 
   559     1F10                     	;# 
   560     1F11                     	;# 
   561     1F12                     	;# 
   562     1F13                     	;# 
   563     1F14                     	;# 
   564     1F15                     	;# 
   565     1F16                     	;# 
   566     1F17                     	;# 
   567     1F18                     	;# 
   568     1F19                     	;# 
   569     1F1A                     	;# 
   570     1F1B                     	;# 
   571     1F1C                     	;# 
   572     1F1D                     	;# 
   573     1F1E                     	;# 
   574     1F1F                     	;# 
   575     1F20                     	;# 
   576     1F21                     	;# 
   577     1F22                     	;# 
   578     1F23                     	;# 
   579     1F24                     	;# 
   580     1F25                     	;# 
   581     1F26                     	;# 
   582     1F27                     	;# 
   583     1F28                     	;# 
   584     1F29                     	;# 
   585     1F2A                     	;# 
   586     1F2B                     	;# 
   587     1F2C                     	;# 
   588     1F2D                     	;# 
   589     1F2E                     	;# 
   590     1F2F                     	;# 
   591     1F30                     	;# 
   592     1F31                     	;# 
   593     1F32                     	;# 
   594     1F38                     	;# 
   595     1F39                     	;# 
   596     1F3A                     	;# 
   597     1F3B                     	;# 
   598     1F3C                     	;# 
   599     1F3D                     	;# 
   600     1F3E                     	;# 
   601     1F3F                     	;# 
   602     1F40                     	;# 
   603     1F41                     	;# 
   604     1F43                     	;# 
   605     1F44                     	;# 
   606     1F45                     	;# 
   607     1F46                     	;# 
   608     1F47                     	;# 
   609     1F48                     	;# 
   610     1F49                     	;# 
   611     1F4A                     	;# 
   612     1F4B                     	;# 
   613     1F4C                     	;# 
   614     1F4E                     	;# 
   615     1F4F                     	;# 
   616     1F50                     	;# 
   617     1F51                     	;# 
   618     1F52                     	;# 
   619     1F53                     	;# 
   620     1F54                     	;# 
   621     1F55                     	;# 
   622     1F56                     	;# 
   623     1F57                     	;# 
   624     1F59                     	;# 
   625     1F5A                     	;# 
   626     1F5B                     	;# 
   627     1F5C                     	;# 
   628     1F5D                     	;# 
   629     1F61                     	;# 
   630     1F62                     	;# 
   631     1F64                     	;# 
   632     1F65                     	;# 
   633     1F66                     	;# 
   634     1F67                     	;# 
   635     1F68                     	;# 
   636     1F69                     	;# 
   637     1F6A                     	;# 
   638     1F6B                     	;# 
   639     1F6C                     	;# 
   640     1F6D                     	;# 
   641     1FE4                     	;# 
   642     1FE5                     	;# 
   643     1FE6                     	;# 
   644     1FE7                     	;# 
   645     1FE8                     	;# 
   646     1FE9                     	;# 
   647     1FEA                     	;# 
   648     1FEB                     	;# 
   649     1FED                     	;# 
   650     1FEE                     	;# 
   651     1FEF                     	;# 
   652     0000                     	;# 
   653     0001                     	;# 
   654     0002                     	;# 
   655     0003                     	;# 
   656     0004                     	;# 
   657     0005                     	;# 
   658     0006                     	;# 
   659     0007                     	;# 
   660     0008                     	;# 
   661     0009                     	;# 
   662     000A                     	;# 
   663     000B                     	;# 
   664     000C                     	;# 
   665     000D                     	;# 
   666     000E                     	;# 
   667     000F                     	;# 
   668     0010                     	;# 
   669     0011                     	;# 
   670     0012                     	;# 
   671     0013                     	;# 
   672     0014                     	;# 
   673     0015                     	;# 
   674     0016                     	;# 
   675     0017                     	;# 
   676     0018                     	;# 
   677     0019                     	;# 
   678     001A                     	;# 
   679     001C                     	;# 
   680     001C                     	;# 
   681     001D                     	;# 
   682     001D                     	;# 
   683     001E                     	;# 
   684     001F                     	;# 
   685     008C                     	;# 
   686     008C                     	;# 
   687     008D                     	;# 
   688     008E                     	;# 
   689     008E                     	;# 
   690     008F                     	;# 
   691     0090                     	;# 
   692     0090                     	;# 
   693     0091                     	;# 
   694     0093                     	;# 
   695     0094                     	;# 
   696     0095                     	;# 
   697     0096                     	;# 
   698     0097                     	;# 
   699     0098                     	;# 
   700     0099                     	;# 
   701     009A                     	;# 
   702     009B                     	;# 
   703     009C                     	;# 
   704     009D                     	;# 
   705     009E                     	;# 
   706     010C                     	;# 
   707     010D                     	;# 
   708     010E                     	;# 
   709     010E                     	;# 
   710     010F                     	;# 
   711     0110                     	;# 
   712     0110                     	;# 
   713     0111                     	;# 
   714     0112                     	;# 
   715     0112                     	;# 
   716     0113                     	;# 
   717     0114                     	;# 
   718     0114                     	;# 
   719     0115                     	;# 
   720     0116                     	;# 
   721     0116                     	;# 
   722     0117                     	;# 
   723     0119                     	;# 
   724     0119                     	;# 
   725     0119                     	;# 
   726     011A                     	;# 
   727     011A                     	;# 
   728     011A                     	;# 
   729     011B                     	;# 
   730     011B                     	;# 
   731     011B                     	;# 
   732     011B                     	;# 
   733     011B                     	;# 
   734     011C                     	;# 
   735     011C                     	;# 
   736     011C                     	;# 
   737     011D                     	;# 
   738     011D                     	;# 
   739     011D                     	;# 
   740     011E                     	;# 
   741     011E                     	;# 
   742     011E                     	;# 
   743     011F                     	;# 
   744     011F                     	;# 
   745     011F                     	;# 
   746     011F                     	;# 
   747     011F                     	;# 
   748     018C                     	;# 
   749     018D                     	;# 
   750     018E                     	;# 
   751     018F                     	;# 
   752     0190                     	;# 
   753     0191                     	;# 
   754     0192                     	;# 
   755     0196                     	;# 
   756     0197                     	;# 
   757     0198                     	;# 
   758     0199                     	;# 
   759     019A                     	;# 
   760     019B                     	;# 
   761     019C                     	;# 
   762     020C                     	;# 
   763     020C                     	;# 
   764     020D                     	;# 
   765     020E                     	;# 
   766     020F                     	;# 
   767     020F                     	;# 
   768     0210                     	;# 
   769     0210                     	;# 
   770     0211                     	;# 
   771     0211                     	;# 
   772     0212                     	;# 
   773     0212                     	;# 
   774     0213                     	;# 
   775     0214                     	;# 
   776     0215                     	;# 
   777     0215                     	;# 
   778     0216                     	;# 
   779     0216                     	;# 
   780     0217                     	;# 
   781     0217                     	;# 
   782     0218                     	;# 
   783     0218                     	;# 
   784     0219                     	;# 
   785     021A                     	;# 
   786     021B                     	;# 
   787     021B                     	;# 
   788     021C                     	;# 
   789     021C                     	;# 
   790     021D                     	;# 
   791     021D                     	;# 
   792     021E                     	;# 
   793     021F                     	;# 
   794     028C                     	;# 
   795     028C                     	;# 
   796     028D                     	;# 
   797     028D                     	;# 
   798     028E                     	;# 
   799     028F                     	;# 
   800     0290                     	;# 
   801     0290                     	;# 
   802     0291                     	;# 
   803     0292                     	;# 
   804     0292                     	;# 
   805     0293                     	;# 
   806     0293                     	;# 
   807     0294                     	;# 
   808     0295                     	;# 
   809     0296                     	;# 
   810     0296                     	;# 
   811     0297                     	;# 
   812     0298                     	;# 
   813     0298                     	;# 
   814     0299                     	;# 
   815     0299                     	;# 
   816     029A                     	;# 
   817     029B                     	;# 
   818     029C                     	;# 
   819     029C                     	;# 
   820     029D                     	;# 
   821     030C                     	;# 
   822     030C                     	;# 
   823     030D                     	;# 
   824     030E                     	;# 
   825     030F                     	;# 
   826     0310                     	;# 
   827     0310                     	;# 
   828     0311                     	;# 
   829     0312                     	;# 
   830     0313                     	;# 
   831     0314                     	;# 
   832     0314                     	;# 
   833     0315                     	;# 
   834     0316                     	;# 
   835     0317                     	;# 
   836     0318                     	;# 
   837     0318                     	;# 
   838     0319                     	;# 
   839     031A                     	;# 
   840     031B                     	;# 
   841     031C                     	;# 
   842     031C                     	;# 
   843     031D                     	;# 
   844     031E                     	;# 
   845     031F                     	;# 
   846     038C                     	;# 
   847     038C                     	;# 
   848     038D                     	;# 
   849     038E                     	;# 
   850     0390                     	;# 
   851     0390                     	;# 
   852     0391                     	;# 
   853     0392                     	;# 
   854     040C                     	;# 
   855     040D                     	;# 
   856     040E                     	;# 
   857     040F                     	;# 
   858     0410                     	;# 
   859     0411                     	;# 
   860     0416                     	;# 
   861     0416                     	;# 
   862     0417                     	;# 
   863     0418                     	;# 
   864     0418                     	;# 
   865     0419                     	;# 
   866     041A                     	;# 
   867     041A                     	;# 
   868     041B                     	;# 
   869     041C                     	;# 
   870     041C                     	;# 
   871     041D                     	;# 
   872     041E                     	;# 
   873     041F                     	;# 
   874     048C                     	;# 
   875     048C                     	;# 
   876     048D                     	;# 
   877     048E                     	;# 
   878     048F                     	;# 
   879     048F                     	;# 
   880     0490                     	;# 
   881     0491                     	;# 
   882     0492                     	;# 
   883     0492                     	;# 
   884     0493                     	;# 
   885     0494                     	;# 
   886     0495                     	;# 
   887     0495                     	;# 
   888     0496                     	;# 
   889     0497                     	;# 
   890     0498                     	;# 
   891     0499                     	;# 
   892     049A                     	;# 
   893     049B                     	;# 
   894     049C                     	;# 
   895     049D                     	;# 
   896     050C                     	;# 
   897     050C                     	;# 
   898     050D                     	;# 
   899     050E                     	;# 
   900     050F                     	;# 
   901     050F                     	;# 
   902     0510                     	;# 
   903     0511                     	;# 
   904     0512                     	;# 
   905     0512                     	;# 
   906     0513                     	;# 
   907     0514                     	;# 
   908     0515                     	;# 
   909     0515                     	;# 
   910     0516                     	;# 
   911     0517                     	;# 
   912     0518                     	;# 
   913     0519                     	;# 
   914     051A                     	;# 
   915     051B                     	;# 
   916     051C                     	;# 
   917     051D                     	;# 
   918     058C                     	;# 
   919     058C                     	;# 
   920     058D                     	;# 
   921     058E                     	;# 
   922     058F                     	;# 
   923     058F                     	;# 
   924     0590                     	;# 
   925     0591                     	;# 
   926     0592                     	;# 
   927     0593                     	;# 
   928     060C                     	;# 
   929     060D                     	;# 
   930     060E                     	;# 
   931     060F                     	;# 
   932     0610                     	;# 
   933     0611                     	;# 
   934     0612                     	;# 
   935     0613                     	;# 
   936     0614                     	;# 
   937     0616                     	;# 
   938     0617                     	;# 
   939     0618                     	;# 
   940     0619                     	;# 
   941     061A                     	;# 
   942     061B                     	;# 
   943     061C                     	;# 
   944     061D                     	;# 
   945     061E                     	;# 
   946     068C                     	;# 
   947     068D                     	;# 
   948     068E                     	;# 
   949     068F                     	;# 
   950     0690                     	;# 
   951     0691                     	;# 
   952     0692                     	;# 
   953     0693                     	;# 
   954     0694                     	;# 
   955     070C                     	;# 
   956     070D                     	;# 
   957     070E                     	;# 
   958     070F                     	;# 
   959     0710                     	;# 
   960     0711                     	;# 
   961     0712                     	;# 
   962     0713                     	;# 
   963     0714                     	;# 
   964     0716                     	;# 
   965     0717                     	;# 
   966     0718                     	;# 
   967     0719                     	;# 
   968     071A                     	;# 
   969     071B                     	;# 
   970     071C                     	;# 
   971     071D                     	;# 
   972     071E                     	;# 
   973     0796                     	;# 
   974     0797                     	;# 
   975     0798                     	;# 
   976     0799                     	;# 
   977     079A                     	;# 
   978     079B                     	;# 
   979     080C                     	;# 
   980     080D                     	;# 
   981     080E                     	;# 
   982     080F                     	;# 
   983     0810                     	;# 
   984     0811                     	;# 
   985     0812                     	;# 
   986     0813                     	;# 
   987     0814                     	;# 
   988     081A                     	;# 
   989     081B                     	;# 
   990     081C                     	;# 
   991     081D                     	;# 
   992     081E                     	;# 
   993     081F                     	;# 
   994     088C                     	;# 
   995     088D                     	;# 
   996     088E                     	;# 
   997     088F                     	;# 
   998     0890                     	;# 
   999     0891                     	;# 
  1000     0892                     	;# 
  1001     0893                     	;# 
  1002     0895                     	;# 
  1003     0896                     	;# 
  1004     0897                     	;# 
  1005     0898                     	;# 
  1006     0899                     	;# 
  1007     089A                     	;# 
  1008     089B                     	;# 
  1009     090C                     	;# 
  1010     090E                     	;# 
  1011     090F                     	;# 
  1012     091F                     	;# 
  1013     098F                     	;# 
  1014     098F                     	;# 
  1015     0990                     	;# 
  1016     0991                     	;# 
  1017     0992                     	;# 
  1018     0993                     	;# 
  1019     0994                     	;# 
  1020     0995                     	;# 
  1021     0996                     	;# 
  1022     0997                     	;# 
  1023     1E0F                     	;# 
  1024     1E10                     	;# 
  1025     1E11                     	;# 
  1026     1E12                     	;# 
  1027     1E13                     	;# 
  1028     1E14                     	;# 
  1029     1E15                     	;# 
  1030     1E16                     	;# 
  1031     1E17                     	;# 
  1032     1E18                     	;# 
  1033     1E19                     	;# 
  1034     1E1A                     	;# 
  1035     1E1B                     	;# 
  1036     1E1C                     	;# 
  1037     1E1D                     	;# 
  1038     1E1E                     	;# 
  1039     1E1F                     	;# 
  1040     1E20                     	;# 
  1041     1E21                     	;# 
  1042     1E22                     	;# 
  1043     1E23                     	;# 
  1044     1E24                     	;# 
  1045     1E25                     	;# 
  1046     1E26                     	;# 
  1047     1E27                     	;# 
  1048     1E28                     	;# 
  1049     1E29                     	;# 
  1050     1E2A                     	;# 
  1051     1E2B                     	;# 
  1052     1E2C                     	;# 
  1053     1E2D                     	;# 
  1054     1E2E                     	;# 
  1055     1E2F                     	;# 
  1056     1E30                     	;# 
  1057     1E31                     	;# 
  1058     1E32                     	;# 
  1059     1E33                     	;# 
  1060     1E34                     	;# 
  1061     1E35                     	;# 
  1062     1E36                     	;# 
  1063     1E37                     	;# 
  1064     1E8F                     	;# 
  1065     1E90                     	;# 
  1066     1E91                     	;# 
  1067     1E92                     	;# 
  1068     1E93                     	;# 
  1069     1E94                     	;# 
  1070     1E95                     	;# 
  1071     1E96                     	;# 
  1072     1E97                     	;# 
  1073     1E9C                     	;# 
  1074     1E9D                     	;# 
  1075     1E9E                     	;# 
  1076     1EA1                     	;# 
  1077     1EA2                     	;# 
  1078     1EA3                     	;# 
  1079     1EA4                     	;# 
  1080     1EA5                     	;# 
  1081     1EA9                     	;# 
  1082     1EAA                     	;# 
  1083     1EAB                     	;# 
  1084     1EAC                     	;# 
  1085     1EB1                     	;# 
  1086     1EB2                     	;# 
  1087     1EB3                     	;# 
  1088     1EB8                     	;# 
  1089     1EB9                     	;# 
  1090     1EBA                     	;# 
  1091     1EBB                     	;# 
  1092     1EBC                     	;# 
  1093     1EBD                     	;# 
  1094     1EBE                     	;# 
  1095     1EC3                     	;# 
  1096     1EC5                     	;# 
  1097     1EC6                     	;# 
  1098     1EC7                     	;# 
  1099     1EC8                     	;# 
  1100     1EC9                     	;# 
  1101     1ECA                     	;# 
  1102     1ECB                     	;# 
  1103     1ECC                     	;# 
  1104     1F10                     	;# 
  1105     1F11                     	;# 
  1106     1F12                     	;# 
  1107     1F13                     	;# 
  1108     1F14                     	;# 
  1109     1F15                     	;# 
  1110     1F16                     	;# 
  1111     1F17                     	;# 
  1112     1F18                     	;# 
  1113     1F19                     	;# 
  1114     1F1A                     	;# 
  1115     1F1B                     	;# 
  1116     1F1C                     	;# 
  1117     1F1D                     	;# 
  1118     1F1E                     	;# 
  1119     1F1F                     	;# 
  1120     1F20                     	;# 
  1121     1F21                     	;# 
  1122     1F22                     	;# 
  1123     1F23                     	;# 
  1124     1F24                     	;# 
  1125     1F25                     	;# 
  1126     1F26                     	;# 
  1127     1F27                     	;# 
  1128     1F28                     	;# 
  1129     1F29                     	;# 
  1130     1F2A                     	;# 
  1131     1F2B                     	;# 
  1132     1F2C                     	;# 
  1133     1F2D                     	;# 
  1134     1F2E                     	;# 
  1135     1F2F                     	;# 
  1136     1F30                     	;# 
  1137     1F31                     	;# 
  1138     1F32                     	;# 
  1139     1F38                     	;# 
  1140     1F39                     	;# 
  1141     1F3A                     	;# 
  1142     1F3B                     	;# 
  1143     1F3C                     	;# 
  1144     1F3D                     	;# 
  1145     1F3E                     	;# 
  1146     1F3F                     	;# 
  1147     1F40                     	;# 
  1148     1F41                     	;# 
  1149     1F43                     	;# 
  1150     1F44                     	;# 
  1151     1F45                     	;# 
  1152     1F46                     	;# 
  1153     1F47                     	;# 
  1154     1F48                     	;# 
  1155     1F49                     	;# 
  1156     1F4A                     	;# 
  1157     1F4B                     	;# 
  1158     1F4C                     	;# 
  1159     1F4E                     	;# 
  1160     1F4F                     	;# 
  1161     1F50                     	;# 
  1162     1F51                     	;# 
  1163     1F52                     	;# 
  1164     1F53                     	;# 
  1165     1F54                     	;# 
  1166     1F55                     	;# 
  1167     1F56                     	;# 
  1168     1F57                     	;# 
  1169     1F59                     	;# 
  1170     1F5A                     	;# 
  1171     1F5B                     	;# 
  1172     1F5C                     	;# 
  1173     1F5D                     	;# 
  1174     1F61                     	;# 
  1175     1F62                     	;# 
  1176     1F64                     	;# 
  1177     1F65                     	;# 
  1178     1F66                     	;# 
  1179     1F67                     	;# 
  1180     1F68                     	;# 
  1181     1F69                     	;# 
  1182     1F6A                     	;# 
  1183     1F6B                     	;# 
  1184     1F6C                     	;# 
  1185     1F6D                     	;# 
  1186     1FE4                     	;# 
  1187     1FE5                     	;# 
  1188     1FE6                     	;# 
  1189     1FE7                     	;# 
  1190     1FE8                     	;# 
  1191     1FE9                     	;# 
  1192     1FEA                     	;# 
  1193     1FEB                     	;# 
  1194     1FED                     	;# 
  1195     1FEE                     	;# 
  1196     1FEF                     	;# 
  1197     0000                     	;# 
  1198     0001                     	;# 
  1199     0002                     	;# 
  1200     0003                     	;# 
  1201     0004                     	;# 
  1202     0005                     	;# 
  1203     0006                     	;# 
  1204     0007                     	;# 
  1205     0008                     	;# 
  1206     0009                     	;# 
  1207     000A                     	;# 
  1208     000B                     	;# 
  1209     000C                     	;# 
  1210     000D                     	;# 
  1211     000E                     	;# 
  1212     000F                     	;# 
  1213     0010                     	;# 
  1214     0011                     	;# 
  1215     0012                     	;# 
  1216     0013                     	;# 
  1217     0014                     	;# 
  1218     0015                     	;# 
  1219     0016                     	;# 
  1220     0017                     	;# 
  1221     0018                     	;# 
  1222     0019                     	;# 
  1223     001A                     	;# 
  1224     001C                     	;# 
  1225     001C                     	;# 
  1226     001D                     	;# 
  1227     001D                     	;# 
  1228     001E                     	;# 
  1229     001F                     	;# 
  1230     008C                     	;# 
  1231     008C                     	;# 
  1232     008D                     	;# 
  1233     008E                     	;# 
  1234     008E                     	;# 
  1235     008F                     	;# 
  1236     0090                     	;# 
  1237     0090                     	;# 
  1238     0091                     	;# 
  1239     0093                     	;# 
  1240     0094                     	;# 
  1241     0095                     	;# 
  1242     0096                     	;# 
  1243     0097                     	;# 
  1244     0098                     	;# 
  1245     0099                     	;# 
  1246     009A                     	;# 
  1247     009B                     	;# 
  1248     009C                     	;# 
  1249     009D                     	;# 
  1250     009E                     	;# 
  1251     010C                     	;# 
  1252     010D                     	;# 
  1253     010E                     	;# 
  1254     010E                     	;# 
  1255     010F                     	;# 
  1256     0110                     	;# 
  1257     0110                     	;# 
  1258     0111                     	;# 
  1259     0112                     	;# 
  1260     0112                     	;# 
  1261     0113                     	;# 
  1262     0114                     	;# 
  1263     0114                     	;# 
  1264     0115                     	;# 
  1265     0116                     	;# 
  1266     0116                     	;# 
  1267     0117                     	;# 
  1268     0119                     	;# 
  1269     0119                     	;# 
  1270     0119                     	;# 
  1271     011A                     	;# 
  1272     011A                     	;# 
  1273     011A                     	;# 
  1274     011B                     	;# 
  1275     011B                     	;# 
  1276     011B                     	;# 
  1277     011B                     	;# 
  1278     011B                     	;# 
  1279     011C                     	;# 
  1280     011C                     	;# 
  1281     011C                     	;# 
  1282     011D                     	;# 
  1283     011D                     	;# 
  1284     011D                     	;# 
  1285     011E                     	;# 
  1286     011E                     	;# 
  1287     011E                     	;# 
  1288     011F                     	;# 
  1289     011F                     	;# 
  1290     011F                     	;# 
  1291     011F                     	;# 
  1292     011F                     	;# 
  1293     018C                     	;# 
  1294     018D                     	;# 
  1295     018E                     	;# 
  1296     018F                     	;# 
  1297     0190                     	;# 
  1298     0191                     	;# 
  1299     0192                     	;# 
  1300     0196                     	;# 
  1301     0197                     	;# 
  1302     0198                     	;# 
  1303     0199                     	;# 
  1304     019A                     	;# 
  1305     019B                     	;# 
  1306     019C                     	;# 
  1307     020C                     	;# 
  1308     020C                     	;# 
  1309     020D                     	;# 
  1310     020E                     	;# 
  1311     020F                     	;# 
  1312     020F                     	;# 
  1313     0210                     	;# 
  1314     0210                     	;# 
  1315     0211                     	;# 
  1316     0211                     	;# 
  1317     0212                     	;# 
  1318     0212                     	;# 
  1319     0213                     	;# 
  1320     0214                     	;# 
  1321     0215                     	;# 
  1322     0215                     	;# 
  1323     0216                     	;# 
  1324     0216                     	;# 
  1325     0217                     	;# 
  1326     0217                     	;# 
  1327     0218                     	;# 
  1328     0218                     	;# 
  1329     0219                     	;# 
  1330     021A                     	;# 
  1331     021B                     	;# 
  1332     021B                     	;# 
  1333     021C                     	;# 
  1334     021C                     	;# 
  1335     021D                     	;# 
  1336     021D                     	;# 
  1337     021E                     	;# 
  1338     021F                     	;# 
  1339     028C                     	;# 
  1340     028C                     	;# 
  1341     028D                     	;# 
  1342     028D                     	;# 
  1343     028E                     	;# 
  1344     028F                     	;# 
  1345     0290                     	;# 
  1346     0290                     	;# 
  1347     0291                     	;# 
  1348     0292                     	;# 
  1349     0292                     	;# 
  1350     0293                     	;# 
  1351     0293                     	;# 
  1352     0294                     	;# 
  1353     0295                     	;# 
  1354     0296                     	;# 
  1355     0296                     	;# 
  1356     0297                     	;# 
  1357     0298                     	;# 
  1358     0298                     	;# 
  1359     0299                     	;# 
  1360     0299                     	;# 
  1361     029A                     	;# 
  1362     029B                     	;# 
  1363     029C                     	;# 
  1364     029C                     	;# 
  1365     029D                     	;# 
  1366     030C                     	;# 
  1367     030C                     	;# 
  1368     030D                     	;# 
  1369     030E                     	;# 
  1370     030F                     	;# 
  1371     0310                     	;# 
  1372     0310                     	;# 
  1373     0311                     	;# 
  1374     0312                     	;# 
  1375     0313                     	;# 
  1376     0314                     	;# 
  1377     0314                     	;# 
  1378     0315                     	;# 
  1379     0316                     	;# 
  1380     0317                     	;# 
  1381     0318                     	;# 
  1382     0318                     	;# 
  1383     0319                     	;# 
  1384     031A                     	;# 
  1385     031B                     	;# 
  1386     031C                     	;# 
  1387     031C                     	;# 
  1388     031D                     	;# 
  1389     031E                     	;# 
  1390     031F                     	;# 
  1391     038C                     	;# 
  1392     038C                     	;# 
  1393     038D                     	;# 
  1394     038E                     	;# 
  1395     0390                     	;# 
  1396     0390                     	;# 
  1397     0391                     	;# 
  1398     0392                     	;# 
  1399     040C                     	;# 
  1400     040D                     	;# 
  1401     040E                     	;# 
  1402     040F                     	;# 
  1403     0410                     	;# 
  1404     0411                     	;# 
  1405     0416                     	;# 
  1406     0416                     	;# 
  1407     0417                     	;# 
  1408     0418                     	;# 
  1409     0418                     	;# 
  1410     0419                     	;# 
  1411     041A                     	;# 
  1412     041A                     	;# 
  1413     041B                     	;# 
  1414     041C                     	;# 
  1415     041C                     	;# 
  1416     041D                     	;# 
  1417     041E                     	;# 
  1418     041F                     	;# 
  1419     048C                     	;# 
  1420     048C                     	;# 
  1421     048D                     	;# 
  1422     048E                     	;# 
  1423     048F                     	;# 
  1424     048F                     	;# 
  1425     0490                     	;# 
  1426     0491                     	;# 
  1427     0492                     	;# 
  1428     0492                     	;# 
  1429     0493                     	;# 
  1430     0494                     	;# 
  1431     0495                     	;# 
  1432     0495                     	;# 
  1433     0496                     	;# 
  1434     0497                     	;# 
  1435     0498                     	;# 
  1436     0499                     	;# 
  1437     049A                     	;# 
  1438     049B                     	;# 
  1439     049C                     	;# 
  1440     049D                     	;# 
  1441     050C                     	;# 
  1442     050C                     	;# 
  1443     050D                     	;# 
  1444     050E                     	;# 
  1445     050F                     	;# 
  1446     050F                     	;# 
  1447     0510                     	;# 
  1448     0511                     	;# 
  1449     0512                     	;# 
  1450     0512                     	;# 
  1451     0513                     	;# 
  1452     0514                     	;# 
  1453     0515                     	;# 
  1454     0515                     	;# 
  1455     0516                     	;# 
  1456     0517                     	;# 
  1457     0518                     	;# 
  1458     0519                     	;# 
  1459     051A                     	;# 
  1460     051B                     	;# 
  1461     051C                     	;# 
  1462     051D                     	;# 
  1463     058C                     	;# 
  1464     058C                     	;# 
  1465     058D                     	;# 
  1466     058E                     	;# 
  1467     058F                     	;# 
  1468     058F                     	;# 
  1469     0590                     	;# 
  1470     0591                     	;# 
  1471     0592                     	;# 
  1472     0593                     	;# 
  1473     060C                     	;# 
  1474     060D                     	;# 
  1475     060E                     	;# 
  1476     060F                     	;# 
  1477     0610                     	;# 
  1478     0611                     	;# 
  1479     0612                     	;# 
  1480     0613                     	;# 
  1481     0614                     	;# 
  1482     0616                     	;# 
  1483     0617                     	;# 
  1484     0618                     	;# 
  1485     0619                     	;# 
  1486     061A                     	;# 
  1487     061B                     	;# 
  1488     061C                     	;# 
  1489     061D                     	;# 
  1490     061E                     	;# 
  1491     068C                     	;# 
  1492     068D                     	;# 
  1493     068E                     	;# 
  1494     068F                     	;# 
  1495     0690                     	;# 
  1496     0691                     	;# 
  1497     0692                     	;# 
  1498     0693                     	;# 
  1499     0694                     	;# 
  1500     070C                     	;# 
  1501     070D                     	;# 
  1502     070E                     	;# 
  1503     070F                     	;# 
  1504     0710                     	;# 
  1505     0711                     	;# 
  1506     0712                     	;# 
  1507     0713                     	;# 
  1508     0714                     	;# 
  1509     0716                     	;# 
  1510     0717                     	;# 
  1511     0718                     	;# 
  1512     0719                     	;# 
  1513     071A                     	;# 
  1514     071B                     	;# 
  1515     071C                     	;# 
  1516     071D                     	;# 
  1517     071E                     	;# 
  1518     0796                     	;# 
  1519     0797                     	;# 
  1520     0798                     	;# 
  1521     0799                     	;# 
  1522     079A                     	;# 
  1523     079B                     	;# 
  1524     080C                     	;# 
  1525     080D                     	;# 
  1526     080E                     	;# 
  1527     080F                     	;# 
  1528     0810                     	;# 
  1529     0811                     	;# 
  1530     0812                     	;# 
  1531     0813                     	;# 
  1532     0814                     	;# 
  1533     081A                     	;# 
  1534     081B                     	;# 
  1535     081C                     	;# 
  1536     081D                     	;# 
  1537     081E                     	;# 
  1538     081F                     	;# 
  1539     088C                     	;# 
  1540     088D                     	;# 
  1541     088E                     	;# 
  1542     088F                     	;# 
  1543     0890                     	;# 
  1544     0891                     	;# 
  1545     0892                     	;# 
  1546     0893                     	;# 
  1547     0895                     	;# 
  1548     0896                     	;# 
  1549     0897                     	;# 
  1550     0898                     	;# 
  1551     0899                     	;# 
  1552     089A                     	;# 
  1553     089B                     	;# 
  1554     090C                     	;# 
  1555     090E                     	;# 
  1556     090F                     	;# 
  1557     091F                     	;# 
  1558     098F                     	;# 
  1559     098F                     	;# 
  1560     0990                     	;# 
  1561     0991                     	;# 
  1562     0992                     	;# 
  1563     0993                     	;# 
  1564     0994                     	;# 
  1565     0995                     	;# 
  1566     0996                     	;# 
  1567     0997                     	;# 
  1568     1E0F                     	;# 
  1569     1E10                     	;# 
  1570     1E11                     	;# 
  1571     1E12                     	;# 
  1572     1E13                     	;# 
  1573     1E14                     	;# 
  1574     1E15                     	;# 
  1575     1E16                     	;# 
  1576     1E17                     	;# 
  1577     1E18                     	;# 
  1578     1E19                     	;# 
  1579     1E1A                     	;# 
  1580     1E1B                     	;# 
  1581     1E1C                     	;# 
  1582     1E1D                     	;# 
  1583     1E1E                     	;# 
  1584     1E1F                     	;# 
  1585     1E20                     	;# 
  1586     1E21                     	;# 
  1587     1E22                     	;# 
  1588     1E23                     	;# 
  1589     1E24                     	;# 
  1590     1E25                     	;# 
  1591     1E26                     	;# 
  1592     1E27                     	;# 
  1593     1E28                     	;# 
  1594     1E29                     	;# 
  1595     1E2A                     	;# 
  1596     1E2B                     	;# 
  1597     1E2C                     	;# 
  1598     1E2D                     	;# 
  1599     1E2E                     	;# 
  1600     1E2F                     	;# 
  1601     1E30                     	;# 
  1602     1E31                     	;# 
  1603     1E32                     	;# 
  1604     1E33                     	;# 
  1605     1E34                     	;# 
  1606     1E35                     	;# 
  1607     1E36                     	;# 
  1608     1E37                     	;# 
  1609     1E8F                     	;# 
  1610     1E90                     	;# 
  1611     1E91                     	;# 
  1612     1E92                     	;# 
  1613     1E93                     	;# 
  1614     1E94                     	;# 
  1615     1E95                     	;# 
  1616     1E96                     	;# 
  1617     1E97                     	;# 
  1618     1E9C                     	;# 
  1619     1E9D                     	;# 
  1620     1E9E                     	;# 
  1621     1EA1                     	;# 
  1622     1EA2                     	;# 
  1623     1EA3                     	;# 
  1624     1EA4                     	;# 
  1625     1EA5                     	;# 
  1626     1EA9                     	;# 
  1627     1EAA                     	;# 
  1628     1EAB                     	;# 
  1629     1EAC                     	;# 
  1630     1EB1                     	;# 
  1631     1EB2                     	;# 
  1632     1EB3                     	;# 
  1633     1EB8                     	;# 
  1634     1EB9                     	;# 
  1635     1EBA                     	;# 
  1636     1EBB                     	;# 
  1637     1EBC                     	;# 
  1638     1EBD                     	;# 
  1639     1EBE                     	;# 
  1640     1EC3                     	;# 
  1641     1EC5                     	;# 
  1642     1EC6                     	;# 
  1643     1EC7                     	;# 
  1644     1EC8                     	;# 
  1645     1EC9                     	;# 
  1646     1ECA                     	;# 
  1647     1ECB                     	;# 
  1648     1ECC                     	;# 
  1649     1F10                     	;# 
  1650     1F11                     	;# 
  1651     1F12                     	;# 
  1652     1F13                     	;# 
  1653     1F14                     	;# 
  1654     1F15                     	;# 
  1655     1F16                     	;# 
  1656     1F17                     	;# 
  1657     1F18                     	;# 
  1658     1F19                     	;# 
  1659     1F1A                     	;# 
  1660     1F1B                     	;# 
  1661     1F1C                     	;# 
  1662     1F1D                     	;# 
  1663     1F1E                     	;# 
  1664     1F1F                     	;# 
  1665     1F20                     	;# 
  1666     1F21                     	;# 
  1667     1F22                     	;# 
  1668     1F23                     	;# 
  1669     1F24                     	;# 
  1670     1F25                     	;# 
  1671     1F26                     	;# 
  1672     1F27                     	;# 
  1673     1F28                     	;# 
  1674     1F29                     	;# 
  1675     1F2A                     	;# 
  1676     1F2B                     	;# 
  1677     1F2C                     	;# 
  1678     1F2D                     	;# 
  1679     1F2E                     	;# 
  1680     1F2F                     	;# 
  1681     1F30                     	;# 
  1682     1F31                     	;# 
  1683     1F32                     	;# 
  1684     1F38                     	;# 
  1685     1F39                     	;# 
  1686     1F3A                     	;# 
  1687     1F3B                     	;# 
  1688     1F3C                     	;# 
  1689     1F3D                     	;# 
  1690     1F3E                     	;# 
  1691     1F3F                     	;# 
  1692     1F40                     	;# 
  1693     1F41                     	;# 
  1694     1F43                     	;# 
  1695     1F44                     	;# 
  1696     1F45                     	;# 
  1697     1F46                     	;# 
  1698     1F47                     	;# 
  1699     1F48                     	;# 
  1700     1F49                     	;# 
  1701     1F4A                     	;# 
  1702     1F4B                     	;# 
  1703     1F4C                     	;# 
  1704     1F4E                     	;# 
  1705     1F4F                     	;# 
  1706     1F50                     	;# 
  1707     1F51                     	;# 
  1708     1F52                     	;# 
  1709     1F53                     	;# 
  1710     1F54                     	;# 
  1711     1F55                     	;# 
  1712     1F56                     	;# 
  1713     1F57                     	;# 
  1714     1F59                     	;# 
  1715     1F5A                     	;# 
  1716     1F5B                     	;# 
  1717     1F5C                     	;# 
  1718     1F5D                     	;# 
  1719     1F61                     	;# 
  1720     1F62                     	;# 
  1721     1F64                     	;# 
  1722     1F65                     	;# 
  1723     1F66                     	;# 
  1724     1F67                     	;# 
  1725     1F68                     	;# 
  1726     1F69                     	;# 
  1727     1F6A                     	;# 
  1728     1F6B                     	;# 
  1729     1F6C                     	;# 
  1730     1F6D                     	;# 
  1731     1FE4                     	;# 
  1732     1FE5                     	;# 
  1733     1FE6                     	;# 
  1734     1FE7                     	;# 
  1735     1FE8                     	;# 
  1736     1FE9                     	;# 
  1737     1FEA                     	;# 
  1738     1FEB                     	;# 
  1739     1FED                     	;# 
  1740     1FEE                     	;# 
  1741     1FEF                     	;# 
  1742     0000                     	;# 
  1743     0001                     	;# 
  1744     0002                     	;# 
  1745     0003                     	;# 
  1746     0004                     	;# 
  1747     0005                     	;# 
  1748     0006                     	;# 
  1749     0007                     	;# 
  1750     0008                     	;# 
  1751     0009                     	;# 
  1752     000A                     	;# 
  1753     000B                     	;# 
  1754     000C                     	;# 
  1755     000D                     	;# 
  1756     000E                     	;# 
  1757     000F                     	;# 
  1758     0010                     	;# 
  1759     0011                     	;# 
  1760     0012                     	;# 
  1761     0013                     	;# 
  1762     0014                     	;# 
  1763     0015                     	;# 
  1764     0016                     	;# 
  1765     0017                     	;# 
  1766     0018                     	;# 
  1767     0019                     	;# 
  1768     001A                     	;# 
  1769     001C                     	;# 
  1770     001C                     	;# 
  1771     001D                     	;# 
  1772     001D                     	;# 
  1773     001E                     	;# 
  1774     001F                     	;# 
  1775     008C                     	;# 
  1776     008C                     	;# 
  1777     008D                     	;# 
  1778     008E                     	;# 
  1779     008E                     	;# 
  1780     008F                     	;# 
  1781     0090                     	;# 
  1782     0090                     	;# 
  1783     0091                     	;# 
  1784     0093                     	;# 
  1785     0094                     	;# 
  1786     0095                     	;# 
  1787     0096                     	;# 
  1788     0097                     	;# 
  1789     0098                     	;# 
  1790     0099                     	;# 
  1791     009A                     	;# 
  1792     009B                     	;# 
  1793     009C                     	;# 
  1794     009D                     	;# 
  1795     009E                     	;# 
  1796     010C                     	;# 
  1797     010D                     	;# 
  1798     010E                     	;# 
  1799     010E                     	;# 
  1800     010F                     	;# 
  1801     0110                     	;# 
  1802     0110                     	;# 
  1803     0111                     	;# 
  1804     0112                     	;# 
  1805     0112                     	;# 
  1806     0113                     	;# 
  1807     0114                     	;# 
  1808     0114                     	;# 
  1809     0115                     	;# 
  1810     0116                     	;# 
  1811     0116                     	;# 
  1812     0117                     	;# 
  1813     0119                     	;# 
  1814     0119                     	;# 
  1815     0119                     	;# 
  1816     011A                     	;# 
  1817     011A                     	;# 
  1818     011A                     	;# 
  1819     011B                     	;# 
  1820     011B                     	;# 
  1821     011B                     	;# 
  1822     011B                     	;# 
  1823     011B                     	;# 
  1824     011C                     	;# 
  1825     011C                     	;# 
  1826     011C                     	;# 
  1827     011D                     	;# 
  1828     011D                     	;# 
  1829     011D                     	;# 
  1830     011E                     	;# 
  1831     011E                     	;# 
  1832     011E                     	;# 
  1833     011F                     	;# 
  1834     011F                     	;# 
  1835     011F                     	;# 
  1836     011F                     	;# 
  1837     011F                     	;# 
  1838     018C                     	;# 
  1839     018D                     	;# 
  1840     018E                     	;# 
  1841     018F                     	;# 
  1842     0190                     	;# 
  1843     0191                     	;# 
  1844     0192                     	;# 
  1845     0196                     	;# 
  1846     0197                     	;# 
  1847     0198                     	;# 
  1848     0199                     	;# 
  1849     019A                     	;# 
  1850     019B                     	;# 
  1851     019C                     	;# 
  1852     020C                     	;# 
  1853     020C                     	;# 
  1854     020D                     	;# 
  1855     020E                     	;# 
  1856     020F                     	;# 
  1857     020F                     	;# 
  1858     0210                     	;# 
  1859     0210                     	;# 
  1860     0211                     	;# 
  1861     0211                     	;# 
  1862     0212                     	;# 
  1863     0212                     	;# 
  1864     0213                     	;# 
  1865     0214                     	;# 
  1866     0215                     	;# 
  1867     0215                     	;# 
  1868     0216                     	;# 
  1869     0216                     	;# 
  1870     0217                     	;# 
  1871     0217                     	;# 
  1872     0218                     	;# 
  1873     0218                     	;# 
  1874     0219                     	;# 
  1875     021A                     	;# 
  1876     021B                     	;# 
  1877     021B                     	;# 
  1878     021C                     	;# 
  1879     021C                     	;# 
  1880     021D                     	;# 
  1881     021D                     	;# 
  1882     021E                     	;# 
  1883     021F                     	;# 
  1884     028C                     	;# 
  1885     028C                     	;# 
  1886     028D                     	;# 
  1887     028D                     	;# 
  1888     028E                     	;# 
  1889     028F                     	;# 
  1890     0290                     	;# 
  1891     0290                     	;# 
  1892     0291                     	;# 
  1893     0292                     	;# 
  1894     0292                     	;# 
  1895     0293                     	;# 
  1896     0293                     	;# 
  1897     0294                     	;# 
  1898     0295                     	;# 
  1899     0296                     	;# 
  1900     0296                     	;# 
  1901     0297                     	;# 
  1902     0298                     	;# 
  1903     0298                     	;# 
  1904     0299                     	;# 
  1905     0299                     	;# 
  1906     029A                     	;# 
  1907     029B                     	;# 
  1908     029C                     	;# 
  1909     029C                     	;# 
  1910     029D                     	;# 
  1911     030C                     	;# 
  1912     030C                     	;# 
  1913     030D                     	;# 
  1914     030E                     	;# 
  1915     030F                     	;# 
  1916     0310                     	;# 
  1917     0310                     	;# 
  1918     0311                     	;# 
  1919     0312                     	;# 
  1920     0313                     	;# 
  1921     0314                     	;# 
  1922     0314                     	;# 
  1923     0315                     	;# 
  1924     0316                     	;# 
  1925     0317                     	;# 
  1926     0318                     	;# 
  1927     0318                     	;# 
  1928     0319                     	;# 
  1929     031A                     	;# 
  1930     031B                     	;# 
  1931     031C                     	;# 
  1932     031C                     	;# 
  1933     031D                     	;# 
  1934     031E                     	;# 
  1935     031F                     	;# 
  1936     038C                     	;# 
  1937     038C                     	;# 
  1938     038D                     	;# 
  1939     038E                     	;# 
  1940     0390                     	;# 
  1941     0390                     	;# 
  1942     0391                     	;# 
  1943     0392                     	;# 
  1944     040C                     	;# 
  1945     040D                     	;# 
  1946     040E                     	;# 
  1947     040F                     	;# 
  1948     0410                     	;# 
  1949     0411                     	;# 
  1950     0416                     	;# 
  1951     0416                     	;# 
  1952     0417                     	;# 
  1953     0418                     	;# 
  1954     0418                     	;# 
  1955     0419                     	;# 
  1956     041A                     	;# 
  1957     041A                     	;# 
  1958     041B                     	;# 
  1959     041C                     	;# 
  1960     041C                     	;# 
  1961     041D                     	;# 
  1962     041E                     	;# 
  1963     041F                     	;# 
  1964     048C                     	;# 
  1965     048C                     	;# 
  1966     048D                     	;# 
  1967     048E                     	;# 
  1968     048F                     	;# 
  1969     048F                     	;# 
  1970     0490                     	;# 
  1971     0491                     	;# 
  1972     0492                     	;# 
  1973     0492                     	;# 
  1974     0493                     	;# 
  1975     0494                     	;# 
  1976     0495                     	;# 
  1977     0495                     	;# 
  1978     0496                     	;# 
  1979     0497                     	;# 
  1980     0498                     	;# 
  1981     0499                     	;# 
  1982     049A                     	;# 
  1983     049B                     	;# 
  1984     049C                     	;# 
  1985     049D                     	;# 
  1986     050C                     	;# 
  1987     050C                     	;# 
  1988     050D                     	;# 
  1989     050E                     	;# 
  1990     050F                     	;# 
  1991     050F                     	;# 
  1992     0510                     	;# 
  1993     0511                     	;# 
  1994     0512                     	;# 
  1995     0512                     	;# 
  1996     0513                     	;# 
  1997     0514                     	;# 
  1998     0515                     	;# 
  1999     0515                     	;# 
  2000     0516                     	;# 
  2001     0517                     	;# 
  2002     0518                     	;# 
  2003     0519                     	;# 
  2004     051A                     	;# 
  2005     051B                     	;# 
  2006     051C                     	;# 
  2007     051D                     	;# 
  2008     058C                     	;# 
  2009     058C                     	;# 
  2010     058D                     	;# 
  2011     058E                     	;# 
  2012     058F                     	;# 
  2013     058F                     	;# 
  2014     0590                     	;# 
  2015     0591                     	;# 
  2016     0592                     	;# 
  2017     0593                     	;# 
  2018     060C                     	;# 
  2019     060D                     	;# 
  2020     060E                     	;# 
  2021     060F                     	;# 
  2022     0610                     	;# 
  2023     0611                     	;# 
  2024     0612                     	;# 
  2025     0613                     	;# 
  2026     0614                     	;# 
  2027     0616                     	;# 
  2028     0617                     	;# 
  2029     0618                     	;# 
  2030     0619                     	;# 
  2031     061A                     	;# 
  2032     061B                     	;# 
  2033     061C                     	;# 
  2034     061D                     	;# 
  2035     061E                     	;# 
  2036     068C                     	;# 
  2037     068D                     	;# 
  2038     068E                     	;# 
  2039     068F                     	;# 
  2040     0690                     	;# 
  2041     0691                     	;# 
  2042     0692                     	;# 
  2043     0693                     	;# 
  2044     0694                     	;# 
  2045     070C                     	;# 
  2046     070D                     	;# 
  2047     070E                     	;# 
  2048     070F                     	;# 
  2049     0710                     	;# 
  2050     0711                     	;# 
  2051     0712                     	;# 
  2052     0713                     	;# 
  2053     0714                     	;# 
  2054     0716                     	;# 
  2055     0717                     	;# 
  2056     0718                     	;# 
  2057     0719                     	;# 
  2058     071A                     	;# 
  2059     071B                     	;# 
  2060     071C                     	;# 
  2061     071D                     	;# 
  2062     071E                     	;# 
  2063     0796                     	;# 
  2064     0797                     	;# 
  2065     0798                     	;# 
  2066     0799                     	;# 
  2067     079A                     	;# 
  2068     079B                     	;# 
  2069     080C                     	;# 
  2070     080D                     	;# 
  2071     080E                     	;# 
  2072     080F                     	;# 
  2073     0810                     	;# 
  2074     0811                     	;# 
  2075     0812                     	;# 
  2076     0813                     	;# 
  2077     0814                     	;# 
  2078     081A                     	;# 
  2079     081B                     	;# 
  2080     081C                     	;# 
  2081     081D                     	;# 
  2082     081E                     	;# 
  2083     081F                     	;# 
  2084     088C                     	;# 
  2085     088D                     	;# 
  2086     088E                     	;# 
  2087     088F                     	;# 
  2088     0890                     	;# 
  2089     0891                     	;# 
  2090     0892                     	;# 
  2091     0893                     	;# 
  2092     0895                     	;# 
  2093     0896                     	;# 
  2094     0897                     	;# 
  2095     0898                     	;# 
  2096     0899                     	;# 
  2097     089A                     	;# 
  2098     089B                     	;# 
  2099     090C                     	;# 
  2100     090E                     	;# 
  2101     090F                     	;# 
  2102     091F                     	;# 
  2103     098F                     	;# 
  2104     098F                     	;# 
  2105     0990                     	;# 
  2106     0991                     	;# 
  2107     0992                     	;# 
  2108     0993                     	;# 
  2109     0994                     	;# 
  2110     0995                     	;# 
  2111     0996                     	;# 
  2112     0997                     	;# 
  2113     1E0F                     	;# 
  2114     1E10                     	;# 
  2115     1E11                     	;# 
  2116     1E12                     	;# 
  2117     1E13                     	;# 
  2118     1E14                     	;# 
  2119     1E15                     	;# 
  2120     1E16                     	;# 
  2121     1E17                     	;# 
  2122     1E18                     	;# 
  2123     1E19                     	;# 
  2124     1E1A                     	;# 
  2125     1E1B                     	;# 
  2126     1E1C                     	;# 
  2127     1E1D                     	;# 
  2128     1E1E                     	;# 
  2129     1E1F                     	;# 
  2130     1E20                     	;# 
  2131     1E21                     	;# 
  2132     1E22                     	;# 
  2133     1E23                     	;# 
  2134     1E24                     	;# 
  2135     1E25                     	;# 
  2136     1E26                     	;# 
  2137     1E27                     	;# 
  2138     1E28                     	;# 
  2139     1E29                     	;# 
  2140     1E2A                     	;# 
  2141     1E2B                     	;# 
  2142     1E2C                     	;# 
  2143     1E2D                     	;# 
  2144     1E2E                     	;# 
  2145     1E2F                     	;# 
  2146     1E30                     	;# 
  2147     1E31                     	;# 
  2148     1E32                     	;# 
  2149     1E33                     	;# 
  2150     1E34                     	;# 
  2151     1E35                     	;# 
  2152     1E36                     	;# 
  2153     1E37                     	;# 
  2154     1E8F                     	;# 
  2155     1E90                     	;# 
  2156     1E91                     	;# 
  2157     1E92                     	;# 
  2158     1E93                     	;# 
  2159     1E94                     	;# 
  2160     1E95                     	;# 
  2161     1E96                     	;# 
  2162     1E97                     	;# 
  2163     1E9C                     	;# 
  2164     1E9D                     	;# 
  2165     1E9E                     	;# 
  2166     1EA1                     	;# 
  2167     1EA2                     	;# 
  2168     1EA3                     	;# 
  2169     1EA4                     	;# 
  2170     1EA5                     	;# 
  2171     1EA9                     	;# 
  2172     1EAA                     	;# 
  2173     1EAB                     	;# 
  2174     1EAC                     	;# 
  2175     1EB1                     	;# 
  2176     1EB2                     	;# 
  2177     1EB3                     	;# 
  2178     1EB8                     	;# 
  2179     1EB9                     	;# 
  2180     1EBA                     	;# 
  2181     1EBB                     	;# 
  2182     1EBC                     	;# 
  2183     1EBD                     	;# 
  2184     1EBE                     	;# 
  2185     1EC3                     	;# 
  2186     1EC5                     	;# 
  2187     1EC6                     	;# 
  2188     1EC7                     	;# 
  2189     1EC8                     	;# 
  2190     1EC9                     	;# 
  2191     1ECA                     	;# 
  2192     1ECB                     	;# 
  2193     1ECC                     	;# 
  2194     1F10                     	;# 
  2195     1F11                     	;# 
  2196     1F12                     	;# 
  2197     1F13                     	;# 
  2198     1F14                     	;# 
  2199     1F15                     	;# 
  2200     1F16                     	;# 
  2201     1F17                     	;# 
  2202     1F18                     	;# 
  2203     1F19                     	;# 
  2204     1F1A                     	;# 
  2205     1F1B                     	;# 
  2206     1F1C                     	;# 
  2207     1F1D                     	;# 
  2208     1F1E                     	;# 
  2209     1F1F                     	;# 
  2210     1F20                     	;# 
  2211     1F21                     	;# 
  2212     1F22                     	;# 
  2213     1F23                     	;# 
  2214     1F24                     	;# 
  2215     1F25                     	;# 
  2216     1F26                     	;# 
  2217     1F27                     	;# 
  2218     1F28                     	;# 
  2219     1F29                     	;# 
  2220     1F2A                     	;# 
  2221     1F2B                     	;# 
  2222     1F2C                     	;# 
  2223     1F2D                     	;# 
  2224     1F2E                     	;# 
  2225     1F2F                     	;# 
  2226     1F30                     	;# 
  2227     1F31                     	;# 
  2228     1F32                     	;# 
  2229     1F38                     	;# 
  2230     1F39                     	;# 
  2231     1F3A                     	;# 
  2232     1F3B                     	;# 
  2233     1F3C                     	;# 
  2234     1F3D                     	;# 
  2235     1F3E                     	;# 
  2236     1F3F                     	;# 
  2237     1F40                     	;# 
  2238     1F41                     	;# 
  2239     1F43                     	;# 
  2240     1F44                     	;# 
  2241     1F45                     	;# 
  2242     1F46                     	;# 
  2243     1F47                     	;# 
  2244     1F48                     	;# 
  2245     1F49                     	;# 
  2246     1F4A                     	;# 
  2247     1F4B                     	;# 
  2248     1F4C                     	;# 
  2249     1F4E                     	;# 
  2250     1F4F                     	;# 
  2251     1F50                     	;# 
  2252     1F51                     	;# 
  2253     1F52                     	;# 
  2254     1F53                     	;# 
  2255     1F54                     	;# 
  2256     1F55                     	;# 
  2257     1F56                     	;# 
  2258     1F57                     	;# 
  2259     1F59                     	;# 
  2260     1F5A                     	;# 
  2261     1F5B                     	;# 
  2262     1F5C                     	;# 
  2263     1F5D                     	;# 
  2264     1F61                     	;# 
  2265     1F62                     	;# 
  2266     1F64                     	;# 
  2267     1F65                     	;# 
  2268     1F66                     	;# 
  2269     1F67                     	;# 
  2270     1F68                     	;# 
  2271     1F69                     	;# 
  2272     1F6A                     	;# 
  2273     1F6B                     	;# 
  2274     1F6C                     	;# 
  2275     1F6D                     	;# 
  2276     1FE4                     	;# 
  2277     1FE5                     	;# 
  2278     1FE6                     	;# 
  2279     1FE7                     	;# 
  2280     1FE8                     	;# 
  2281     1FE9                     	;# 
  2282     1FEA                     	;# 
  2283     1FEB                     	;# 
  2284     1FED                     	;# 
  2285     1FEE                     	;# 
  2286     1FEF                     	;# 
  2287     0000                     	;# 
  2288     0001                     	;# 
  2289     0002                     	;# 
  2290     0003                     	;# 
  2291     0004                     	;# 
  2292     0005                     	;# 
  2293     0006                     	;# 
  2294     0007                     	;# 
  2295     0008                     	;# 
  2296     0009                     	;# 
  2297     000A                     	;# 
  2298     000B                     	;# 
  2299     000C                     	;# 
  2300     000D                     	;# 
  2301     000E                     	;# 
  2302     000F                     	;# 
  2303     0010                     	;# 
  2304     0011                     	;# 
  2305     0012                     	;# 
  2306     0013                     	;# 
  2307     0014                     	;# 
  2308     0015                     	;# 
  2309     0016                     	;# 
  2310     0017                     	;# 
  2311     0018                     	;# 
  2312     0019                     	;# 
  2313     001A                     	;# 
  2314     001C                     	;# 
  2315     001C                     	;# 
  2316     001D                     	;# 
  2317     001D                     	;# 
  2318     001E                     	;# 
  2319     001F                     	;# 
  2320     008C                     	;# 
  2321     008C                     	;# 
  2322     008D                     	;# 
  2323     008E                     	;# 
  2324     008E                     	;# 
  2325     008F                     	;# 
  2326     0090                     	;# 
  2327     0090                     	;# 
  2328     0091                     	;# 
  2329     0093                     	;# 
  2330     0094                     	;# 
  2331     0095                     	;# 
  2332     0096                     	;# 
  2333     0097                     	;# 
  2334     0098                     	;# 
  2335     0099                     	;# 
  2336     009A                     	;# 
  2337     009B                     	;# 
  2338     009C                     	;# 
  2339     009D                     	;# 
  2340     009E                     	;# 
  2341     010C                     	;# 
  2342     010D                     	;# 
  2343     010E                     	;# 
  2344     010E                     	;# 
  2345     010F                     	;# 
  2346     0110                     	;# 
  2347     0110                     	;# 
  2348     0111                     	;# 
  2349     0112                     	;# 
  2350     0112                     	;# 
  2351     0113                     	;# 
  2352     0114                     	;# 
  2353     0114                     	;# 
  2354     0115                     	;# 
  2355     0116                     	;# 
  2356     0116                     	;# 
  2357     0117                     	;# 
  2358     0119                     	;# 
  2359     0119                     	;# 
  2360     0119                     	;# 
  2361     011A                     	;# 
  2362     011A                     	;# 
  2363     011A                     	;# 
  2364     011B                     	;# 
  2365     011B                     	;# 
  2366     011B                     	;# 
  2367     011B                     	;# 
  2368     011B                     	;# 
  2369     011C                     	;# 
  2370     011C                     	;# 
  2371     011C                     	;# 
  2372     011D                     	;# 
  2373     011D                     	;# 
  2374     011D                     	;# 
  2375     011E                     	;# 
  2376     011E                     	;# 
  2377     011E                     	;# 
  2378     011F                     	;# 
  2379     011F                     	;# 
  2380     011F                     	;# 
  2381     011F                     	;# 
  2382     011F                     	;# 
  2383     018C                     	;# 
  2384     018D                     	;# 
  2385     018E                     	;# 
  2386     018F                     	;# 
  2387     0190                     	;# 
  2388     0191                     	;# 
  2389     0192                     	;# 
  2390     0196                     	;# 
  2391     0197                     	;# 
  2392     0198                     	;# 
  2393     0199                     	;# 
  2394     019A                     	;# 
  2395     019B                     	;# 
  2396     019C                     	;# 
  2397     020C                     	;# 
  2398     020C                     	;# 
  2399     020D                     	;# 
  2400     020E                     	;# 
  2401     020F                     	;# 
  2402     020F                     	;# 
  2403     0210                     	;# 
  2404     0210                     	;# 
  2405     0211                     	;# 
  2406     0211                     	;# 
  2407     0212                     	;# 
  2408     0212                     	;# 
  2409     0213                     	;# 
  2410     0214                     	;# 
  2411     0215                     	;# 
  2412     0215                     	;# 
  2413     0216                     	;# 
  2414     0216                     	;# 
  2415     0217                     	;# 
  2416     0217                     	;# 
  2417     0218                     	;# 
  2418     0218                     	;# 
  2419     0219                     	;# 
  2420     021A                     	;# 
  2421     021B                     	;# 
  2422     021B                     	;# 
  2423     021C                     	;# 
  2424     021C                     	;# 
  2425     021D                     	;# 
  2426     021D                     	;# 
  2427     021E                     	;# 
  2428     021F                     	;# 
  2429     028C                     	;# 
  2430     028C                     	;# 
  2431     028D                     	;# 
  2432     028D                     	;# 
  2433     028E                     	;# 
  2434     028F                     	;# 
  2435     0290                     	;# 
  2436     0290                     	;# 
  2437     0291                     	;# 
  2438     0292                     	;# 
  2439     0292                     	;# 
  2440     0293                     	;# 
  2441     0293                     	;# 
  2442     0294                     	;# 
  2443     0295                     	;# 
  2444     0296                     	;# 
  2445     0296                     	;# 
  2446     0297                     	;# 
  2447     0298                     	;# 
  2448     0298                     	;# 
  2449     0299                     	;# 
  2450     0299                     	;# 
  2451     029A                     	;# 
  2452     029B                     	;# 
  2453     029C                     	;# 
  2454     029C                     	;# 
  2455     029D                     	;# 
  2456     030C                     	;# 
  2457     030C                     	;# 
  2458     030D                     	;# 
  2459     030E                     	;# 
  2460     030F                     	;# 
  2461     0310                     	;# 
  2462     0310                     	;# 
  2463     0311                     	;# 
  2464     0312                     	;# 
  2465     0313                     	;# 
  2466     0314                     	;# 
  2467     0314                     	;# 
  2468     0315                     	;# 
  2469     0316                     	;# 
  2470     0317                     	;# 
  2471     0318                     	;# 
  2472     0318                     	;# 
  2473     0319                     	;# 
  2474     031A                     	;# 
  2475     031B                     	;# 
  2476     031C                     	;# 
  2477     031C                     	;# 
  2478     031D                     	;# 
  2479     031E                     	;# 
  2480     031F                     	;# 
  2481     038C                     	;# 
  2482     038C                     	;# 
  2483     038D                     	;# 
  2484     038E                     	;# 
  2485     0390                     	;# 
  2486     0390                     	;# 
  2487     0391                     	;# 
  2488     0392                     	;# 
  2489     040C                     	;# 
  2490     040D                     	;# 
  2491     040E                     	;# 
  2492     040F                     	;# 
  2493     0410                     	;# 
  2494     0411                     	;# 
  2495     0416                     	;# 
  2496     0416                     	;# 
  2497     0417                     	;# 
  2498     0418                     	;# 
  2499     0418                     	;# 
  2500     0419                     	;# 
  2501     041A                     	;# 
  2502     041A                     	;# 
  2503     041B                     	;# 
  2504     041C                     	;# 
  2505     041C                     	;# 
  2506     041D                     	;# 
  2507     041E                     	;# 
  2508     041F                     	;# 
  2509     048C                     	;# 
  2510     048C                     	;# 
  2511     048D                     	;# 
  2512     048E                     	;# 
  2513     048F                     	;# 
  2514     048F                     	;# 
  2515     0490                     	;# 
  2516     0491                     	;# 
  2517     0492                     	;# 
  2518     0492                     	;# 
  2519     0493                     	;# 
  2520     0494                     	;# 
  2521     0495                     	;# 
  2522     0495                     	;# 
  2523     0496                     	;# 
  2524     0497                     	;# 
  2525     0498                     	;# 
  2526     0499                     	;# 
  2527     049A                     	;# 
  2528     049B                     	;# 
  2529     049C                     	;# 
  2530     049D                     	;# 
  2531     050C                     	;# 
  2532     050C                     	;# 
  2533     050D                     	;# 
  2534     050E                     	;# 
  2535     050F                     	;# 
  2536     050F                     	;# 
  2537     0510                     	;# 
  2538     0511                     	;# 
  2539     0512                     	;# 
  2540     0512                     	;# 
  2541     0513                     	;# 
  2542     0514                     	;# 
  2543     0515                     	;# 
  2544     0515                     	;# 
  2545     0516                     	;# 
  2546     0517                     	;# 
  2547     0518                     	;# 
  2548     0519                     	;# 
  2549     051A                     	;# 
  2550     051B                     	;# 
  2551     051C                     	;# 
  2552     051D                     	;# 
  2553     058C                     	;# 
  2554     058C                     	;# 
  2555     058D                     	;# 
  2556     058E                     	;# 
  2557     058F                     	;# 
  2558     058F                     	;# 
  2559     0590                     	;# 
  2560     0591                     	;# 
  2561     0592                     	;# 
  2562     0593                     	;# 
  2563     060C                     	;# 
  2564     060D                     	;# 
  2565     060E                     	;# 
  2566     060F                     	;# 
  2567     0610                     	;# 
  2568     0611                     	;# 
  2569     0612                     	;# 
  2570     0613                     	;# 
  2571     0614                     	;# 
  2572     0616                     	;# 
  2573     0617                     	;# 
  2574     0618                     	;# 
  2575     0619                     	;# 
  2576     061A                     	;# 
  2577     061B                     	;# 
  2578     061C                     	;# 
  2579     061D                     	;# 
  2580     061E                     	;# 
  2581     068C                     	;# 
  2582     068D                     	;# 
  2583     068E                     	;# 
  2584     068F                     	;# 
  2585     0690                     	;# 
  2586     0691                     	;# 
  2587     0692                     	;# 
  2588     0693                     	;# 
  2589     0694                     	;# 
  2590     070C                     	;# 
  2591     070D                     	;# 
  2592     070E                     	;# 
  2593     070F                     	;# 
  2594     0710                     	;# 
  2595     0711                     	;# 
  2596     0712                     	;# 
  2597     0713                     	;# 
  2598     0714                     	;# 
  2599     0716                     	;# 
  2600     0717                     	;# 
  2601     0718                     	;# 
  2602     0719                     	;# 
  2603     071A                     	;# 
  2604     071B                     	;# 
  2605     071C                     	;# 
  2606     071D                     	;# 
  2607     071E                     	;# 
  2608     0796                     	;# 
  2609     0797                     	;# 
  2610     0798                     	;# 
  2611     0799                     	;# 
  2612     079A                     	;# 
  2613     079B                     	;# 
  2614     080C                     	;# 
  2615     080D                     	;# 
  2616     080E                     	;# 
  2617     080F                     	;# 
  2618     0810                     	;# 
  2619     0811                     	;# 
  2620     0812                     	;# 
  2621     0813                     	;# 
  2622     0814                     	;# 
  2623     081A                     	;# 
  2624     081B                     	;# 
  2625     081C                     	;# 
  2626     081D                     	;# 
  2627     081E                     	;# 
  2628     081F                     	;# 
  2629     088C                     	;# 
  2630     088D                     	;# 
  2631     088E                     	;# 
  2632     088F                     	;# 
  2633     0890                     	;# 
  2634     0891                     	;# 
  2635     0892                     	;# 
  2636     0893                     	;# 
  2637     0895                     	;# 
  2638     0896                     	;# 
  2639     0897                     	;# 
  2640     0898                     	;# 
  2641     0899                     	;# 
  2642     089A                     	;# 
  2643     089B                     	;# 
  2644     090C                     	;# 
  2645     090E                     	;# 
  2646     090F                     	;# 
  2647     091F                     	;# 
  2648     098F                     	;# 
  2649     098F                     	;# 
  2650     0990                     	;# 
  2651     0991                     	;# 
  2652     0992                     	;# 
  2653     0993                     	;# 
  2654     0994                     	;# 
  2655     0995                     	;# 
  2656     0996                     	;# 
  2657     0997                     	;# 
  2658     1E0F                     	;# 
  2659     1E10                     	;# 
  2660     1E11                     	;# 
  2661     1E12                     	;# 
  2662     1E13                     	;# 
  2663     1E14                     	;# 
  2664     1E15                     	;# 
  2665     1E16                     	;# 
  2666     1E17                     	;# 
  2667     1E18                     	;# 
  2668     1E19                     	;# 
  2669     1E1A                     	;# 
  2670     1E1B                     	;# 
  2671     1E1C                     	;# 
  2672     1E1D                     	;# 
  2673     1E1E                     	;# 
  2674     1E1F                     	;# 
  2675     1E20                     	;# 
  2676     1E21                     	;# 
  2677     1E22                     	;# 
  2678     1E23                     	;# 
  2679     1E24                     	;# 
  2680     1E25                     	;# 
  2681     1E26                     	;# 
  2682     1E27                     	;# 
  2683     1E28                     	;# 
  2684     1E29                     	;# 
  2685     1E2A                     	;# 
  2686     1E2B                     	;# 
  2687     1E2C                     	;# 
  2688     1E2D                     	;# 
  2689     1E2E                     	;# 
  2690     1E2F                     	;# 
  2691     1E30                     	;# 
  2692     1E31                     	;# 
  2693     1E32                     	;# 
  2694     1E33                     	;# 
  2695     1E34                     	;# 
  2696     1E35                     	;# 
  2697     1E36                     	;# 
  2698     1E37                     	;# 
  2699     1E8F                     	;# 
  2700     1E90                     	;# 
  2701     1E91                     	;# 
  2702     1E92                     	;# 
  2703     1E93                     	;# 
  2704     1E94                     	;# 
  2705     1E95                     	;# 
  2706     1E96                     	;# 
  2707     1E97                     	;# 
  2708     1E9C                     	;# 
  2709     1E9D                     	;# 
  2710     1E9E                     	;# 
  2711     1EA1                     	;# 
  2712     1EA2                     	;# 
  2713     1EA3                     	;# 
  2714     1EA4                     	;# 
  2715     1EA5                     	;# 
  2716     1EA9                     	;# 
  2717     1EAA                     	;# 
  2718     1EAB                     	;# 
  2719     1EAC                     	;# 
  2720     1EB1                     	;# 
  2721     1EB2                     	;# 
  2722     1EB3                     	;# 
  2723     1EB8                     	;# 
  2724     1EB9                     	;# 
  2725     1EBA                     	;# 
  2726     1EBB                     	;# 
  2727     1EBC                     	;# 
  2728     1EBD                     	;# 
  2729     1EBE                     	;# 
  2730     1EC3                     	;# 
  2731     1EC5                     	;# 
  2732     1EC6                     	;# 
  2733     1EC7                     	;# 
  2734     1EC8                     	;# 
  2735     1EC9                     	;# 
  2736     1ECA                     	;# 
  2737     1ECB                     	;# 
  2738     1ECC                     	;# 
  2739     1F10                     	;# 
  2740     1F11                     	;# 
  2741     1F12                     	;# 
  2742     1F13                     	;# 
  2743     1F14                     	;# 
  2744     1F15                     	;# 
  2745     1F16                     	;# 
  2746     1F17                     	;# 
  2747     1F18                     	;# 
  2748     1F19                     	;# 
  2749     1F1A                     	;# 
  2750     1F1B                     	;# 
  2751     1F1C                     	;# 
  2752     1F1D                     	;# 
  2753     1F1E                     	;# 
  2754     1F1F                     	;# 
  2755     1F20                     	;# 
  2756     1F21                     	;# 
  2757     1F22                     	;# 
  2758     1F23                     	;# 
  2759     1F24                     	;# 
  2760     1F25                     	;# 
  2761     1F26                     	;# 
  2762     1F27                     	;# 
  2763     1F28                     	;# 
  2764     1F29                     	;# 
  2765     1F2A                     	;# 
  2766     1F2B                     	;# 
  2767     1F2C                     	;# 
  2768     1F2D                     	;# 
  2769     1F2E                     	;# 
  2770     1F2F                     	;# 
  2771     1F30                     	;# 
  2772     1F31                     	;# 
  2773     1F32                     	;# 
  2774     1F38                     	;# 
  2775     1F39                     	;# 
  2776     1F3A                     	;# 
  2777     1F3B                     	;# 
  2778     1F3C                     	;# 
  2779     1F3D                     	;# 
  2780     1F3E                     	;# 
  2781     1F3F                     	;# 
  2782     1F40                     	;# 
  2783     1F41                     	;# 
  2784     1F43                     	;# 
  2785     1F44                     	;# 
  2786     1F45                     	;# 
  2787     1F46                     	;# 
  2788     1F47                     	;# 
  2789     1F48                     	;# 
  2790     1F49                     	;# 
  2791     1F4A                     	;# 
  2792     1F4B                     	;# 
  2793     1F4C                     	;# 
  2794     1F4E                     	;# 
  2795     1F4F                     	;# 
  2796     1F50                     	;# 
  2797     1F51                     	;# 
  2798     1F52                     	;# 
  2799     1F53                     	;# 
  2800     1F54                     	;# 
  2801     1F55                     	;# 
  2802     1F56                     	;# 
  2803     1F57                     	;# 
  2804     1F59                     	;# 
  2805     1F5A                     	;# 
  2806     1F5B                     	;# 
  2807     1F5C                     	;# 
  2808     1F5D                     	;# 
  2809     1F61                     	;# 
  2810     1F62                     	;# 
  2811     1F64                     	;# 
  2812     1F65                     	;# 
  2813     1F66                     	;# 
  2814     1F67                     	;# 
  2815     1F68                     	;# 
  2816     1F69                     	;# 
  2817     1F6A                     	;# 
  2818     1F6B                     	;# 
  2819     1F6C                     	;# 
  2820     1F6D                     	;# 
  2821     1FE4                     	;# 
  2822     1FE5                     	;# 
  2823     1FE6                     	;# 
  2824     1FE7                     	;# 
  2825     1FE8                     	;# 
  2826     1FE9                     	;# 
  2827     1FEA                     	;# 
  2828     1FEB                     	;# 
  2829     1FED                     	;# 
  2830     1FEE                     	;# 
  2831     1FEF                     	;# 
  2832                           
  2833                           	psect	idataBANK2
  2834     1103                     __pidataBANK2:
  2835                           
  2836                           ;initializer for _Fecha
  2837     1103  3432               	retlw	50
  2838     1104  3430               	retlw	48
  2839     1105  3430               	retlw	48
  2840     1106  3433               	retlw	51
  2841     1107  3431               	retlw	49
  2842     1108  3439               	retlw	57
  2843     1109  3400               	retlw	0
  2844                           
  2845                           ;initializer for _Hora
  2846     110A  3431               	retlw	49
  2847     110B  3430               	retlw	48
  2848     110C  3435               	retlw	53
  2849     110D  3438               	retlw	56
  2850     110E  3434               	retlw	52
  2851     110F  3435               	retlw	53
  2852     1110  3400               	retlw	0
  2853     0019                     _LATDbits	set	25
  2854     001A                     _LATEbits	set	26
  2855     0015                     _TRISEbits	set	21
  2856     0014                     _TRISDbits	set	20
  2857     0015                     _TRISE	set	21
  2858     0014                     _TRISD	set	20
  2859     0013                     _TRISC	set	19
  2860     018C                     _SSP1BUF	set	396
  2861     0191                     _SSP1CON2bits	set	401
  2862     018D                     _SSP1ADD	set	397
  2863     0192                     _SSP1CON3	set	402
  2864     0190                     _SSP1CON1	set	400
  2865     018F                     _SSP1STAT	set	399
  2866     070F                     _PIR3bits	set	1807
  2867     0893                     _OSCFRQbits	set	2195
  2868     088D                     _OSCCON1bits	set	2189
  2869     1EC6                     _SSP1DATPPS	set	7878
  2870     1EC5                     _SSP1CLKPPS	set	7877
  2871     1F24                     _RC4PPS	set	7972
  2872     1F23                     _RC3PPS	set	7971
  2873     1F64                     _ANSELE	set	8036
  2874     1F59                     _ANSELD	set	8025
  2875     1F4E                     _ANSELC	set	8014
  2876                           
  2877                           	psect	stringtext1
  2878     1800                     __pstringtext1:
  2879     1800                     STR_1:
  2880     1800  3454               	retlw	84	;'T'
  2881     1801  3465               	retlw	101	;'e'
  2882     1802  346D               	retlw	109	;'m'
  2883     1803  3470               	retlw	112	;'p'
  2884     1804  3420               	retlw	32	;' '
  2885     1805  3425               	retlw	37	;'%'
  2886     1806  3432               	retlw	50	;'2'
  2887     1807  342E               	retlw	46	;'.'
  2888     1808  3432               	retlw	50	;'2'
  2889     1809  3466               	retlw	102	;'f'
  2890     180A  3400               	retlw	0
  2891                           
  2892                           	psect	stringtext2
  2893     180B                     __pstringtext2:
  2894     180B                     STR_2:
  2895     180B  3469               	retlw	105	;'i'
  2896     180C  346E               	retlw	110	;'n'
  2897     180D  3466               	retlw	102	;'f'
  2898     180E  3400               	retlw	0
  2899                           
  2900                           	psect	stringtext3
  2901     180F                     __pstringtext3:
  2902     180F                     STR_5:
  2903     180F  346E               	retlw	110	;'n'
  2904     1810  3461               	retlw	97	;'a'
  2905     1811  346E               	retlw	110	;'n'
  2906     1812  3400               	retlw	0
  2907                           
  2908                           	psect	stringtext4
  2909     0000                     __pstringtext4:
  2910     180B                     
  2911                           	psect	cinit
  2912     07D5                     start_initialization:	
  2913                           ; #config settings
  2914                           
  2915     07D5                     __initialization:
  2916                           
  2917                           ; Initialize objects allocated to BANK2
  2918     07D5  3003               	movlw	low __pidataBANK2
  2919     07D6  0084               	movwf	4
  2920     07D7  3091               	movlw	(high __pidataBANK2)| (0+128)
  2921     07D8  0085               	movwf	5
  2922     07D9  3030               	movlw	low __pdataBANK2
  2923     07DA  0086               	movwf	6
  2924     07DB  3001               	movlw	high __pdataBANK2
  2925     07DC  0087               	movwf	7
  2926     07DD  300E               	movlw	14
  2927     07DE  3188  2000  3187   	fcall	init_ram
  2928                           
  2929                           ; Clear objects allocated to BANK0
  2930     07E1  01EC               	clrf	__pbssBANK0& (0+127)
  2931     07E2  01ED               	clrf	(__pbssBANK0+1)& (0+127)
  2932     07E3  01EE               	clrf	(__pbssBANK0+2)& (0+127)
  2933     07E4  01EF               	clrf	(__pbssBANK0+3)& (0+127)
  2934                           
  2935                           ; Clear objects allocated to BANK1
  2936     07E5  30E6               	movlw	low __pbssBANK1
  2937     07E6  0084               	movwf	4
  2938     07E7  3000               	movlw	high __pbssBANK1
  2939     07E8  0085               	movwf	5
  2940     07E9  3007               	movlw	7
  2941     07EA  3190  20A9  3187   	fcall	clear_ram0
  2942                           
  2943                           ; Clear objects allocated to BANK2
  2944     07ED  3020               	movlw	low __pbssBANK2
  2945     07EE  0084               	movwf	4
  2946     07EF  3001               	movlw	high __pbssBANK2
  2947     07F0  0085               	movwf	5
  2948     07F1  3010               	movlw	16
  2949     07F2  3190  20A9  3187   	fcall	clear_ram0
  2950                           
  2951                           ; Clear objects allocated to BANK3
  2952     07F5  30A0               	movlw	low __pbssBANK3
  2953     07F6  0084               	movwf	4
  2954     07F7  3001               	movlw	high __pbssBANK3
  2955     07F8  0085               	movwf	5
  2956     07F9  3050               	movlw	80
  2957     07FA  3190  20A9  3187   	fcall	clear_ram0
  2958     07FD                     end_of_initialization:	
  2959                           ;End of C runtime variable initialization code
  2960                           
  2961     07FD                     __end_of__initialization:
  2962     07FD  0140               	movlb	0
  2963     07FE  3194  2CBD         	ljmp	_main	;jump to C main() function
  2964                           
  2965                           	psect	bssBANK0
  2966     006C                     __pbssBANK0:
  2967     006C                     _dia:
  2968     006C                     	ds	1
  2969     006D                     _hora:
  2970     006D                     	ds	1
  2971     006E                     _min:
  2972     006E                     	ds	1
  2973     006F                     _sec:
  2974     006F                     	ds	1
  2975                           
  2976                           	psect	bssBANK1
  2977     00E6                     __pbssBANK1:
  2978     00E6                     _width:
  2979     00E6                     	ds	2
  2980     00E8                     _prec:
  2981     00E8                     	ds	2
  2982     00EA                     _flags:
  2983     00EA                     	ds	1
  2984     00EB                     _anio:
  2985     00EB                     	ds	1
  2986     00EC                     _mes:
  2987     00EC                     	ds	1
  2988                           
  2989                           	psect	bssBANK2
  2990     0120                     __pbssBANK2:
  2991     0120                     LCD_integer@F12189:
  2992     0120                     	ds	8
  2993     0128                     floorf@F526:
  2994     0128                     	ds	4
  2995     012C                     ___fpclassifyf@F465:
  2996     012C                     	ds	4
  2997                           
  2998                           	psect	dataBANK2
  2999     0130                     __pdataBANK2:
  3000     0130                     _Fecha:
  3001     0130                     	ds	7
  3002     0137                     _Hora:
  3003     0137                     	ds	7
  3004                           
  3005                           	psect	bssBANK3
  3006     01A0                     __pbssBANK3:
  3007     01A0                     _dbuf:
  3008     01A0                     	ds	80
  3009                           
  3010                           	psect	inittext
  3011     0800                     init_ram:
  3012     0800  00FE               	movwf	btemp
  3013     0801                     initloop:
  3014     0801  0012               	moviw fsr0++
  3015     0802  001E               	movwi fsr1++
  3016     0803  0BFE               	decfsz	btemp,f
  3017     0804  2801               	goto	initloop
  3018     0805  3400               	retlw	0
  3019                           
  3020                           	psect	clrtext
  3021     10A9                     clear_ram0:	
  3022                           ;	Called with FSR0 containing the base address, and
  3023                           ;	WREG with the size to clear
  3024                           
  3025     10A9  0064               	clrwdt	;clear the watchdog before getting into this loop
  3026     10AA                     clrloop0:
  3027     10AA  0180               	clrf	0	;clear RAM location pointed to by FSR
  3028     10AB  3101               	addfsr 0,1
  3029     10AC  0B89               	decfsz	9,f	;Have we reached the end of clearing yet?
  3030     10AD  28AA               	goto	clrloop0	;have we reached the end yet?
  3031     10AE  3400               	retlw	0	;all done for this memory range, return
  3032                           
  3033                           	psect	cstackBANK1
  3034     00A0                     __pcstackBANK1:
  3035     00A0                     efgtoa@ne:
  3036                           
  3037                           ; 2 bytes @ 0x0
  3038     00A0                     	ds	2
  3039     00A2                     efgtoa@p:
  3040                           
  3041                           ; 2 bytes @ 0x2
  3042     00A2                     	ds	2
  3043     00A4                     efgtoa@t:
  3044                           
  3045                           ; 2 bytes @ 0x4
  3046     00A4                     	ds	2
  3047     00A6                     _efgtoa$1032:
  3048                           
  3049                           ; 2 bytes @ 0x6
  3050     00A6                     	ds	2
  3051     00A8                     efgtoa@pp:
  3052                           
  3053                           ; 1 bytes @ 0x8
  3054     00A8                     	ds	1
  3055     00A9                     efgtoa@mode:
  3056                           
  3057                           ; 1 bytes @ 0x9
  3058     00A9                     	ds	1
  3059     00AA                     efgtoa@nmode:
  3060                           
  3061                           ; 1 bytes @ 0xA
  3062     00AA                     	ds	1
  3063     00AB                     efgtoa@d:
  3064                           
  3065                           ; 2 bytes @ 0xB
  3066     00AB                     	ds	2
  3067     00AD                     efgtoa@m:
  3068                           
  3069                           ; 2 bytes @ 0xD
  3070     00AD                     	ds	2
  3071     00AF                     efgtoa@fp:
  3072                           
  3073                           ; 1 bytes @ 0xF
  3074     00AF                     	ds	1
  3075     00B0                     efgtoa@e:
  3076                           
  3077                           ; 2 bytes @ 0x10
  3078     00B0                     	ds	2
  3079     00B2                     efgtoa@w:
  3080                           
  3081                           ; 2 bytes @ 0x12
  3082     00B2                     	ds	2
  3083     00B4                     efgtoa@ou:
  3084                           
  3085                           ; 4 bytes @ 0x14
  3086     00B4                     	ds	4
  3087     00B8                     efgtoa@i:
  3088                           
  3089                           ; 2 bytes @ 0x18
  3090     00B8                     	ds	2
  3091     00BA                     efgtoa@h:
  3092                           
  3093                           ; 4 bytes @ 0x1A
  3094     00BA                     	ds	4
  3095     00BE                     efgtoa@l:
  3096                           
  3097                           ; 4 bytes @ 0x1E
  3098     00BE                     	ds	4
  3099     00C2                     efgtoa@sign:
  3100                           
  3101                           ; 1 bytes @ 0x22
  3102     00C2                     	ds	1
  3103     00C3                     efgtoa@n:
  3104                           
  3105                           ; 2 bytes @ 0x23
  3106     00C3                     	ds	2
  3107     00C5                     efgtoa@g:
  3108                           
  3109                           ; 4 bytes @ 0x25
  3110     00C5                     	ds	4
  3111     00C9                     efgtoa@u:
  3112                           
  3113                           ; 4 bytes @ 0x29
  3114     00C9                     	ds	4
  3115     00CD                     ?_vfpfcnvrt:
  3116     00CD                     vfpfcnvrt@fmt:	
  3117                           ; 1 bytes @ 0x2D
  3118                           
  3119                           
  3120                           ; 1 bytes @ 0x2D
  3121     00CD                     	ds	1
  3122     00CE                     vfpfcnvrt@ap:
  3123                           
  3124                           ; 1 bytes @ 0x2E
  3125     00CE                     	ds	1
  3126     00CF                     ?_vfprintf:
  3127     00CF                     vfprintf@fmt:	
  3128                           ; 2 bytes @ 0x2F
  3129                           
  3130                           
  3131                           ; 2 bytes @ 0x2F
  3132     00CF                     	ds	2
  3133     00D1                     vfprintf@ap:
  3134                           
  3135                           ; 1 bytes @ 0x31
  3136     00D1                     	ds	1
  3137     00D2                     ?_sprintf:
  3138     00D2                     sprintf@fmt:	
  3139                           ; 2 bytes @ 0x32
  3140                           
  3141                           
  3142                           ; 2 bytes @ 0x32
  3143     00D2                     	ds	6
  3144     00D8                     main@buffer:
  3145                           
  3146                           ; 10 bytes @ 0x38
  3147     00D8                     	ds	10
  3148     00E2                     main@temperatura:
  3149                           
  3150                           ; 4 bytes @ 0x42
  3151     00E2                     	ds	4
  3152                           
  3153                           	psect	cstackCOMMON
  3154     0070                     __pcstackCOMMON:
  3155     0070                     ?___fleq:
  3156     0070                     ?_LCD_init:	
  3157                           ; 1 bit 
  3158                           
  3159     0070                     ?_I2C_init:	
  3160                           ; 1 bytes @ 0x0
  3161                           
  3162     0070                     ??_I2C_init:	
  3163                           ; 1 bytes @ 0x0
  3164                           
  3165     0070                     ?_convertirHora:	
  3166                           ; 1 bytes @ 0x0
  3167                           
  3168     0070                     ??_convertirHora:	
  3169                           ; 1 bytes @ 0x0
  3170                           
  3171     0070                     ?_enviar_hora:	
  3172                           ; 1 bytes @ 0x0
  3173                           
  3174     0070                     ?_convertirFecha:	
  3175                           ; 1 bytes @ 0x0
  3176                           
  3177     0070                     ??_convertirFecha:	
  3178                           ; 1 bytes @ 0x0
  3179                           
  3180     0070                     ?_enviar_fecha:	
  3181                           ; 1 bytes @ 0x0
  3182                           
  3183     0070                     ?_LCD_printf:	
  3184                           ; 1 bytes @ 0x0
  3185                           
  3186     0070                     ?_LCD_write_nible:	
  3187                           ; 1 bytes @ 0x0
  3188                           
  3189     0070                     ??_LCD_write_nible:	
  3190                           ; 1 bytes @ 0x0
  3191                           
  3192     0070                     ?_LCD_cmd:	
  3193                           ; 1 bytes @ 0x0
  3194                           
  3195     0070                     ?_LCD_dato:	
  3196                           ; 1 bytes @ 0x0
  3197                           
  3198     0070                     ?_strcpy:	
  3199                           ; 1 bytes @ 0x0
  3200                           
  3201     0070                     ?_memcpy:	
  3202                           ; 1 bytes @ 0x0
  3203                           
  3204     0070                     ?_OSC_init:	
  3205                           ; 1 bytes @ 0x0
  3206                           
  3207     0070                     ??_OSC_init:	
  3208                           ; 1 bytes @ 0x0
  3209                           
  3210     0070                     ?_PIN_MANAGER_init:	
  3211                           ; 1 bytes @ 0x0
  3212                           
  3213     0070                     ??_PIN_MANAGER_init:	
  3214                           ; 1 bytes @ 0x0
  3215                           
  3216     0070                     ?_main:	
  3217                           ; 1 bytes @ 0x0
  3218                           
  3219     0070                     ?_LCD_write:	
  3220                           ; 1 bytes @ 0x0
  3221                           
  3222     0070                     ??_LCD_write:	
  3223                           ; 1 bytes @ 0x0
  3224                           
  3225     0070                     ?_putch:	
  3226                           ; 1 bytes @ 0x0
  3227                           
  3228     0070                     ?_I2C_start:	
  3229                           ; 1 bytes @ 0x0
  3230                           
  3231     0070                     ??_I2C_start:	
  3232                           ; 1 bytes @ 0x0
  3233                           
  3234     0070                     ?_I2C_restart:	
  3235                           ; 1 bytes @ 0x0
  3236                           
  3237     0070                     ??_I2C_restart:	
  3238                           ; 1 bytes @ 0x0
  3239                           
  3240     0070                     ?_I2C_stop:	
  3241                           ; 1 bytes @ 0x0
  3242                           
  3243     0070                     ??_I2C_stop:	
  3244                           ; 1 bytes @ 0x0
  3245                           
  3246     0070                     ?_I2C_read:	
  3247                           ; 1 bytes @ 0x0
  3248                           
  3249     0070                     ??_I2C_read:	
  3250                           ; 1 bytes @ 0x0
  3251                           
  3252     0070                     ?_I2C_write:	
  3253                           ; 1 bytes @ 0x0
  3254                           
  3255     0070                     ??_I2C_write:	
  3256                           ; 1 bytes @ 0x0
  3257                           
  3258     0070                     ?_DS3231_read:	
  3259                           ; 1 bytes @ 0x0
  3260                           
  3261     0070                     ?__Umul8_16:	
  3262                           ; 1 bytes @ 0x0
  3263                           
  3264     0070                     ?___fpclassifyf:	
  3265                           ; 2 bytes @ 0x0
  3266                           
  3267     0070                     ?_isdigit:	
  3268                           ; 2 bytes @ 0x0
  3269                           
  3270     0070                     ?_isspace:	
  3271                           ; 2 bytes @ 0x0
  3272                           
  3273     0070                     ?___wmul:	
  3274                           ; 2 bytes @ 0x0
  3275                           
  3276     0070                     ?_labs:	
  3277                           ; 2 bytes @ 0x0
  3278                           
  3279     0070                     ?___flneg:	
  3280                           ; 4 bytes @ 0x0
  3281                           
  3282     0070                     ?___fltol:	
  3283                           ; 4 bytes @ 0x0
  3284                           
  3285     0070                     ?___fldiv:	
  3286                           ; 4 bytes @ 0x0
  3287                           
  3288     0070                     ?___xxtofl:	
  3289                           ; 4 bytes @ 0x0
  3290                           
  3291     0070                     LCD_write_nible@dato:	
  3292                           ; 4 bytes @ 0x0
  3293                           
  3294     0070                     I2C_write@I2C_data:	
  3295                           ; 1 bytes @ 0x0
  3296                           
  3297     0070                     __Umul8_16@multiplicand:	
  3298                           ; 1 bytes @ 0x0
  3299                           
  3300     0070                     memcpy@s1:	
  3301                           ; 1 bytes @ 0x0
  3302                           
  3303     0070                     ___wmul@multiplier:	
  3304                           ; 1 bytes @ 0x0
  3305                           
  3306     0070                     isdigit@c:	
  3307                           ; 2 bytes @ 0x0
  3308                           
  3309     0070                     isspace@c:	
  3310                           ; 2 bytes @ 0x0
  3311                           
  3312     0070                     strcpy@src:	
  3313                           ; 2 bytes @ 0x0
  3314                           
  3315     0070                     ___fleq@ff1:	
  3316                           ; 2 bytes @ 0x0
  3317                           
  3318     0070                     ___flneg@f1:	
  3319                           ; 4 bytes @ 0x0
  3320                           
  3321     0070                     ___fltol@f1:	
  3322                           ; 4 bytes @ 0x0
  3323                           
  3324     0070                     ___fldiv@a:	
  3325                           ; 4 bytes @ 0x0
  3326                           
  3327     0070                     ___xxtofl@val:	
  3328                           ; 4 bytes @ 0x0
  3329                           
  3330     0070                     ___fpclassifyf@x:	
  3331                           ; 4 bytes @ 0x0
  3332                           
  3333     0070                     labs@a:	
  3334                           ; 4 bytes @ 0x0
  3335                           
  3336                           
  3337                           ; 4 bytes @ 0x0
  3338     0070                     	ds	1
  3339     0071                     ??_enviar_hora:
  3340     0071                     ??_enviar_fecha:	
  3341                           ; 1 bytes @ 0x1
  3342                           
  3343     0071                     ??_DS3231_read:	
  3344                           ; 1 bytes @ 0x1
  3345                           
  3346     0071                     LCD_write@dato:	
  3347                           ; 1 bytes @ 0x1
  3348                           
  3349     0071                     convertirHora@i:	
  3350                           ; 1 bytes @ 0x1
  3351                           
  3352     0071                     convertirFecha@i:	
  3353                           ; 1 bytes @ 0x1
  3354                           
  3355     0071                     DS3231_read@address:	
  3356                           ; 1 bytes @ 0x1
  3357                           
  3358     0071                     memcpy@n:	
  3359                           ; 1 bytes @ 0x1
  3360                           
  3361                           
  3362                           ; 2 bytes @ 0x1
  3363     0071                     	ds	1
  3364     0072                     ??_LCD_cmd:
  3365     0072                     ??_LCD_dato:	
  3366                           ; 1 bytes @ 0x2
  3367                           
  3368     0072                     ??__Umul8_16:	
  3369                           ; 1 bytes @ 0x2
  3370                           
  3371     0072                     ??_strcpy:	
  3372                           ; 1 bytes @ 0x2
  3373                           
  3374     0072                     ??_isdigit:	
  3375                           ; 1 bytes @ 0x2
  3376                           
  3377     0072                     ??_isspace:	
  3378                           ; 1 bytes @ 0x2
  3379                           
  3380     0072                     LCD_cmd@dato:	
  3381                           ; 1 bytes @ 0x2
  3382                           
  3383     0072                     LCD_dato@dato:	
  3384                           ; 1 bytes @ 0x2
  3385                           
  3386     0072                     DS3231_read@valor:	
  3387                           ; 1 bytes @ 0x2
  3388                           
  3389     0072                     ___wmul@multiplicand:	
  3390                           ; 1 bytes @ 0x2
  3391                           
  3392                           
  3393                           ; 2 bytes @ 0x2
  3394     0072                     	ds	1
  3395     0073                     ??_LCD_init:
  3396     0073                     ?_LCD_goto:	
  3397                           ; 1 bytes @ 0x3
  3398                           
  3399     0073                     ??_LCD_printf:	
  3400                           ; 1 bytes @ 0x3
  3401                           
  3402     0073                     ??_memcpy:	
  3403                           ; 1 bytes @ 0x3
  3404                           
  3405     0073                     ??_putch:	
  3406                           ; 1 bytes @ 0x3
  3407                           
  3408     0073                     putch@dato:	
  3409                           ; 1 bytes @ 0x3
  3410                           
  3411     0073                     LCD_goto@y:	
  3412                           ; 1 bytes @ 0x3
  3413                           
  3414                           
  3415                           ; 1 bytes @ 0x3
  3416     0073                     	ds	1
  3417     0074                     ??_LCD_goto:
  3418     0074                     ??___fpclassifyf:	
  3419                           ; 1 bytes @ 0x4
  3420                           
  3421     0074                     ??_labs:	
  3422                           ; 1 bytes @ 0x4
  3423                           
  3424     0074                     ??___wmul:	
  3425                           ; 1 bytes @ 0x4
  3426                           
  3427     0074                     ??___flneg:	
  3428                           ; 1 bytes @ 0x4
  3429                           
  3430     0074                     ??___fltol:	
  3431                           ; 1 bytes @ 0x4
  3432                           
  3433     0074                     ??___xxtofl:	
  3434                           ; 1 bytes @ 0x4
  3435                           
  3436     0074                     ?_fputc:	
  3437                           ; 1 bytes @ 0x4
  3438                           
  3439     0074                     LCD_printf@dato:	
  3440                           ; 2 bytes @ 0x4
  3441                           
  3442     0074                     _isspace$1110:	
  3443                           ; 1 bytes @ 0x4
  3444                           
  3445     0074                     memcpy@tmp:	
  3446                           ; 1 bytes @ 0x4
  3447                           
  3448     0074                     ___wmul@product:	
  3449                           ; 1 bytes @ 0x4
  3450                           
  3451     0074                     __Umul8_16@product:	
  3452                           ; 2 bytes @ 0x4
  3453                           
  3454     0074                     fputc@c:	
  3455                           ; 2 bytes @ 0x4
  3456                           
  3457     0074                     strcpy@s:	
  3458                           ; 2 bytes @ 0x4
  3459                           
  3460     0074                     ___fleq@ff2:	
  3461                           ; 2 bytes @ 0x4
  3462                           
  3463     0074                     ___fldiv@b:	
  3464                           ; 4 bytes @ 0x4
  3465                           
  3466                           
  3467                           ; 4 bytes @ 0x4
  3468     0074                     	ds	1
  3469     0075                     memcpy@d1:
  3470                           
  3471                           ; 1 bytes @ 0x5
  3472     0075                     	ds	1
  3473     0076                     ?_atoi:
  3474     0076                     LCD_goto@posicion:	
  3475                           ; 2 bytes @ 0x6
  3476                           
  3477     0076                     memcpy@d:	
  3478                           ; 1 bytes @ 0x6
  3479                           
  3480     0076                     fputc@fp:	
  3481                           ; 1 bytes @ 0x6
  3482                           
  3483     0076                     strcpy@d:	
  3484                           ; 1 bytes @ 0x6
  3485                           
  3486     0076                     __Umul8_16@word_mpld:	
  3487                           ; 1 bytes @ 0x6
  3488                           
  3489     0076                     atoi@s:	
  3490                           ; 2 bytes @ 0x6
  3491                           
  3492                           
  3493                           ; 2 bytes @ 0x6
  3494     0076                     	ds	1
  3495     0077                     ??_fputc:
  3496     0077                     LCD_goto@x:	
  3497                           ; 1 bytes @ 0x7
  3498                           
  3499     0077                     memcpy@s:	
  3500                           ; 1 bytes @ 0x7
  3501                           
  3502     0077                     strcpy@dest:	
  3503                           ; 1 bytes @ 0x7
  3504                           
  3505                           
  3506                           ; 1 bytes @ 0x7
  3507     0077                     	ds	1
  3508     0078                     ??_atoi:
  3509     0078                     ??___fleq:	
  3510                           ; 1 bytes @ 0x8
  3511                           
  3512     0078                     ??___fldiv:	
  3513                           ; 1 bytes @ 0x8
  3514                           
  3515     0078                     ___fltol@sign1:	
  3516                           ; 1 bytes @ 0x8
  3517                           
  3518     0078                     __Umul8_16@multiplier:	
  3519                           ; 1 bytes @ 0x8
  3520                           
  3521     0078                     ___xxtofl@sign:	
  3522                           ; 1 bytes @ 0x8
  3523                           
  3524                           
  3525                           ; 1 bytes @ 0x8
  3526     0078                     	ds	1
  3527     0079                     ??___flmul:
  3528     0079                     ___fltol@exp1:	
  3529                           ; 1 bytes @ 0x9
  3530                           
  3531     0079                     ___xxtofl@exp:	
  3532                           ; 1 bytes @ 0x9
  3533                           
  3534                           
  3535                           ; 1 bytes @ 0x9
  3536     0079                     	ds	1
  3537     007A                     ___xxtofl@arg:
  3538                           
  3539                           ; 4 bytes @ 0xA
  3540     007A                     	ds	2
  3541     007C                     ?_fputs:
  3542     007C                     fputs@fp:	
  3543                           ; 2 bytes @ 0xC
  3544                           
  3545                           
  3546                           ; 1 bytes @ 0xC
  3547     007C                     	ds	1
  3548     007D                     ??_pad:
  3549                           
  3550                           ; 1 bytes @ 0xD
  3551     007D                     	ds	1
  3552     007E                     ??___flsub:
  3553                           
  3554                           	psect	cstackBANK0
  3555     0020                     __pcstackBANK0:	
  3556                           ; 1 bytes @ 0xE
  3557                           
  3558     0020                     ??_fputs:
  3559     0020                     ?___fladd:	
  3560                           ; 1 bytes @ 0x0
  3561                           
  3562     0020                     ?___flmul:	
  3563                           ; 4 bytes @ 0x0
  3564                           
  3565     0020                     ___fpclassifyf@e:	
  3566                           ; 4 bytes @ 0x0
  3567                           
  3568     0020                     atoi@neg:	
  3569                           ; 2 bytes @ 0x0
  3570                           
  3571     0020                     ___fladd@b:	
  3572                           ; 2 bytes @ 0x0
  3573                           
  3574     0020                     ___fldiv@rem:	
  3575                           ; 4 bytes @ 0x0
  3576                           
  3577     0020                     ___flmul@b:	
  3578                           ; 4 bytes @ 0x0
  3579                           
  3580                           
  3581                           ; 4 bytes @ 0x0
  3582     0020                     	ds	2
  3583     0022                     fputs@c:
  3584     0022                     atoi@n:	
  3585                           ; 1 bytes @ 0x2
  3586                           
  3587     0022                     ___fpclassifyf@u:	
  3588                           ; 2 bytes @ 0x2
  3589                           
  3590                           
  3591                           ; 4 bytes @ 0x2
  3592     0022                     	ds	1
  3593     0023                     fputs@i:
  3594                           
  3595                           ; 2 bytes @ 0x3
  3596     0023                     	ds	1
  3597     0024                     ___fldiv@sign:
  3598     0024                     ___fladd@a:	
  3599                           ; 1 bytes @ 0x4
  3600                           
  3601     0024                     ___flmul@a:	
  3602                           ; 4 bytes @ 0x4
  3603                           
  3604                           
  3605                           ; 4 bytes @ 0x4
  3606     0024                     	ds	1
  3607     0025                     fputs@s:
  3608     0025                     ___fldiv@new_exp:	
  3609                           ; 1 bytes @ 0x5
  3610                           
  3611                           
  3612                           ; 2 bytes @ 0x5
  3613     0025                     	ds	1
  3614     0026                     ?_pad:
  3615     0026                     pad@buf:	
  3616                           ; 1 bytes @ 0x6
  3617                           
  3618                           
  3619                           ; 1 bytes @ 0x6
  3620     0026                     	ds	1
  3621     0027                     pad@p:
  3622     0027                     ___fldiv@grs:	
  3623                           ; 2 bytes @ 0x7
  3624                           
  3625                           
  3626                           ; 4 bytes @ 0x7
  3627     0027                     	ds	1
  3628     0028                     ??___fladd:
  3629     0028                     ___flmul@sign:	
  3630                           ; 1 bytes @ 0x8
  3631                           
  3632                           
  3633                           ; 1 bytes @ 0x8
  3634     0028                     	ds	1
  3635     0029                     pad@i:
  3636     0029                     ___flmul@grs:	
  3637                           ; 2 bytes @ 0x9
  3638                           
  3639                           
  3640                           ; 4 bytes @ 0x9
  3641     0029                     	ds	2
  3642     002B                     ___fldiv@bexp:
  3643     002B                     pad@w:	
  3644                           ; 1 bytes @ 0xB
  3645                           
  3646                           
  3647                           ; 2 bytes @ 0xB
  3648     002B                     	ds	1
  3649     002C                     ___fldiv@aexp:
  3650                           
  3651                           ; 1 bytes @ 0xC
  3652     002C                     	ds	1
  3653     002D                     ?_floorf:
  3654     002D                     ___flmul@aexp:	
  3655                           ; 4 bytes @ 0xD
  3656                           
  3657     002D                     pad@fp:	
  3658                           ; 1 bytes @ 0xD
  3659                           
  3660     002D                     floorf@x:	
  3661                           ; 1 bytes @ 0xD
  3662                           
  3663                           
  3664                           ; 4 bytes @ 0xD
  3665     002D                     	ds	1
  3666     002E                     ___flmul@bexp:
  3667                           
  3668                           ; 1 bytes @ 0xE
  3669     002E                     	ds	1
  3670     002F                     ___flmul@prod:
  3671                           
  3672                           ; 4 bytes @ 0xF
  3673     002F                     	ds	1
  3674     0030                     ___fladd@signs:
  3675                           
  3676                           ; 1 bytes @ 0x10
  3677     0030                     	ds	1
  3678     0031                     ??_floorf:
  3679     0031                     ___fladd@aexp:	
  3680                           ; 1 bytes @ 0x11
  3681                           
  3682                           
  3683                           ; 1 bytes @ 0x11
  3684     0031                     	ds	1
  3685     0032                     ___fladd@bexp:
  3686                           
  3687                           ; 1 bytes @ 0x12
  3688     0032                     	ds	1
  3689     0033                     ___fladd@grs:
  3690     0033                     ___flmul@temp:	
  3691                           ; 1 bytes @ 0x13
  3692                           
  3693                           
  3694                           ; 2 bytes @ 0x13
  3695     0033                     	ds	2
  3696     0035                     ?___flge:
  3697     0035                     ?_DS3231_read_temp:	
  3698                           ; 1 bit 
  3699                           
  3700     0035                     ?___flsub:	
  3701                           ; 4 bytes @ 0x15
  3702                           
  3703     0035                     ___flge@ff1:	
  3704                           ; 4 bytes @ 0x15
  3705                           
  3706     0035                     ___flsub@a:	
  3707                           ; 4 bytes @ 0x15
  3708                           
  3709                           
  3710                           ; 4 bytes @ 0x15
  3711     0035                     	ds	2
  3712     0037                     floorf@m:
  3713                           
  3714                           ; 4 bytes @ 0x17
  3715     0037                     	ds	2
  3716     0039                     ??_DS3231_read_temp:
  3717     0039                     ___flge@ff2:	
  3718                           ; 1 bytes @ 0x19
  3719                           
  3720     0039                     ___flsub@b:	
  3721                           ; 4 bytes @ 0x19
  3722                           
  3723                           
  3724                           ; 4 bytes @ 0x19
  3725     0039                     	ds	2
  3726     003B                     floorf@e:
  3727                           
  3728                           ; 2 bytes @ 0x1B
  3729     003B                     	ds	2
  3730     003D                     ??___flge:
  3731     003D                     DS3231_read_temp@highByte:	
  3732                           ; 1 bytes @ 0x1D
  3733                           
  3734     003D                     floorf@u:	
  3735                           ; 1 bytes @ 0x1D
  3736                           
  3737                           
  3738                           ; 4 bytes @ 0x1D
  3739     003D                     	ds	1
  3740     003E                     DS3231_read_temp@lowByte:
  3741                           
  3742                           ; 1 bytes @ 0x1E
  3743     003E                     	ds	1
  3744     003F                     DS3231_read_temp@temp:
  3745                           
  3746                           ; 4 bytes @ 0x1F
  3747     003F                     	ds	2
  3748     0041                     ?_efgtoa:
  3749     0041                     efgtoa@f:	
  3750                           ; 1 bytes @ 0x21
  3751                           
  3752                           
  3753                           ; 4 bytes @ 0x21
  3754     0041                     	ds	4
  3755     0045                     efgtoa@c:
  3756                           
  3757                           ; 1 bytes @ 0x25
  3758     0045                     	ds	1
  3759     0046                     ??_efgtoa:
  3760                           
  3761                           ; 1 bytes @ 0x26
  3762     0046                     	ds	4
  3763     004A                     ??_vfpfcnvrt:
  3764                           
  3765                           ; 1 bytes @ 0x2A
  3766     004A                     	ds	4
  3767     004E                     vfpfcnvrt@convarg:
  3768                           
  3769                           ; 8 bytes @ 0x2E
  3770     004E                     	ds	8
  3771     0056                     vfpfcnvrt@fp:
  3772                           
  3773                           ; 1 bytes @ 0x36
  3774     0056                     	ds	1
  3775     0057                     vfpfcnvrt@c:
  3776                           
  3777                           ; 1 bytes @ 0x37
  3778     0057                     	ds	1
  3779     0058                     vfpfcnvrt@cp:
  3780                           
  3781                           ; 2 bytes @ 0x38
  3782     0058                     	ds	2
  3783     005A                     ??_vfprintf:
  3784                           
  3785                           ; 1 bytes @ 0x3A
  3786     005A                     	ds	1
  3787     005B                     vfprintf@fp:
  3788                           
  3789                           ; 1 bytes @ 0x3B
  3790     005B                     	ds	1
  3791     005C                     vfprintf@cfmt:
  3792                           
  3793                           ; 2 bytes @ 0x3C
  3794     005C                     	ds	2
  3795     005E                     ??_sprintf:
  3796                           
  3797                           ; 1 bytes @ 0x3E
  3798     005E                     	ds	1
  3799     005F                     sprintf@s:
  3800                           
  3801                           ; 1 bytes @ 0x3F
  3802     005F                     	ds	1
  3803     0060                     sprintf@ap:
  3804                           
  3805                           ; 1 bytes @ 0x40
  3806     0060                     	ds	1
  3807     0061                     sprintf@f:
  3808                           
  3809                           ; 10 bytes @ 0x41
  3810     0061                     	ds	10
  3811     006B                     ??_main:
  3812                           
  3813                           ; 1 bytes @ 0x4B
  3814     006B                     	ds	1
  3815                           
  3816                           	psect	maintext
  3817     14BD                     __pmaintext:	
  3818 ;;
  3819 ;;Main: autosize = 0, tempsize = 1, incstack = 0, save=0
  3820 ;;
  3821 ;; *************** function _main *****************
  3822 ;; Defined at:
  3823 ;;		line 70 in file "main.c"
  3824 ;; Parameters:    Size  Location     Type
  3825 ;;		None
  3826 ;; Auto vars:     Size  Location     Type
  3827 ;;  temperatura     4   66[BANK1 ] float 
  3828 ;;  buffer         10   56[BANK1 ] unsigned char [10]
  3829 ;; Return value:  Size  Location     Type
  3830 ;;                  1    wreg      void 
  3831 ;; Registers used:
  3832 ;;		wreg, fsr0l, fsr0h, fsr1l, fsr1h, status,2, status,0, pclath, cstack
  3833 ;; Tracked objects:
  3834 ;;		On entry : B3F/0
  3835 ;;		On exit  : 0/0
  3836 ;;		Unchanged: 0/0
  3837 ;; Data sizes:     COMMON   BANK0   BANK1   BANK2   BANK3   BANK4   BANK5   BANK6   BANK7   BANK8   BANK9  BANK10  BANK1
      +1  BANK12  BANK13  BANK14  BANK15  BANK16  BANK17  BANK18  BANK19  BANK20  BANK21  BANK22  BANK23  BANK24  BANK25  BANK2
      +6  BANK27  BANK28  BANK29  BANK30  BANK31  BANK32  BANK33  BANK34  BANK35  BANK36  BANK37  BANK38  BANK39  BANK40  BANK4
      +1  BANK42  BANK43  BANK44  BANK45  BANK46  BANK47  BANK48  BANK49  BANK50
  3838 ;;      Params:         0       0       0       0       0       0       0       0       0       0       0       0       
      +0       0       0       0       0       0       0       0       0       0       0       0       0       0       0       
      +0       0       0       0       0       0       0       0       0       0       0       0       0       0       0       
      +0       0       0       0       0       0       0       0       0       0
  3839 ;;      Locals:         0       0      14       0       0       0       0       0       0       0       0       0       
      +0       0       0       0       0       0       0       0       0       0       0       0       0       0       0       
      +0       0       0       0       0       0       0       0       0       0       0       0       0       0       0       
      +0       0       0       0       0       0       0       0       0       0
  3840 ;;      Temps:          0       1       0       0       0       0       0       0       0       0       0       0       
      +0       0       0       0       0       0       0       0       0       0       0       0       0       0       0       
      +0       0       0       0       0       0       0       0       0       0       0       0       0       0       0       
      +0       0       0       0       0       0       0       0       0       0
  3841 ;;      Totals:         0       1      14       0       0       0       0       0       0       0       0       0       
      +0       0       0       0       0       0       0       0       0       0       0       0       0       0       0       
      +0       0       0       0       0       0       0       0       0       0       0       0       0       0       0       
      +0       0       0       0       0       0       0       0       0       0
  3842 ;;Total ram usage:       15 bytes
  3843 ;; Hardware stack levels required when called: 10
  3844 ;; This function calls:
  3845 ;;		_DS3231_read_temp
  3846 ;;		_I2C_init
  3847 ;;		_LCD_goto
  3848 ;;		_LCD_init
  3849 ;;		_LCD_printf
  3850 ;;		_OSC_init
  3851 ;;		_PIN_MANAGER_init
  3852 ;;		_convertirFecha
  3853 ;;		_convertirHora
  3854 ;;		_enviar_fecha
  3855 ;;		_enviar_hora
  3856 ;;		_sprintf
  3857 ;; This function is called by:
  3858 ;;		Startup code after reset
  3859 ;; This function uses a non-reentrant model
  3860 ;;
  3861                           
  3862     14BD                     _main:	
  3863                           ;psect for function _main
  3864                           
  3865     14BD                     l4087:	
  3866                           ;incstack = 0
  3867                           ; Regs used in _main: [wreg-fsr1h+status,2+status,0+pclath+cstack]
  3868                           
  3869                           
  3870                           ;main.c: 72:     char buffer[10];;main.c: 73:     PIN_MANAGER_init();
  3871     14BD  3191  2111  3194   	fcall	_PIN_MANAGER_init
  3872                           
  3873                           ;main.c: 74:     OSC_init();
  3874     14C0  3190  20F7  3194   	fcall	_OSC_init
  3875                           
  3876                           ;main.c: 76:     LCD_init();
  3877     14C3  3195  250E  3194   	fcall	_LCD_init
  3878                           
  3879                           ;main.c: 77:     I2C_init();
  3880     14C6  3180  2004  3194   	fcall	_I2C_init
  3881     14C9                     l4089:
  3882                           
  3883                           ;main.c: 79:     convertirHora();
  3884     14C9  3188  2006  3194   	fcall	_convertirHora
  3885     14CC                     l4091:
  3886                           
  3887                           ;main.c: 80:     enviar_hora();
  3888     14CC  3191  2188  3194   	fcall	_enviar_hora
  3889                           
  3890                           ;main.c: 82:     convertirFecha();
  3891     14CF  3193  234E  3194   	fcall	_convertirFecha
  3892     14D2                     l4093:
  3893                           
  3894                           ;main.c: 83:     enviar_fecha();
  3895     14D2  3191  216A  3194   	fcall	_enviar_fecha
  3896     14D5                     l4095:
  3897                           
  3898                           ;main.c: 84:     _delay((unsigned long)((100)*(4000000/4000.0)));
  3899     14D5  3082               	movlw	130
  3900     14D6  0140               	movlb	0	; select bank0
  3901     14D7  00EB               	movwf	??_main
  3902     14D8  30DD               	movlw	221
  3903     14D9                     u5177:
  3904     14D9  0B89               	decfsz	9,f
  3905     14DA  2CD9               	goto	u5177
  3906     14DB  0BEB               	decfsz	??_main,f
  3907     14DC  2CD9               	goto	u5177
  3908     14DD  3200               	nop2
  3909     14DE                     l4097:
  3910                           
  3911                           ;main.c: 86:     {;main.c: 87:         float temperatura;;main.c: 88:         LCD_goto(2
      +                          , 1);
  3912     14DE  01F3               	clrf	LCD_goto@y
  3913     14DF  0AF3               	incf	LCD_goto@y,f
  3914     14E0  3002               	movlw	2
  3915     14E1  3193  2320  3194   	fcall	_LCD_goto
  3916     14E4                     l4099:
  3917                           
  3918                           ;main.c: 89:         temperatura = DS3231_read_temp();
  3919     14E4  3196  265F  3194   	fcall	_DS3231_read_temp
  3920     14E7  0140               	movlb	0	; select bank0
  3921     14E8  0838               	movf	?_DS3231_read_temp+3,w
  3922     14E9  0141               	movlb	1	; select bank1
  3923     14EA  00E5               	movwf	(main@temperatura+3)^(0+128)
  3924     14EB  0140               	movlb	0	; select bank0
  3925     14EC  0837               	movf	?_DS3231_read_temp+2,w
  3926     14ED  0141               	movlb	1	; select bank1
  3927     14EE  00E4               	movwf	(main@temperatura+2)^(0+128)
  3928     14EF  0140               	movlb	0	; select bank0
  3929     14F0  0836               	movf	?_DS3231_read_temp+1,w
  3930     14F1  0141               	movlb	1	; select bank1
  3931     14F2  00E3               	movwf	(main@temperatura+1)^(0+128)
  3932     14F3  0140               	movlb	0	; select bank0
  3933     14F4  0835               	movf	?_DS3231_read_temp,w
  3934     14F5  0141               	movlb	1	; select bank1
  3935     14F6  00E2               	movwf	main@temperatura^(0+128)
  3936     14F7                     l4101:
  3937                           
  3938                           ;main.c: 90:         sprintf(buffer, "Temp %2.2f", temperatura);
  3939     14F7  3000               	movlw	low (STR_1| (0+32768))
  3940     14F8  00D2               	movwf	sprintf@fmt^(0+128)
  3941     14F9  3098               	movlw	high (STR_1| (0+32768))
  3942     14FA  00D3               	movwf	(sprintf@fmt^(0+128)+1)
  3943     14FB  0865               	movf	(main@temperatura+3)^(0+128),w
  3944     14FC  00D7               	movwf	((?_sprintf+3)^(0+128)+2)
  3945     14FD  0864               	movf	(main@temperatura+2)^(0+128),w
  3946     14FE  00D6               	movwf	((?_sprintf+2)^(0+128)+2)
  3947     14FF  0863               	movf	(main@temperatura+1)^(0+128),w
  3948     1500  00D5               	movwf	((?_sprintf+1)^(0+128)+2)
  3949     1501  0862               	movf	main@temperatura^(0+128),w
  3950     1502  00D4               	movwf	(?_sprintf^(0+128)+2)
  3951     1503  30D8               	movlw	(low (main@buffer| 0))& (0+255)
  3952     1504  3191  21A6  3194   	fcall	_sprintf
  3953     1507                     l4103:
  3954                           
  3955                           ;main.c: 91:         LCD_printf(buffer);
  3956     1507  30D8               	movlw	(low (main@buffer| 0))& (0+255)
  3957     1508  3191  2120  3194   	fcall	_LCD_printf
  3958     150B  2CD5               	goto	l4095
  3959     150C  3180  2802         	ljmp	start
  3960     150E                     __end_of_main:
  3961                           
  3962                           	psect	text1
  3963     11A6                     __ptext1:	
  3964 ;; *************** function _sprintf *****************
  3965 ;; Defined at:
  3966 ;;		line 9 in file "C:\Program Files\Microchip\xc8\v2.40\pic\sources\c99\common\nf_sprintf.c"
  3967 ;; Parameters:    Size  Location     Type
  3968 ;;  s               1    wreg     PTR unsigned char 
  3969 ;;		 -> main@buffer(10), 
  3970 ;;  fmt             2   50[BANK1 ] PTR const unsigned char 
  3971 ;;		 -> STR_1(11), 
  3972 ;; Auto vars:     Size  Location     Type
  3973 ;;  s               1   63[BANK0 ] PTR unsigned char 
  3974 ;;		 -> main@buffer(10), 
  3975 ;;  f              10   65[BANK0 ] struct _IO_FILE
  3976 ;;  ret             2    0        int 
  3977 ;;  ap              1   64[BANK0 ] PTR void [1]
  3978 ;;		 -> ?_sprintf(2), 
  3979 ;; Return value:  Size  Location     Type
  3980 ;;                  2   50[BANK1 ] int 
  3981 ;; Registers used:
  3982 ;;		wreg, fsr0l, fsr0h, fsr1l, fsr1h, status,2, status,0, pclath, cstack
  3983 ;; Tracked objects:
  3984 ;;		On entry : 0/0
  3985 ;;		On exit  : 0/0
  3986 ;;		Unchanged: 0/0
  3987 ;; Data sizes:     COMMON   BANK0   BANK1   BANK2   BANK3   BANK4   BANK5   BANK6   BANK7   BANK8   BANK9  BANK10  BANK1
      +1  BANK12  BANK13  BANK14  BANK15  BANK16  BANK17  BANK18  BANK19  BANK20  BANK21  BANK22  BANK23  BANK24  BANK25  BANK2
      +6  BANK27  BANK28  BANK29  BANK30  BANK31  BANK32  BANK33  BANK34  BANK35  BANK36  BANK37  BANK38  BANK39  BANK40  BANK4
      +1  BANK42  BANK43  BANK44  BANK45  BANK46  BANK47  BANK48  BANK49  BANK50
  3988 ;;      Params:         0       0       6       0       0       0       0       0       0       0       0       0       
      +0       0       0       0       0       0       0       0       0       0       0       0       0       0       0       
      +0       0       0       0       0       0       0       0       0       0       0       0       0       0       0       
      +0       0       0       0       0       0       0       0       0       0
  3989 ;;      Locals:         0      12       0       0       0       0       0       0       0       0       0       0       
      +0       0       0       0       0       0       0       0       0       0       0       0       0       0       0       
      +0       0       0       0       0       0       0       0       0       0       0       0       0       0       0       
      +0       0       0       0       0       0       0       0       0       0
  3990 ;;      Temps:          0       1       0       0       0       0       0       0       0       0       0       0       
      +0       0       0       0       0       0       0       0       0       0       0       0       0       0       0       
      +0       0       0       0       0       0       0       0       0       0       0       0       0       0       0       
      +0       0       0       0       0       0       0       0       0       0
  3991 ;;      Totals:         0      13       6       0       0       0       0       0       0       0       0       0       
      +0       0       0       0       0       0       0       0       0       0       0       0       0       0       0       
      +0       0       0       0       0       0       0       0       0       0       0       0       0       0       0       
      +0       0       0       0       0       0       0       0       0       0
  3992 ;;Total ram usage:       19 bytes
  3993 ;; Hardware stack levels used: 1
  3994 ;; Hardware stack levels required when called: 9
  3995 ;; This function calls:
  3996 ;;		_vfprintf
  3997 ;; This function is called by:
  3998 ;;		_main
  3999 ;; This function uses a non-reentrant model
  4000 ;;
  4001                           
  4002     11A6                     _sprintf:	
  4003                           ;psect for function _sprintf
  4004                           
  4005                           
  4006                           ;incstack = 0
  4007                           ; Regs used in _sprintf: [wreg-fsr1h+status,2+status,0+pclath+cstack]
  4008                           ;sprintf@s stored from wreg
  4009     11A6  0140               	movlb	0	; select bank0
  4010     11A7  00DF               	movwf	sprintf@s
  4011     11A8                     l4063:
  4012     11A8  30D4               	movlw	(low ((?_sprintf| 0+2)))& (0+255)
  4013     11A9  00E0               	movwf	sprintf@ap
  4014     11AA  085F               	movf	sprintf@s,w
  4015     11AB  00E1               	movwf	sprintf@f
  4016     11AC                     l4065:
  4017     11AC  01E3               	clrf	sprintf@f+2
  4018     11AD  01E4               	clrf	sprintf@f+3
  4019     11AE                     l4067:
  4020     11AE  01E9               	clrf	sprintf@f+8
  4021     11AF  01EA               	clrf	sprintf@f+9
  4022     11B0                     l4069:
  4023     11B0  0141               	movlb	1	; select bank1
  4024     11B1  0853               	movf	(sprintf@fmt+1)^(0+128),w
  4025     11B2  00D0               	movwf	(vfprintf@fmt+1)^(0+128)
  4026     11B3  0852               	movf	sprintf@fmt^(0+128),w
  4027     11B4  00CF               	movwf	vfprintf@fmt^(0+128)
  4028     11B5  3060               	movlw	(low (sprintf@ap| 0))& (0+255)
  4029     11B6  00D1               	movwf	vfprintf@ap^(0+128)
  4030     11B7  3061               	movlw	(low (sprintf@f| 0))& (0+255)
  4031     11B8  3192  2288  3191   	fcall	_vfprintf
  4032     11BB                     l4071:
  4033     11BB  0140               	movlb	0	; select bank0
  4034     11BC  0863               	movf	sprintf@f+2,w
  4035     11BD  075F               	addwf	sprintf@s,w
  4036     11BE  00DE               	movwf	??_sprintf
  4037     11BF  085E               	movf	??_sprintf,w
  4038     11C0  0086               	movwf	6
  4039     11C1  0187               	clrf	7
  4040     11C2  0181               	clrf	1
  4041     11C3                     l919:
  4042     11C3  0008               	return
  4043     11C4                     __end_of_sprintf:
  4044                           
  4045                           	psect	text2
  4046     1288                     __ptext2:	
  4047 ;; *************** function _vfprintf *****************
  4048 ;; Defined at:
  4049 ;;		line 1520 in file "C:\Program Files\Microchip\xc8\v2.40\pic\sources\c99\common\doprnt.c"
  4050 ;; Parameters:    Size  Location     Type
  4051 ;;  fp              1    wreg     PTR struct _IO_FILE
  4052 ;;		 -> sprintf@f(10), 
  4053 ;;  fmt             2   47[BANK1 ] PTR const unsigned char 
  4054 ;;		 -> STR_1(11), 
  4055 ;;  ap              1   49[BANK1 ] PTR PTR void 
  4056 ;;		 -> sprintf@ap(1), 
  4057 ;; Auto vars:     Size  Location     Type
  4058 ;;  fp              1   59[BANK0 ] PTR struct _IO_FILE
  4059 ;;		 -> sprintf@f(10), 
  4060 ;;  cfmt            2   60[BANK0 ] PTR unsigned char 
  4061 ;;		 -> STR_1(11), 
  4062 ;; Return value:  Size  Location     Type
  4063 ;;                  2   47[BANK1 ] int 
  4064 ;; Registers used:
  4065 ;;		wreg, fsr0l, fsr0h, fsr1l, fsr1h, status,2, status,0, pclath, cstack
  4066 ;; Tracked objects:
  4067 ;;		On entry : 0/0
  4068 ;;		On exit  : 0/0
  4069 ;;		Unchanged: 0/0
  4070 ;; Data sizes:     COMMON   BANK0   BANK1   BANK2   BANK3   BANK4   BANK5   BANK6   BANK7   BANK8   BANK9  BANK10  BANK1
      +1  BANK12  BANK13  BANK14  BANK15  BANK16  BANK17  BANK18  BANK19  BANK20  BANK21  BANK22  BANK23  BANK24  BANK25  BANK2
      +6  BANK27  BANK28  BANK29  BANK30  BANK31  BANK32  BANK33  BANK34  BANK35  BANK36  BANK37  BANK38  BANK39  BANK40  BANK4
      +1  BANK42  BANK43  BANK44  BANK45  BANK46  BANK47  BANK48  BANK49  BANK50
  4071 ;;      Params:         0       0       3       0       0       0       0       0       0       0       0       0       
      +0       0       0       0       0       0       0       0       0       0       0       0       0       0       0       
      +0       0       0       0       0       0       0       0       0       0       0       0       0       0       0       
      +0       0       0       0       0       0       0       0       0       0
  4072 ;;      Locals:         0       3       0       0       0       0       0       0       0       0       0       0       
      +0       0       0       0       0       0       0       0       0       0       0       0       0       0       0       
      +0       0       0       0       0       0       0       0       0       0       0       0       0       0       0       
      +0       0       0       0       0       0       0       0       0       0
  4073 ;;      Temps:          0       1       0       0       0       0       0       0       0       0       0       0       
      +0       0       0       0       0       0       0       0       0       0       0       0       0       0       0       
      +0       0       0       0       0       0       0       0       0       0       0       0       0       0       0       
      +0       0       0       0       0       0       0       0       0       0
  4074 ;;      Totals:         0       4       3       0       0       0       0       0       0       0       0       0       
      +0       0       0       0       0       0       0       0       0       0       0       0       0       0       0       
      +0       0       0       0       0       0       0       0       0       0       0       0       0       0       0       
      +0       0       0       0       0       0       0       0       0       0
  4075 ;;Total ram usage:        7 bytes
  4076 ;; Hardware stack levels used: 1
  4077 ;; Hardware stack levels required when called: 8
  4078 ;; This function calls:
  4079 ;;		_vfpfcnvrt
  4080 ;; This function is called by:
  4081 ;;		_sprintf
  4082 ;; This function uses a non-reentrant model
  4083 ;;
  4084                           
  4085     1288                     _vfprintf:	
  4086                           ;psect for function _vfprintf
  4087                           
  4088                           
  4089                           ;incstack = 0
  4090                           ; Regs used in _vfprintf: [wreg-fsr1h+status,2+status,0+pclath+cstack]
  4091                           ;vfprintf@fp stored from wreg
  4092     1288  0140               	movlb	0	; select bank0
  4093     1289  00DB               	movwf	vfprintf@fp
  4094     128A                     l3915:
  4095                           
  4096                           ;C:\Program Files\Microchip\xc8\v2.40\pic\sources\c99\common\doprnt.c: 1520: int vfprint
      +                          f(FILE *fp, const char *fmt, va_list ap);C:\Program Files\Microchip\xc8\v2.40\pic\source
      +                          s\c99\common\doprnt.c: 1521: {;C:\Program Files\Microchip\xc8\v2.40\pic\sources\c99\comm
      +                          on\doprnt.c: 1523:     char *cfmt;;C:\Program Files\Microchip\xc8\v2.40\pic\sources\c99\
      +                          common\doprnt.c: 1525:     cfmt = (char *)fmt;
  4097     128A  0141               	movlb	1	; select bank1
  4098     128B  0850               	movf	(vfprintf@fmt+1)^(0+128),w
  4099     128C  0140               	movlb	0	; select bank0
  4100     128D  00DD               	movwf	vfprintf@cfmt+1
  4101     128E  0141               	movlb	1	; select bank1
  4102     128F  084F               	movf	vfprintf@fmt^(0+128),w
  4103     1290  0140               	movlb	0	; select bank0
  4104     1291  00DC               	movwf	vfprintf@cfmt
  4105                           
  4106                           ;C:\Program Files\Microchip\xc8\v2.40\pic\sources\c99\common\doprnt.c: 1529:     while (
      +                          *cfmt) {
  4107     1292  2A9D               	goto	l3919
  4108     1293                     l3917:
  4109                           
  4110                           ;C:\Program Files\Microchip\xc8\v2.40\pic\sources\c99\common\doprnt.c: 1533:    vfpfcnvr
      +                          t(fp, &cfmt, ap);
  4111     1293  305C               	movlw	(low (vfprintf@cfmt| 0))& (0+255)
  4112     1294  0141               	movlb	1	; select bank1
  4113     1295  00CD               	movwf	vfpfcnvrt@fmt^(0+128)
  4114     1296  0851               	movf	vfprintf@ap^(0+128),w
  4115     1297  00CE               	movwf	vfpfcnvrt@ap^(0+128)
  4116     1298  0140               	movlb	0	; select bank0
  4117     1299  085B               	movf	vfprintf@fp,w
  4118     129A  3189  21E9  3192   	fcall	_vfpfcnvrt
  4119     129D                     l3919:
  4120                           
  4121                           ;C:\Program Files\Microchip\xc8\v2.40\pic\sources\c99\common\doprnt.c: 1529:     while (
      +                          *cfmt) {
  4122     129D  0140               	movlb	0	; select bank0
  4123     129E  085C               	movf	vfprintf@cfmt,w
  4124     129F  0084               	movwf	4
  4125     12A0  085D               	movf	vfprintf@cfmt+1,w
  4126     12A1  0085               	movwf	5
  4127     12A2  0012               	moviw fsr0++
  4128     12A3  1D03               	btfss	3,2
  4129     12A4  2AA6               	goto	u4941
  4130     12A5  2AA7               	goto	u4940
  4131     12A6                     u4941:
  4132     12A6  2A93               	goto	l3917
  4133     12A7                     u4940:
  4134     12A7                     l3921:
  4135                           
  4136                           ;C:\Program Files\Microchip\xc8\v2.40\pic\sources\c99\common\doprnt.c: 1538:  return 0;
  4137     12A7  0141               	movlb	1	; select bank1
  4138     12A8  01CF               	clrf	?_vfprintf^(0+128)
  4139     12A9  01D0               	clrf	(?_vfprintf+1)^(0+128)
  4140     12AA                     l1053:
  4141     12AA  0008               	return
  4142     12AB                     __end_of_vfprintf:
  4143                           
  4144                           	psect	text3
  4145     09E9                     __ptext3:	
  4146 ;; *************** function _vfpfcnvrt *****************
  4147 ;; Defined at:
  4148 ;;		line 1007 in file "C:\Program Files\Microchip\xc8\v2.40\pic\sources\c99\common\doprnt.c"
  4149 ;; Parameters:    Size  Location     Type
  4150 ;;  fp              1    wreg     PTR struct _IO_FILE
  4151 ;;		 -> sprintf@f(10), 
  4152 ;;  fmt             1   45[BANK1 ] PTR PTR unsigned char 
  4153 ;;		 -> vfprintf@cfmt(2), 
  4154 ;;  ap              1   46[BANK1 ] PTR PTR void 
  4155 ;;		 -> sprintf@ap(1), 
  4156 ;; Auto vars:     Size  Location     Type
  4157 ;;  fp              1   54[BANK0 ] PTR struct _IO_FILE
  4158 ;;		 -> sprintf@f(10), 
  4159 ;;  convarg         8   46[BANK0 ] struct .
  4160 ;;  cp              2   56[BANK0 ] PTR unsigned char 
  4161 ;;		 -> STR_1(11), 
  4162 ;;  i               2    0        int 
  4163 ;;  done            2    0        int 
  4164 ;;  c               1   55[BANK0 ] unsigned char 
  4165 ;; Return value:  Size  Location     Type
  4166 ;;                  1    wreg      void 
  4167 ;; Registers used:
  4168 ;;		wreg, fsr0l, fsr0h, fsr1l, fsr1h, status,2, status,0, pclath, cstack
  4169 ;; Tracked objects:
  4170 ;;		On entry : 0/0
  4171 ;;		On exit  : 0/0
  4172 ;;		Unchanged: 0/0
  4173 ;; Data sizes:     COMMON   BANK0   BANK1   BANK2   BANK3   BANK4   BANK5   BANK6   BANK7   BANK8   BANK9  BANK10  BANK1
      +1  BANK12  BANK13  BANK14  BANK15  BANK16  BANK17  BANK18  BANK19  BANK20  BANK21  BANK22  BANK23  BANK24  BANK25  BANK2
      +6  BANK27  BANK28  BANK29  BANK30  BANK31  BANK32  BANK33  BANK34  BANK35  BANK36  BANK37  BANK38  BANK39  BANK40  BANK4
      +1  BANK42  BANK43  BANK44  BANK45  BANK46  BANK47  BANK48  BANK49  BANK50
  4174 ;;      Params:         0       0       2       0       0       0       0       0       0       0       0       0       
      +0       0       0       0       0       0       0       0       0       0       0       0       0       0       0       
      +0       0       0       0       0       0       0       0       0       0       0       0       0       0       0       
      +0       0       0       0       0       0       0       0       0       0
  4175 ;;      Locals:         0      12       0       0       0       0       0       0       0       0       0       0       
      +0       0       0       0       0       0       0       0       0       0       0       0       0       0       0       
      +0       0       0       0       0       0       0       0       0       0       0       0       0       0       0       
      +0       0       0       0       0       0       0       0       0       0
  4176 ;;      Temps:          0       4       0       0       0       0       0       0       0       0       0       0       
      +0       0       0       0       0       0       0       0       0       0       0       0       0       0       0       
      +0       0       0       0       0       0       0       0       0       0       0       0       0       0       0       
      +0       0       0       0       0       0       0       0       0       0
  4177 ;;      Totals:         0      16       2       0       0       0       0       0       0       0       0       0       
      +0       0       0       0       0       0       0       0       0       0       0       0       0       0       0       
      +0       0       0       0       0       0       0       0       0       0       0       0       0       0       0       
      +0       0       0       0       0       0       0       0       0       0
  4178 ;;Total ram usage:       18 bytes
  4179 ;; Hardware stack levels used: 1
  4180 ;; Hardware stack levels required when called: 7
  4181 ;; This function calls:
  4182 ;;		_atoi
  4183 ;;		_efgtoa
  4184 ;;		_fputc
  4185 ;;		_isdigit
  4186 ;; This function is called by:
  4187 ;;		_vfprintf
  4188 ;; This function uses a non-reentrant model
  4189 ;;
  4190                           
  4191     09E9                     _vfpfcnvrt:	
  4192                           ;psect for function _vfpfcnvrt
  4193                           
  4194                           
  4195                           ;incstack = 0
  4196                           ; Regs used in _vfpfcnvrt: [wreg-fsr1h+status,2+status,0+pclath+cstack]
  4197                           ;vfpfcnvrt@fp stored from wreg
  4198     09E9  0140               	movlb	0	; select bank0
  4199     09EA  00D6               	movwf	vfpfcnvrt@fp
  4200     09EB                     l3725:
  4201                           
  4202                           ;C:\Program Files\Microchip\xc8\v2.40\pic\sources\c99\common\doprnt.c: 1007: vfpfcnvrt(F
      +                          ILE *fp, char *fmt[], va_list ap);C:\Program Files\Microchip\xc8\v2.40\pic\sources\c99\c
      +                          ommon\doprnt.c: 1008: {;C:\Program Files\Microchip\xc8\v2.40\pic\sources\c99\common\dopr
      +                          nt.c: 1009:     char c, *cp;;C:\Program Files\Microchip\xc8\v2.40\pic\sources\c99\common
      +                          \doprnt.c: 1010:     int done, i;;C:\Program Files\Microchip\xc8\v2.40\pic\sources\c99\c
      +                          ommon\doprnt.c: 1016:  } convarg;;C:\Program Files\Microchip\xc8\v2.40\pic\sources\c99\c
      +                          ommon\doprnt.c: 1019:     if ((*fmt)[0] == '%') {
  4203     09EB  0141               	movlb	1	; select bank1
  4204     09EC  084D               	movf	vfpfcnvrt@fmt^(0+128),w
  4205     09ED  0086               	movwf	6
  4206     09EE  0187               	clrf	7
  4207     09EF  3F40               	moviw [0]fsr1
  4208     09F0  0140               	movlb	0	; select bank0
  4209     09F1  00CA               	movwf	??_vfpfcnvrt
  4210     09F2  3F41               	moviw [1]fsr1
  4211     09F3  00CB               	movwf	??_vfpfcnvrt+1
  4212     09F4  084A               	movf	??_vfpfcnvrt,w
  4213     09F5  0084               	movwf	4
  4214     09F6  084B               	movf	??_vfpfcnvrt+1,w
  4215     09F7  0085               	movwf	5
  4216     09F8  0012               	moviw fsr0++
  4217     09F9  3A25               	xorlw	37
  4218     09FA  1D03               	btfss	3,2
  4219     09FB  29FD               	goto	u4681
  4220     09FC  29FE               	goto	u4680
  4221     09FD                     u4681:
  4222     09FD  2BA2               	goto	l3811
  4223     09FE                     u4680:
  4224     09FE                     l3727:
  4225                           
  4226                           ;C:\Program Files\Microchip\xc8\v2.40\pic\sources\c99\common\doprnt.c: 1020:         ++*
      +                          fmt;
  4227     09FE  0141               	movlb	1	; select bank1
  4228     09FF  084D               	movf	vfpfcnvrt@fmt^(0+128),w
  4229     0A00  0086               	movwf	6
  4230     0A01  0187               	clrf	7
  4231     0A02  3001               	movlw	1
  4232     0A03  0781               	addwf	1,f
  4233     0A04  3141               	addfsr 1,1
  4234     0A05  1803               	skipnc
  4235     0A06  0A81               	incf	1,f
  4236     0A07                     l3729:
  4237                           
  4238                           ;C:\Program Files\Microchip\xc8\v2.40\pic\sources\c99\common\doprnt.c: 1022:         fla
      +                          gs = width = 0;
  4239     0A07  01E6               	clrf	_width^(0+128)
  4240     0A08  01E7               	clrf	(_width+1)^(0+128)
  4241     0A09  1003               	clrc
  4242     0A0A  3000               	movlw	0
  4243     0A0B  1803               	btfsc	3,0
  4244     0A0C  3001               	movlw	1
  4245     0A0D  00EA               	movwf	_flags^(0+128)
  4246     0A0E                     l3731:
  4247                           
  4248                           ;C:\Program Files\Microchip\xc8\v2.40\pic\sources\c99\common\doprnt.c: 1023:         pre
      +                          c = -1;
  4249     0A0E  30FF               	movlw	255
  4250     0A0F  00E8               	movwf	_prec^(0+128)
  4251     0A10  30FF               	movlw	255
  4252     0A11  00E9               	movwf	(_prec^(0+128)+1)
  4253     0A12                     l3733:
  4254                           
  4255                           ;C:\Program Files\Microchip\xc8\v2.40\pic\sources\c99\common\doprnt.c: 1074:         if 
      +                          ((*fmt)[0] == '*') {
  4256     0A12  084D               	movf	vfpfcnvrt@fmt^(0+128),w
  4257     0A13  0086               	movwf	6
  4258     0A14  0187               	clrf	7
  4259     0A15  3F40               	moviw [0]fsr1
  4260     0A16  0140               	movlb	0	; select bank0
  4261     0A17  00CA               	movwf	??_vfpfcnvrt
  4262     0A18  3F41               	moviw [1]fsr1
  4263     0A19  00CB               	movwf	??_vfpfcnvrt+1
  4264     0A1A  084A               	movf	??_vfpfcnvrt,w
  4265     0A1B  0084               	movwf	4
  4266     0A1C  084B               	movf	??_vfpfcnvrt+1,w
  4267     0A1D  0085               	movwf	5
  4268     0A1E  0012               	moviw fsr0++
  4269     0A1F  3A2A               	xorlw	42
  4270     0A20  1D03               	btfss	3,2
  4271     0A21  2A23               	goto	u4691
  4272     0A22  2A24               	goto	u4690
  4273     0A23                     u4691:
  4274     0A23  2A44               	goto	l3745
  4275     0A24                     u4690:
  4276     0A24                     l3735:
  4277                           
  4278                           ;C:\Program Files\Microchip\xc8\v2.40\pic\sources\c99\common\doprnt.c: 1075:            
      +                           ++*fmt;
  4279     0A24  0141               	movlb	1	; select bank1
  4280     0A25  084D               	movf	vfpfcnvrt@fmt^(0+128),w
  4281     0A26  0086               	movwf	6
  4282     0A27  0187               	clrf	7
  4283     0A28  3001               	movlw	1
  4284     0A29  0781               	addwf	1,f
  4285     0A2A  3141               	addfsr 1,1
  4286     0A2B  1803               	skipnc
  4287     0A2C  0A81               	incf	1,f
  4288     0A2D                     l3737:
  4289                           
  4290                           ;C:\Program Files\Microchip\xc8\v2.40\pic\sources\c99\common\doprnt.c: 1076:            
      +                           width = (*(int *)__va_arg(*(int **)ap, (int)0));
  4291     0A2D  084E               	movf	vfpfcnvrt@ap^(0+128),w
  4292     0A2E  0086               	movwf	6
  4293     0A2F  0187               	clrf	7
  4294     0A30  0801               	movf	1,w
  4295     0A31  0084               	movwf	4
  4296     0A32  0185               	clrf	5
  4297     0A33  3002               	movlw	2
  4298     0A34  0781               	addwf	1,f
  4299     0A35  3F00               	moviw [0]fsr0
  4300     0A36  00E6               	movwf	_width^(0+128)
  4301     0A37  3F01               	moviw [1]fsr0
  4302     0A38  00E7               	movwf	(_width+1)^(0+128)
  4303     0A39                     l3739:
  4304                           
  4305                           ;C:\Program Files\Microchip\xc8\v2.40\pic\sources\c99\common\doprnt.c: 1077:            
      +                           if (width < 0) {
  4306     0A39  1FE7               	btfss	(_width+1)^(0+128),7
  4307     0A3A  2A3C               	goto	u4701
  4308     0A3B  2A3D               	goto	u4700
  4309     0A3C                     u4701:
  4310     0A3C  2A7A               	goto	l3753
  4311     0A3D                     u4700:
  4312     0A3D                     l3741:
  4313                           
  4314                           ;C:\Program Files\Microchip\xc8\v2.40\pic\sources\c99\common\doprnt.c: 1078:            
      +                               flags |= (1 << 0);
  4315     0A3D  146A               	bsf	_flags^(0+128),0
  4316     0A3E                     l3743:
  4317                           
  4318                           ;C:\Program Files\Microchip\xc8\v2.40\pic\sources\c99\common\doprnt.c: 1079:            
      +                               width = -width;
  4319     0A3E  09E6               	comf	_width^(0+128),f
  4320     0A3F  09E7               	comf	(_width+1)^(0+128),f
  4321     0A40  0AE6               	incf	_width^(0+128),f
  4322     0A41  1903               	skipnz
  4323     0A42  0AE7               	incf	(_width+1)^(0+128),f
  4324     0A43  2A7A               	goto	l3753
  4325     0A44                     l3745:
  4326                           
  4327                           ;C:\Program Files\Microchip\xc8\v2.40\pic\sources\c99\common\doprnt.c: 1082:            
      +                           width = atoi(*fmt);
  4328     0A44  0141               	movlb	1	; select bank1
  4329     0A45  084D               	movf	vfpfcnvrt@fmt^(0+128),w
  4330     0A46  0086               	movwf	6
  4331     0A47  0187               	clrf	7
  4332     0A48  3F40               	moviw [0]fsr1
  4333     0A49  00F6               	movwf	atoi@s
  4334     0A4A  3F41               	moviw [1]fsr1
  4335     0A4B  00F7               	movwf	atoi@s+1
  4336     0A4C  3197  276C  3189   	fcall	_atoi
  4337     0A4F  0877               	movf	?_atoi+1,w
  4338     0A50  0141               	movlb	1	; select bank1
  4339     0A51  00E7               	movwf	(_width+1)^(0+128)
  4340     0A52  0876               	movf	?_atoi,w
  4341     0A53  00E6               	movwf	_width^(0+128)
  4342                           
  4343                           ;C:\Program Files\Microchip\xc8\v2.40\pic\sources\c99\common\doprnt.c: 1083:            
      +                           while ((0 && isdigit((*fmt)[0]), ((unsigned)((*fmt)[0])-'0') < 10)) {
  4344     0A54  2A5E               	goto	l3751
  4345     0A55                     l3747:
  4346                           
  4347                           ;C:\Program Files\Microchip\xc8\v2.40\pic\sources\c99\common\doprnt.c: 1084:            
      +                               ++*fmt;
  4348     0A55  0141               	movlb	1	; select bank1
  4349     0A56  084D               	movf	vfpfcnvrt@fmt^(0+128),w
  4350     0A57  0086               	movwf	6
  4351     0A58  0187               	clrf	7
  4352     0A59  3001               	movlw	1
  4353     0A5A  0781               	addwf	1,f
  4354     0A5B  3141               	addfsr 1,1
  4355     0A5C  1803               	skipnc
  4356     0A5D  0A81               	incf	1,f
  4357     0A5E                     l3751:
  4358     0A5E  084D               	movf	vfpfcnvrt@fmt^(0+128),w
  4359     0A5F  0086               	movwf	6
  4360     0A60  0187               	clrf	7
  4361     0A61  3F40               	moviw [0]fsr1
  4362     0A62  0140               	movlb	0	; select bank0
  4363     0A63  00CA               	movwf	??_vfpfcnvrt
  4364     0A64  3F41               	moviw [1]fsr1
  4365     0A65  00CB               	movwf	??_vfpfcnvrt+1
  4366     0A66  084A               	movf	??_vfpfcnvrt,w
  4367     0A67  0084               	movwf	4
  4368     0A68  084B               	movf	??_vfpfcnvrt+1,w
  4369     0A69  0085               	movwf	5
  4370     0A6A  0800               	movf	0,w	;code access
  4371     0A6B  3ED0               	addlw	208
  4372     0A6C  00CC               	movwf	??_vfpfcnvrt+2
  4373     0A6D  30FF               	movlw	255
  4374     0A6E  1803               	skipnc
  4375     0A6F  3000               	movlw	0
  4376     0A70  00CD               	movwf	??_vfpfcnvrt+3
  4377     0A71  3000               	movlw	0
  4378     0A72  024D               	subwf	??_vfpfcnvrt+3,w
  4379     0A73  300A               	movlw	10
  4380     0A74  1903               	skipnz
  4381     0A75  024C               	subwf	??_vfpfcnvrt+2,w
  4382     0A76  1C03               	skipc
  4383     0A77  2A79               	goto	u4711
  4384     0A78  2A7A               	goto	u4710
  4385     0A79                     u4711:
  4386     0A79  2A55               	goto	l3747
  4387     0A7A                     u4710:
  4388     0A7A                     l3753:
  4389                           
  4390                           ;C:\Program Files\Microchip\xc8\v2.40\pic\sources\c99\common\doprnt.c: 1091:         if 
      +                          ((*fmt)[0] == '.') {
  4391     0A7A  0141               	movlb	1	; select bank1
  4392     0A7B  084D               	movf	vfpfcnvrt@fmt^(0+128),w
  4393     0A7C  0086               	movwf	6
  4394     0A7D  0187               	clrf	7
  4395     0A7E  3F40               	moviw [0]fsr1
  4396     0A7F  0140               	movlb	0	; select bank0
  4397     0A80  00CA               	movwf	??_vfpfcnvrt
  4398     0A81  3F41               	moviw [1]fsr1
  4399     0A82  00CB               	movwf	??_vfpfcnvrt+1
  4400     0A83  084A               	movf	??_vfpfcnvrt,w
  4401     0A84  0084               	movwf	4
  4402     0A85  084B               	movf	??_vfpfcnvrt+1,w
  4403     0A86  0085               	movwf	5
  4404     0A87  0012               	moviw fsr0++
  4405     0A88  3A2E               	xorlw	46
  4406     0A89  1D03               	btfss	3,2
  4407     0A8A  2A8C               	goto	u4721
  4408     0A8B  2A8D               	goto	u4720
  4409     0A8C                     u4721:
  4410     0A8C  2AF6               	goto	l3773
  4411     0A8D                     u4720:
  4412     0A8D                     l3755:
  4413                           
  4414                           ;C:\Program Files\Microchip\xc8\v2.40\pic\sources\c99\common\doprnt.c: 1092:            
      +                           prec = 0;
  4415     0A8D  0141               	movlb	1	; select bank1
  4416     0A8E  01E8               	clrf	_prec^(0+128)
  4417     0A8F  01E9               	clrf	(_prec+1)^(0+128)
  4418     0A90                     l3757:
  4419                           
  4420                           ;C:\Program Files\Microchip\xc8\v2.40\pic\sources\c99\common\doprnt.c: 1093:            
      +                           ++*fmt;
  4421     0A90  084D               	movf	vfpfcnvrt@fmt^(0+128),w
  4422     0A91  0086               	movwf	6
  4423     0A92  0187               	clrf	7
  4424     0A93  3001               	movlw	1
  4425     0A94  0781               	addwf	1,f
  4426     0A95  3141               	addfsr 1,1
  4427     0A96  1803               	skipnc
  4428     0A97  0A81               	incf	1,f
  4429     0A98                     l3759:
  4430                           
  4431                           ;C:\Program Files\Microchip\xc8\v2.40\pic\sources\c99\common\doprnt.c: 1094:            
      +                           if ((*fmt)[0] == '*') {
  4432     0A98  084D               	movf	vfpfcnvrt@fmt^(0+128),w
  4433     0A99  0086               	movwf	6
  4434     0A9A  0187               	clrf	7
  4435     0A9B  3F40               	moviw [0]fsr1
  4436     0A9C  0140               	movlb	0	; select bank0
  4437     0A9D  00CA               	movwf	??_vfpfcnvrt
  4438     0A9E  3F41               	moviw [1]fsr1
  4439     0A9F  00CB               	movwf	??_vfpfcnvrt+1
  4440     0AA0  084A               	movf	??_vfpfcnvrt,w
  4441     0AA1  0084               	movwf	4
  4442     0AA2  084B               	movf	??_vfpfcnvrt+1,w
  4443     0AA3  0085               	movwf	5
  4444     0AA4  0012               	moviw fsr0++
  4445     0AA5  3A2A               	xorlw	42
  4446     0AA6  1D03               	btfss	3,2
  4447     0AA7  2AA9               	goto	u4731
  4448     0AA8  2AAA               	goto	u4730
  4449     0AA9                     u4731:
  4450     0AA9  2AC0               	goto	l3765
  4451     0AAA                     u4730:
  4452     0AAA                     l3761:
  4453                           
  4454                           ;C:\Program Files\Microchip\xc8\v2.40\pic\sources\c99\common\doprnt.c: 1095:            
      +                               ++*fmt;
  4455     0AAA  0141               	movlb	1	; select bank1
  4456     0AAB  084D               	movf	vfpfcnvrt@fmt^(0+128),w
  4457     0AAC  0086               	movwf	6
  4458     0AAD  0187               	clrf	7
  4459     0AAE  3001               	movlw	1
  4460     0AAF  0781               	addwf	1,f
  4461     0AB0  3141               	addfsr 1,1
  4462     0AB1  1803               	skipnc
  4463     0AB2  0A81               	incf	1,f
  4464     0AB3                     l3763:
  4465                           
  4466                           ;C:\Program Files\Microchip\xc8\v2.40\pic\sources\c99\common\doprnt.c: 1096:            
      +                               prec = (*(int *)__va_arg(*(int **)ap, (int)0));
  4467     0AB3  084E               	movf	vfpfcnvrt@ap^(0+128),w
  4468     0AB4  0086               	movwf	6
  4469     0AB5  0187               	clrf	7
  4470     0AB6  0801               	movf	1,w
  4471     0AB7  0084               	movwf	4
  4472     0AB8  0185               	clrf	5
  4473     0AB9  3002               	movlw	2
  4474     0ABA  0781               	addwf	1,f
  4475     0ABB  3F00               	moviw [0]fsr0
  4476     0ABC  00E8               	movwf	_prec^(0+128)
  4477     0ABD  3F01               	moviw [1]fsr0
  4478     0ABE  00E9               	movwf	(_prec+1)^(0+128)
  4479                           
  4480                           ;C:\Program Files\Microchip\xc8\v2.40\pic\sources\c99\common\doprnt.c: 1097:            
      +                           } else {
  4481     0ABF  2AF6               	goto	l3773
  4482     0AC0                     l3765:
  4483                           
  4484                           ;C:\Program Files\Microchip\xc8\v2.40\pic\sources\c99\common\doprnt.c: 1098:            
      +                               prec = atoi(*fmt);
  4485     0AC0  0141               	movlb	1	; select bank1
  4486     0AC1  084D               	movf	vfpfcnvrt@fmt^(0+128),w
  4487     0AC2  0086               	movwf	6
  4488     0AC3  0187               	clrf	7
  4489     0AC4  3F40               	moviw [0]fsr1
  4490     0AC5  00F6               	movwf	atoi@s
  4491     0AC6  3F41               	moviw [1]fsr1
  4492     0AC7  00F7               	movwf	atoi@s+1
  4493     0AC8  3197  276C  3189   	fcall	_atoi
  4494     0ACB  0877               	movf	?_atoi+1,w
  4495     0ACC  0141               	movlb	1	; select bank1
  4496     0ACD  00E9               	movwf	(_prec+1)^(0+128)
  4497     0ACE  0876               	movf	?_atoi,w
  4498     0ACF  00E8               	movwf	_prec^(0+128)
  4499                           
  4500                           ;C:\Program Files\Microchip\xc8\v2.40\pic\sources\c99\common\doprnt.c: 1099:            
      +                               while ((0 && isdigit((*fmt)[0]), ((unsigned)((*fmt)[0])-'0') < 10)) {
  4501     0AD0  2ADA               	goto	l3771
  4502     0AD1                     l3767:
  4503                           
  4504                           ;C:\Program Files\Microchip\xc8\v2.40\pic\sources\c99\common\doprnt.c: 1100:            
      +                                   ++*fmt;
  4505     0AD1  0141               	movlb	1	; select bank1
  4506     0AD2  084D               	movf	vfpfcnvrt@fmt^(0+128),w
  4507     0AD3  0086               	movwf	6
  4508     0AD4  0187               	clrf	7
  4509     0AD5  3001               	movlw	1
  4510     0AD6  0781               	addwf	1,f
  4511     0AD7  3141               	addfsr 1,1
  4512     0AD8  1803               	skipnc
  4513     0AD9  0A81               	incf	1,f
  4514     0ADA                     l3771:
  4515     0ADA  084D               	movf	vfpfcnvrt@fmt^(0+128),w
  4516     0ADB  0086               	movwf	6
  4517     0ADC  0187               	clrf	7
  4518     0ADD  3F40               	moviw [0]fsr1
  4519     0ADE  0140               	movlb	0	; select bank0
  4520     0ADF  00CA               	movwf	??_vfpfcnvrt
  4521     0AE0  3F41               	moviw [1]fsr1
  4522     0AE1  00CB               	movwf	??_vfpfcnvrt+1
  4523     0AE2  084A               	movf	??_vfpfcnvrt,w
  4524     0AE3  0084               	movwf	4
  4525     0AE4  084B               	movf	??_vfpfcnvrt+1,w
  4526     0AE5  0085               	movwf	5
  4527     0AE6  0800               	movf	0,w	;code access
  4528     0AE7  3ED0               	addlw	208
  4529     0AE8  00CC               	movwf	??_vfpfcnvrt+2
  4530     0AE9  30FF               	movlw	255
  4531     0AEA  1803               	skipnc
  4532     0AEB  3000               	movlw	0
  4533     0AEC  00CD               	movwf	??_vfpfcnvrt+3
  4534     0AED  3000               	movlw	0
  4535     0AEE  024D               	subwf	??_vfpfcnvrt+3,w
  4536     0AEF  300A               	movlw	10
  4537     0AF0  1903               	skipnz
  4538     0AF1  024C               	subwf	??_vfpfcnvrt+2,w
  4539     0AF2  1C03               	skipc
  4540     0AF3  2AF5               	goto	u4741
  4541     0AF4  2AF6               	goto	u4740
  4542     0AF5                     u4741:
  4543     0AF5  2AD1               	goto	l3767
  4544     0AF6                     u4740:
  4545     0AF6                     l3773:
  4546                           
  4547                           ;C:\Program Files\Microchip\xc8\v2.40\pic\sources\c99\common\doprnt.c: 1392:   cp = *fmt
      +                          ;
  4548     0AF6  0141               	movlb	1	; select bank1
  4549     0AF7  084D               	movf	vfpfcnvrt@fmt^(0+128),w
  4550     0AF8  0086               	movwf	6
  4551     0AF9  0187               	clrf	7
  4552     0AFA  3F40               	moviw [0]fsr1
  4553     0AFB  0140               	movlb	0	; select bank0
  4554     0AFC  00D8               	movwf	vfpfcnvrt@cp
  4555     0AFD  3F41               	moviw [1]fsr1
  4556     0AFE  00D9               	movwf	vfpfcnvrt@cp+1
  4557     0AFF                     l3775:
  4558                           
  4559                           ;C:\Program Files\Microchip\xc8\v2.40\pic\sources\c99\common\doprnt.c: 1393:   c = *cp;
  4560     0AFF  0858               	movf	vfpfcnvrt@cp,w
  4561     0B00  0084               	movwf	4
  4562     0B01  0859               	movf	vfpfcnvrt@cp+1,w
  4563     0B02  0085               	movwf	5
  4564     0B03  0800               	movf	0,w	;code access
  4565     0B04  00D7               	movwf	vfpfcnvrt@c
  4566                           
  4567                           ;C:\Program Files\Microchip\xc8\v2.40\pic\sources\c99\common\doprnt.c: 1394:   switch(c)
      +                           {
  4568     0B05  2B10               	goto	l3785
  4569     0B06                     l3777:
  4570                           
  4571                           ;C:\Program Files\Microchip\xc8\v2.40\pic\sources\c99\common\doprnt.c: 1398:     cp++;
  4572     0B06  3001               	movlw	1
  4573     0B07  07D8               	addwf	vfpfcnvrt@cp,f
  4574     0B08  3000               	movlw	0
  4575     0B09  3DD9               	addwfc	vfpfcnvrt@cp+1,f
  4576                           
  4577                           ;C:\Program Files\Microchip\xc8\v2.40\pic\sources\c99\common\doprnt.c: 1399:     break;
  4578     0B0A  2B23               	goto	l3787
  4579     0B0B                     l3779:
  4580                           
  4581                           ;C:\Program Files\Microchip\xc8\v2.40\pic\sources\c99\common\doprnt.c: 1424:     c = 'l'
      +                          ;
  4582     0B0B  306C               	movlw	108
  4583     0B0C  00D7               	movwf	vfpfcnvrt@c
  4584                           
  4585                           ;C:\Program Files\Microchip\xc8\v2.40\pic\sources\c99\common\doprnt.c: 1425:     break;
  4586     0B0D  2B23               	goto	l3787
  4587     0B0E                     l3781:
  4588                           
  4589                           ;C:\Program Files\Microchip\xc8\v2.40\pic\sources\c99\common\doprnt.c: 1427:     c = 0;
  4590     0B0E  01D7               	clrf	vfpfcnvrt@c
  4591                           
  4592                           ;C:\Program Files\Microchip\xc8\v2.40\pic\sources\c99\common\doprnt.c: 1428:     break;
  4593     0B0F  2B23               	goto	l3787
  4594     0B10                     l3785:
  4595     0B10  0857               	movf	vfpfcnvrt@c,w
  4596     0B11  00CA               	movwf	??_vfpfcnvrt
  4597     0B12  01CB               	clrf	??_vfpfcnvrt+1
  4598                           
  4599                           ; Switch on 2 bytes has been partitioned into a top level switch of size 1, and 1 sub-sw
      +                          itches
  4600                           ; Switch size 1, requested type "simple"
  4601                           ; Number of cases is 1, Range of values is 0 to 0
  4602                           ; switch strategies available:
  4603                           ; Name         Instructions Cycles
  4604                           ; simple_byte            4     3 (average)
  4605                           ; direct_byte            8     6 (fixed)
  4606                           ; jumptable            260     6 (fixed)
  4607                           ;	Chosen strategy is simple_byte
  4608     0B13  084B               	movf	??_vfpfcnvrt+1,w
  4609     0B14  3A00               	xorlw	0	; case 0
  4610     0B15  1903               	skipnz
  4611     0B16  2B18               	goto	l4293
  4612     0B17  2B0E               	goto	l3781
  4613     0B18                     l4293:
  4614                           
  4615                           ; Switch size 1, requested type "simple"
  4616                           ; Number of cases is 3, Range of values is 76 to 108
  4617                           ; switch strategies available:
  4618                           ; Name         Instructions Cycles
  4619                           ; simple_byte           10     6 (average)
  4620                           ; direct_byte           75     9 (fixed)
  4621                           ; jumptable            263     9 (fixed)
  4622                           ;	Chosen strategy is simple_byte
  4623     0B18  084A               	movf	??_vfpfcnvrt,w
  4624     0B19  3A4C               	xorlw	76	; case 76
  4625     0B1A  1903               	skipnz
  4626     0B1B  2B06               	goto	l3777
  4627     0B1C  3A2A               	xorlw	42	; case 102
  4628     0B1D  1903               	skipnz
  4629     0B1E  2B0B               	goto	l3779
  4630     0B1F  3A0A               	xorlw	10	; case 108
  4631     0B20  1903               	skipnz
  4632     0B21  2B06               	goto	l3777
  4633     0B22  2B0E               	goto	l3781
  4634     0B23                     l3787:
  4635     0B23  0858               	movf	vfpfcnvrt@cp,w
  4636     0B24  0084               	movwf	4
  4637     0B25  0859               	movf	vfpfcnvrt@cp+1,w
  4638     0B26  0085               	movwf	5
  4639     0B27  0012               	moviw fsr0++
  4640     0B28  3A66               	xorlw	102
  4641     0B29  1D03               	btfss	3,2
  4642     0B2A  2B2C               	goto	u4751
  4643     0B2B  2B2D               	goto	u4750
  4644     0B2C                     u4751:
  4645     0B2C  2B98               	goto	l3807
  4646     0B2D                     u4750:
  4647     0B2D  2B54               	goto	l3795
  4648     0B2E                     l3789:
  4649                           
  4650                           ;C:\Program Files\Microchip\xc8\v2.40\pic\sources\c99\common\doprnt.c: 1459:      convar
      +                          g.f = (long double)(*(double *)__va_arg(*(double **)ap, (double)0));
  4651     0B2E  0141               	movlb	1	; select bank1
  4652     0B2F  084E               	movf	vfpfcnvrt@ap^(0+128),w
  4653     0B30  0086               	movwf	6
  4654     0B31  0187               	clrf	7
  4655     0B32  0801               	movf	1,w
  4656     0B33  0084               	movwf	4
  4657     0B34  0185               	clrf	5
  4658     0B35  3004               	movlw	4
  4659     0B36  0781               	addwf	1,f
  4660     0B37  3F00               	moviw [0]fsr0
  4661     0B38  0140               	movlb	0	; select bank0
  4662     0B39  00CE               	movwf	vfpfcnvrt@convarg
  4663     0B3A  3F01               	moviw [1]fsr0
  4664     0B3B  00CF               	movwf	vfpfcnvrt@convarg+1
  4665     0B3C  3F02               	moviw [2]fsr0
  4666     0B3D  00D0               	movwf	vfpfcnvrt@convarg+2
  4667     0B3E  3F03               	moviw [3]fsr0
  4668     0B3F  00D1               	movwf	vfpfcnvrt@convarg+3
  4669                           
  4670                           ;C:\Program Files\Microchip\xc8\v2.40\pic\sources\c99\common\doprnt.c: 1460:      break;
  4671     0B40  2B64               	goto	l3797
  4672     0B41                     l3791:
  4673                           
  4674                           ;C:\Program Files\Microchip\xc8\v2.40\pic\sources\c99\common\doprnt.c: 1462:      convar
      +                          g.f = (long double)(*(long double *)__va_arg(*(long double **)ap, (long double)0));
  4675     0B41  0141               	movlb	1	; select bank1
  4676     0B42  084E               	movf	vfpfcnvrt@ap^(0+128),w
  4677     0B43  0086               	movwf	6
  4678     0B44  0187               	clrf	7
  4679     0B45  0801               	movf	1,w
  4680     0B46  0084               	movwf	4
  4681     0B47  0185               	clrf	5
  4682     0B48  3004               	movlw	4
  4683     0B49  0781               	addwf	1,f
  4684     0B4A  3F00               	moviw [0]fsr0
  4685     0B4B  0140               	movlb	0	; select bank0
  4686     0B4C  00CE               	movwf	vfpfcnvrt@convarg
  4687     0B4D  3F01               	moviw [1]fsr0
  4688     0B4E  00CF               	movwf	vfpfcnvrt@convarg+1
  4689     0B4F  3F02               	moviw [2]fsr0
  4690     0B50  00D0               	movwf	vfpfcnvrt@convarg+2
  4691     0B51  3F03               	moviw [3]fsr0
  4692     0B52  00D1               	movwf	vfpfcnvrt@convarg+3
  4693                           
  4694                           ;C:\Program Files\Microchip\xc8\v2.40\pic\sources\c99\common\doprnt.c: 1463:      break;
  4695     0B53  2B64               	goto	l3797
  4696     0B54                     l3795:
  4697     0B54  0857               	movf	vfpfcnvrt@c,w
  4698     0B55  00CA               	movwf	??_vfpfcnvrt
  4699     0B56  01CB               	clrf	??_vfpfcnvrt+1
  4700                           
  4701                           ; Switch on 2 bytes has been partitioned into a top level switch of size 1, and 1 sub-sw
      +                          itches
  4702                           ; Switch size 1, requested type "simple"
  4703                           ; Number of cases is 1, Range of values is 0 to 0
  4704                           ; switch strategies available:
  4705                           ; Name         Instructions Cycles
  4706                           ; simple_byte            4     3 (average)
  4707                           ; direct_byte            8     6 (fixed)
  4708                           ; jumptable            260     6 (fixed)
  4709                           ;	Chosen strategy is simple_byte
  4710     0B57  084B               	movf	??_vfpfcnvrt+1,w
  4711     0B58  3A00               	xorlw	0	; case 0
  4712     0B59  1903               	skipnz
  4713     0B5A  2B5C               	goto	l4295
  4714     0B5B  2B64               	goto	l3797
  4715     0B5C                     l4295:
  4716                           
  4717                           ; Switch size 1, requested type "simple"
  4718                           ; Number of cases is 2, Range of values is 76 to 108
  4719                           ; switch strategies available:
  4720                           ; Name         Instructions Cycles
  4721                           ; simple_byte            7     4 (average)
  4722                           ; direct_byte           75     9 (fixed)
  4723                           ; jumptable            263     9 (fixed)
  4724                           ;	Chosen strategy is simple_byte
  4725     0B5C  084A               	movf	??_vfpfcnvrt,w
  4726     0B5D  3A4C               	xorlw	76	; case 76
  4727     0B5E  1903               	skipnz
  4728     0B5F  2B41               	goto	l3791
  4729     0B60  3A20               	xorlw	32	; case 108
  4730     0B61  1903               	skipnz
  4731     0B62  2B2E               	goto	l3789
  4732     0B63  2B64               	goto	l3797
  4733     0B64                     l3797:
  4734                           
  4735                           ;C:\Program Files\Microchip\xc8\v2.40\pic\sources\c99\common\doprnt.c: 1465:    *fmt = c
      +                          p+1;
  4736     0B64  0858               	movf	vfpfcnvrt@cp,w
  4737     0B65  3E01               	addlw	1
  4738     0B66  00CA               	movwf	??_vfpfcnvrt
  4739     0B67  3000               	movlw	0
  4740     0B68  3D59               	addwfc	vfpfcnvrt@cp+1,w
  4741     0B69  00CB               	movwf	??_vfpfcnvrt+1
  4742     0B6A  0141               	movlb	1	; select bank1
  4743     0B6B  084D               	movf	vfpfcnvrt@fmt^(0+128),w
  4744     0B6C  0086               	movwf	6
  4745     0B6D  0187               	clrf	7
  4746     0B6E  0140               	movlb	0	; select bank0
  4747     0B6F  084A               	movf	??_vfpfcnvrt,w
  4748     0B70  3FC0               	movwi [0]fsr1
  4749     0B71  084B               	movf	??_vfpfcnvrt+1,w
  4750     0B72  3FC1               	movwi [1]fsr1
  4751                           
  4752                           ;C:\Program Files\Microchip\xc8\v2.40\pic\sources\c99\common\doprnt.c: 1466:    switch (
      +                          *cp) {
  4753     0B73  2B87               	goto	l3805
  4754     0B74                     l3799:
  4755                           
  4756                           ;C:\Program Files\Microchip\xc8\v2.40\pic\sources\c99\common\doprnt.c: 1493:      return
      +                           (void) efgtoa(fp, convarg.f, *cp);;	Return value of _vfpfcnvrt is never used
  4757     0B74  0851               	movf	vfpfcnvrt@convarg+3,w
  4758     0B75  00C4               	movwf	efgtoa@f+3
  4759     0B76  0850               	movf	vfpfcnvrt@convarg+2,w
  4760     0B77  00C3               	movwf	efgtoa@f+2
  4761     0B78  084F               	movf	vfpfcnvrt@convarg+1,w
  4762     0B79  00C2               	movwf	efgtoa@f+1
  4763     0B7A  084E               	movf	vfpfcnvrt@convarg,w
  4764     0B7B  00C1               	movwf	efgtoa@f
  4765     0B7C  0858               	movf	vfpfcnvrt@cp,w
  4766     0B7D  0084               	movwf	4
  4767     0B7E  0859               	movf	vfpfcnvrt@cp+1,w
  4768     0B7F  0085               	movwf	5
  4769     0B80  0800               	movf	0,w	;code access
  4770     0B81  00C5               	movwf	efgtoa@c
  4771     0B82  0856               	movf	vfpfcnvrt@fp,w
  4772     0B83  3181  21AD  3189   	fcall	_efgtoa
  4773     0B86  2BBC               	goto	l1046
  4774     0B87                     l3805:
  4775     0B87  0858               	movf	vfpfcnvrt@cp,w
  4776     0B88  0084               	movwf	4
  4777     0B89  0859               	movf	vfpfcnvrt@cp+1,w
  4778     0B8A  0085               	movwf	5
  4779     0B8B  0800               	movf	0,w	;code access
  4780     0B8C  00CA               	movwf	??_vfpfcnvrt
  4781     0B8D  01CB               	clrf	??_vfpfcnvrt+1
  4782                           
  4783                           ; Switch on 2 bytes has been partitioned into a top level switch of size 1, and 1 sub-sw
      +                          itches
  4784                           ; Switch size 1, requested type "simple"
  4785                           ; Number of cases is 1, Range of values is 0 to 0
  4786                           ; switch strategies available:
  4787                           ; Name         Instructions Cycles
  4788                           ; simple_byte            4     3 (average)
  4789                           ; direct_byte            8     6 (fixed)
  4790                           ; jumptable            260     6 (fixed)
  4791                           ;	Chosen strategy is simple_byte
  4792     0B8E  084B               	movf	??_vfpfcnvrt+1,w
  4793     0B8F  3A00               	xorlw	0	; case 0
  4794     0B90  1903               	skipnz
  4795     0B91  2B93               	goto	l4297
  4796     0B92  2B98               	goto	l3807
  4797     0B93                     l4297:
  4798                           
  4799                           ; Switch size 1, requested type "simple"
  4800                           ; Number of cases is 1, Range of values is 102 to 102
  4801                           ; switch strategies available:
  4802                           ; Name         Instructions Cycles
  4803                           ; simple_byte            4     3 (average)
  4804                           ; direct_byte           11     9 (fixed)
  4805                           ; jumptable            263     9 (fixed)
  4806                           ;	Chosen strategy is simple_byte
  4807     0B93  084A               	movf	??_vfpfcnvrt,w
  4808     0B94  3A66               	xorlw	102	; case 102
  4809     0B95  1903               	skipnz
  4810     0B96  2B74               	goto	l3799
  4811     0B97  2B98               	goto	l3807
  4812     0B98                     l3807:
  4813                           
  4814                           ;C:\Program Files\Microchip\xc8\v2.40\pic\sources\c99\common\doprnt.c: 1509:         ++*
      +                          fmt;
  4815     0B98  0141               	movlb	1	; select bank1
  4816     0B99  084D               	movf	vfpfcnvrt@fmt^(0+128),w
  4817     0B9A  0086               	movwf	6
  4818     0B9B  0187               	clrf	7
  4819     0B9C  3001               	movlw	1
  4820     0B9D  0781               	addwf	1,f
  4821     0B9E  3141               	addfsr 1,1
  4822     0B9F  1803               	skipnc
  4823     0BA0  0A81               	incf	1,f
  4824     0BA1  2BBC               	goto	l1046
  4825     0BA2                     l3811:
  4826                           
  4827                           ;C:\Program Files\Microchip\xc8\v2.40\pic\sources\c99\common\doprnt.c: 1514:     fputc((
      +                          int)(*fmt)[0], fp);
  4828     0BA2  0141               	movlb	1	; select bank1
  4829     0BA3  084D               	movf	vfpfcnvrt@fmt^(0+128),w
  4830     0BA4  0086               	movwf	6
  4831     0BA5  0187               	clrf	7
  4832     0BA6  3F40               	moviw [0]fsr1
  4833     0BA7  0140               	movlb	0	; select bank0
  4834     0BA8  00CA               	movwf	??_vfpfcnvrt
  4835     0BA9  3F41               	moviw [1]fsr1
  4836     0BAA  00CB               	movwf	??_vfpfcnvrt+1
  4837     0BAB  084A               	movf	??_vfpfcnvrt,w
  4838     0BAC  0084               	movwf	4
  4839     0BAD  084B               	movf	??_vfpfcnvrt+1,w
  4840     0BAE  0085               	movwf	5
  4841     0BAF  0800               	movf	0,w	;code access
  4842     0BB0  00CC               	movwf	??_vfpfcnvrt+2
  4843     0BB1  01CD               	clrf	??_vfpfcnvrt+3
  4844     0BB2  084C               	movf	??_vfpfcnvrt+2,w
  4845     0BB3  00F4               	movwf	fputc@c
  4846     0BB4  084D               	movf	??_vfpfcnvrt+3,w
  4847     0BB5  00F5               	movwf	fputc@c+1
  4848     0BB6  0856               	movf	vfpfcnvrt@fp,w
  4849     0BB7  00F6               	movwf	fputc@fp
  4850     0BB8  3194  241C  3189   	fcall	_fputc
  4851     0BBB  2B98               	goto	l3807
  4852     0BBC                     l1046:
  4853     0BBC  0008               	return
  4854     0BBD                     __end_of_vfpfcnvrt:
  4855                           
  4856                           	psect	text4
  4857     01AD                     __ptext4:	
  4858 ;; *************** function _efgtoa *****************
  4859 ;; Defined at:
  4860 ;;		line 506 in file "C:\Program Files\Microchip\xc8\v2.40\pic\sources\c99\common\doprnt.c"
  4861 ;; Parameters:    Size  Location     Type
  4862 ;;  fp              1    wreg     PTR struct _IO_FILE
  4863 ;;		 -> sprintf@f(10), 
  4864 ;;  f               4   33[BANK0 ] PTR struct _IO_FILE
  4865 ;;  c               1   37[BANK0 ] unsigned char 
  4866 ;; Auto vars:     Size  Location     Type
  4867 ;;  fp              1   15[BANK1 ] PTR struct _IO_FILE
  4868 ;;		 -> sprintf@f(10), 
  4869 ;;  u               4   41[BANK1 ] struct flui
  4870 ;;  g               4   37[BANK1 ] struct flui
  4871 ;;  l               4   30[BANK1 ] struct flui
  4872 ;;  h               4   26[BANK1 ] struct flui
  4873 ;;  ou              4   20[BANK1 ] struct flui
  4874 ;;  n               2   35[BANK1 ] int 
  4875 ;;  i               2   24[BANK1 ] int 
  4876 ;;  w               2   18[BANK1 ] int 
  4877 ;;  e               2   16[BANK1 ] int 
  4878 ;;  m               2   13[BANK1 ] int 
  4879 ;;  d               2   11[BANK1 ] int 
  4880 ;;  t               2    4[BANK1 ] int 
  4881 ;;  p               2    2[BANK1 ] int 
  4882 ;;  ne              2    0[BANK1 ] int 
  4883 ;;  sign            1   34[BANK1 ] unsigned char 
  4884 ;;  nmode           1   10[BANK1 ] unsigned char 
  4885 ;;  mode            1    9[BANK1 ] unsigned char 
  4886 ;;  pp              1    8[BANK1 ] unsigned char 
  4887 ;;  esign           1    0        unsigned char 
  4888 ;; Return value:  Size  Location     Type
  4889 ;;                  1    wreg      void 
  4890 ;; Registers used:
  4891 ;;		wreg, fsr0l, fsr0h, fsr1l, fsr1h, status,2, status,0, pclath, cstack
  4892 ;; Tracked objects:
  4893 ;;		On entry : 0/0
  4894 ;;		On exit  : 0/0
  4895 ;;		Unchanged: 0/0
  4896 ;; Data sizes:     COMMON   BANK0   BANK1   BANK2   BANK3   BANK4   BANK5   BANK6   BANK7   BANK8   BANK9  BANK10  BANK1
      +1  BANK12  BANK13  BANK14  BANK15  BANK16  BANK17  BANK18  BANK19  BANK20  BANK21  BANK22  BANK23  BANK24  BANK25  BANK2
      +6  BANK27  BANK28  BANK29  BANK30  BANK31  BANK32  BANK33  BANK34  BANK35  BANK36  BANK37  BANK38  BANK39  BANK40  BANK4
      +1  BANK42  BANK43  BANK44  BANK45  BANK46  BANK47  BANK48  BANK49  BANK50
  4897 ;;      Params:         0       5       0       0       0       0       0       0       0       0       0       0       
      +0       0       0       0       0       0       0       0       0       0       0       0       0       0       0       
      +0       0       0       0       0       0       0       0       0       0       0       0       0       0       0       
      +0       0       0       0       0       0       0       0       0       0
  4898 ;;      Locals:         0       0      45       0       0       0       0       0       0       0       0       0       
      +0       0       0       0       0       0       0       0       0       0       0       0       0       0       0       
      +0       0       0       0       0       0       0       0       0       0       0       0       0       0       0       
      +0       0       0       0       0       0       0       0       0       0
  4899 ;;      Temps:          0       4       0       0       0       0       0       0       0       0       0       0       
      +0       0       0       0       0       0       0       0       0       0       0       0       0       0       0       
      +0       0       0       0       0       0       0       0       0       0       0       0       0       0       0       
      +0       0       0       0       0       0       0       0       0       0
  4900 ;;      Totals:         0       9      45       0       0       0       0       0       0       0       0       0       
      +0       0       0       0       0       0       0       0       0       0       0       0       0       0       0       
      +0       0       0       0       0       0       0       0       0       0       0       0       0       0       0       
      +0       0       0       0       0       0       0       0       0       0
  4901 ;;Total ram usage:       54 bytes
  4902 ;; Hardware stack levels used: 1
  4903 ;; Hardware stack levels required when called: 6
  4904 ;; This function calls:
  4905 ;;		___fladd
  4906 ;;		___fldiv
  4907 ;;		___fleq
  4908 ;;		___flge
  4909 ;;		___flmul
  4910 ;;		___flneg
  4911 ;;		___flsub
  4912 ;;		___fltol
  4913 ;;		___fpclassifyf
  4914 ;;		_floorf
  4915 ;;		_labs
  4916 ;;		_memcpy
  4917 ;;		_pad
  4918 ;;		_strcpy
  4919 ;; This function is called by:
  4920 ;;		_vfpfcnvrt
  4921 ;; This function uses a non-reentrant model
  4922 ;;
  4923                           
  4924     01AD                     _efgtoa:	
  4925                           ;psect for function _efgtoa
  4926                           
  4927                           
  4928                           ;incstack = 0
  4929                           ; Regs used in _efgtoa: [wreg-fsr1h+status,2+status,0+pclath+cstack]
  4930                           ;efgtoa@fp stored from wreg
  4931     01AD  0141               	movlb	1	; select bank1
  4932     01AE  00AF               	movwf	efgtoa@fp^(0+128)
  4933     01AF                     l3473:
  4934                           
  4935                           ;C:\Program Files\Microchip\xc8\v2.40\pic\sources\c99\common\doprnt.c: 506: static void 
      +                          efgtoa(FILE *fp, long double f, char c);C:\Program Files\Microchip\xc8\v2.40\pic\sources
      +                          \c99\common\doprnt.c: 507: {;C:\Program Files\Microchip\xc8\v2.40\pic\sources\c99\common
      +                          \doprnt.c: 508:     char mode, nmode, pp, sign, esign;;C:\Program Files\Microchip\xc8\v2
      +                          .40\pic\sources\c99\common\doprnt.c: 509:     int d, e, i, m, n, ne, p, t, w;;C:\Program
      +                           Files\Microchip\xc8\v2.40\pic\sources\c99\common\doprnt.c: 510:     long double h, l;
  4936     01AF  01C2               	clrf	efgtoa@sign^(0+128)
  4937     01B0                     l3475:
  4938                           
  4939                           ;C:\Program Files\Microchip\xc8\v2.40\pic\sources\c99\common\doprnt.c: 515:     g.f = f;
  4940     01B0  0140               	movlb	0	; select bank0
  4941     01B1  0844               	movf	efgtoa@f+3,w
  4942     01B2  0141               	movlb	1	; select bank1
  4943     01B3  00C8               	movwf	(efgtoa@g+3)^(0+128)
  4944     01B4  0140               	movlb	0	; select bank0
  4945     01B5  0843               	movf	efgtoa@f+2,w
  4946     01B6  0141               	movlb	1	; select bank1
  4947     01B7  00C7               	movwf	(efgtoa@g+2)^(0+128)
  4948     01B8  0140               	movlb	0	; select bank0
  4949     01B9  0842               	movf	efgtoa@f+1,w
  4950     01BA  0141               	movlb	1	; select bank1
  4951     01BB  00C6               	movwf	(efgtoa@g+1)^(0+128)
  4952     01BC  0140               	movlb	0	; select bank0
  4953     01BD  0841               	movf	efgtoa@f,w
  4954     01BE  0141               	movlb	1	; select bank1
  4955     01BF  00C5               	movwf	efgtoa@g^(0+128)
  4956     01C0                     l3477:
  4957                           
  4958                           ;C:\Program Files\Microchip\xc8\v2.40\pic\sources\c99\common\doprnt.c: 516:     if (g.f 
      +                          < 0.0) {
  4959     01C0  0848               	movf	(efgtoa@g+3)^(0+128),w
  4960     01C1  0140               	movlb	0	; select bank0
  4961     01C2  00B8               	movwf	___flge@ff1+3
  4962     01C3  0141               	movlb	1	; select bank1
  4963     01C4  0847               	movf	(efgtoa@g+2)^(0+128),w
  4964     01C5  0140               	movlb	0	; select bank0
  4965     01C6  00B7               	movwf	___flge@ff1+2
  4966     01C7  0141               	movlb	1	; select bank1
  4967     01C8  0846               	movf	(efgtoa@g+1)^(0+128),w
  4968     01C9  0140               	movlb	0	; select bank0
  4969     01CA  00B6               	movwf	___flge@ff1+1
  4970     01CB  0141               	movlb	1	; select bank1
  4971     01CC  0845               	movf	efgtoa@g^(0+128),w
  4972     01CD  0140               	movlb	0	; select bank0
  4973     01CE  00B5               	movwf	___flge@ff1
  4974     01CF  3000               	movlw	0
  4975     01D0  00BC               	movwf	___flge@ff2+3
  4976     01D1  3000               	movlw	0
  4977     01D2  00BB               	movwf	___flge@ff2+2
  4978     01D3  3000               	movlw	0
  4979     01D4  00BA               	movwf	___flge@ff2+1
  4980     01D5  3000               	movlw	0
  4981     01D6  00B9               	movwf	___flge@ff2
  4982     01D7  3196  26E1  3181   	fcall	___flge
  4983     01DA  1803               	btfsc	3,0
  4984     01DB  29DD               	goto	u4271
  4985     01DC  29DE               	goto	u4270
  4986     01DD                     u4271:
  4987     01DD  29F5               	goto	l3483
  4988     01DE                     u4270:
  4989     01DE                     l3479:
  4990                           
  4991                           ;C:\Program Files\Microchip\xc8\v2.40\pic\sources\c99\common\doprnt.c: 517:         sign
      +                           = 1;
  4992     01DE  0141               	movlb	1	; select bank1
  4993     01DF  01C2               	clrf	efgtoa@sign^(0+128)
  4994     01E0  0AC2               	incf	efgtoa@sign^(0+128),f
  4995     01E1                     l3481:
  4996                           
  4997                           ;C:\Program Files\Microchip\xc8\v2.40\pic\sources\c99\common\doprnt.c: 518:         g.f 
      +                          = -g.f;
  4998     01E1  0848               	movf	(efgtoa@g+3)^(0+128),w
  4999     01E2  00F3               	movwf	___flneg@f1+3
  5000     01E3  0847               	movf	(efgtoa@g+2)^(0+128),w
  5001     01E4  00F2               	movwf	___flneg@f1+2
  5002     01E5  0846               	movf	(efgtoa@g+1)^(0+128),w
  5003     01E6  00F1               	movwf	___flneg@f1+1
  5004     01E7  0845               	movf	efgtoa@g^(0+128),w
  5005     01E8  00F0               	movwf	___flneg@f1
  5006     01E9  3190  20D4  3181   	fcall	___flneg
  5007     01EC  0873               	movf	?___flneg+3,w
  5008     01ED  0141               	movlb	1	; select bank1
  5009     01EE  00C8               	movwf	(efgtoa@g+3)^(0+128)
  5010     01EF  0872               	movf	?___flneg+2,w
  5011     01F0  00C7               	movwf	(efgtoa@g+2)^(0+128)
  5012     01F1  0871               	movf	?___flneg+1,w
  5013     01F2  00C6               	movwf	(efgtoa@g+1)^(0+128)
  5014     01F3  0870               	movf	?___flneg,w
  5015     01F4  00C5               	movwf	efgtoa@g^(0+128)
  5016     01F5                     l3483:
  5017                           
  5018                           ;C:\Program Files\Microchip\xc8\v2.40\pic\sources\c99\common\doprnt.c: 522:     n = 0;
  5019     01F5  0141               	movlb	1	; select bank1
  5020     01F6  01C3               	clrf	efgtoa@n^(0+128)
  5021     01F7  01C4               	clrf	(efgtoa@n+1)^(0+128)
  5022     01F8                     l3485:
  5023                           
  5024                           ;C:\Program Files\Microchip\xc8\v2.40\pic\sources\c99\common\doprnt.c: 523:     w = widt
      +                          h;
  5025     01F8  0867               	movf	(_width+1)^(0+128),w
  5026     01F9  00B3               	movwf	(efgtoa@w+1)^(0+128)
  5027     01FA  0866               	movf	_width^(0+128),w
  5028     01FB  00B2               	movwf	efgtoa@w^(0+128)
  5029     01FC                     l3487:
  5030                           
  5031                           ;C:\Program Files\Microchip\xc8\v2.40\pic\sources\c99\common\doprnt.c: 524:     if (sign
  5032     01FC  0842               	movf	efgtoa@sign^(0+128),w
  5033     01FD  1903               	btfsc	3,2
  5034     01FE  2A00               	goto	u4281
  5035     01FF  2A01               	goto	u4280
  5036     0200                     u4281:
  5037     0200  2A11               	goto	l3495
  5038     0201                     u4280:
  5039     0201                     l3489:
  5040                           
  5041                           ;C:\Program Files\Microchip\xc8\v2.40\pic\sources\c99\common\doprnt.c: 528:    ) {;C:\Pr
      +                          ogram Files\Microchip\xc8\v2.40\pic\sources\c99\common\doprnt.c: 529:   sign = sign ? '-
      +                          ' : '+';
  5042     0201  0842               	movf	efgtoa@sign^(0+128),w
  5043     0202  1D03               	btfss	3,2
  5044     0203  2A05               	goto	u4291
  5045     0204  2A06               	goto	u4290
  5046     0205                     u4291:
  5047     0205  2A0B               	goto	l3493
  5048     0206                     u4290:
  5049     0206                     l3491:
  5050     0206  302B               	movlw	43
  5051     0207  00A6               	movwf	_efgtoa$1032^(0+128)
  5052     0208  3000               	movlw	0
  5053     0209  00A7               	movwf	(_efgtoa$1032^(0+128)+1)
  5054     020A  2A0F               	goto	l967
  5055     020B                     l3493:
  5056     020B  302D               	movlw	45
  5057     020C  00A6               	movwf	_efgtoa$1032^(0+128)
  5058     020D  3000               	movlw	0
  5059     020E  00A7               	movwf	(_efgtoa$1032^(0+128)+1)
  5060     020F                     l967:
  5061     020F  0826               	movf	_efgtoa$1032^(0+128),w
  5062     0210  00C2               	movwf	efgtoa@sign^(0+128)
  5063     0211                     l3495:
  5064                           
  5065                           ;C:\Program Files\Microchip\xc8\v2.40\pic\sources\c99\common\doprnt.c: 538:     if (( __
      +                          fpclassifyf(g.f) == 1 )) {
  5066     0211  0848               	movf	(efgtoa@g+3)^(0+128),w
  5067     0212  00F3               	movwf	___fpclassifyf@x+3
  5068     0213  0847               	movf	(efgtoa@g+2)^(0+128),w
  5069     0214  00F2               	movwf	___fpclassifyf@x+2
  5070     0215  0846               	movf	(efgtoa@g+1)^(0+128),w
  5071     0216  00F1               	movwf	___fpclassifyf@x+1
  5072     0217  0845               	movf	efgtoa@g^(0+128),w
  5073     0218  00F0               	movwf	___fpclassifyf@x
  5074     0219  3195  25E0  3181   	fcall	___fpclassifyf
  5075     021C  0370               	decf	?___fpclassifyf,w
  5076     021D  0471               	iorwf	?___fpclassifyf+1,w
  5077     021E  1D03               	btfss	3,2
  5078     021F  2A21               	goto	u4301
  5079     0220  2A22               	goto	u4300
  5080     0221                     u4301:
  5081     0221  2A53               	goto	l3507
  5082     0222                     u4300:
  5083     0222                     l3497:
  5084                           
  5085                           ;C:\Program Files\Microchip\xc8\v2.40\pic\sources\c99\common\doprnt.c: 539:   if (sign) 
      +                          {
  5086     0222  0141               	movlb	1	; select bank1
  5087     0223  0842               	movf	efgtoa@sign^(0+128),w
  5088     0224  1903               	btfsc	3,2
  5089     0225  2A27               	goto	u4311
  5090     0226  2A28               	goto	u4310
  5091     0227                     u4311:
  5092     0227  2A34               	goto	l3501
  5093     0228                     u4310:
  5094     0228                     l3499:
  5095                           
  5096                           ;C:\Program Files\Microchip\xc8\v2.40\pic\sources\c99\common\doprnt.c: 540:    dbuf[0] =
      +                           sign;
  5097     0228  0842               	movf	efgtoa@sign^(0+128),w
  5098     0229  0143               	movlb	3	; select bank3
  5099     022A  00A0               	movwf	_dbuf^(0+384)
  5100                           
  5101                           ;C:\Program Files\Microchip\xc8\v2.40\pic\sources\c99\common\doprnt.c: 541:    w--;
  5102     022B  30FF               	movlw	255
  5103     022C  0141               	movlb	1	; select bank1
  5104     022D  07B2               	addwf	efgtoa@w^(0+128),f
  5105     022E  30FF               	movlw	255
  5106     022F  3DB3               	addwfc	(efgtoa@w+1)^(0+128),f
  5107                           
  5108                           ;C:\Program Files\Microchip\xc8\v2.40\pic\sources\c99\common\doprnt.c: 542:    n = 1;
  5109     0230  3001               	movlw	1
  5110     0231  00C3               	movwf	efgtoa@n^(0+128)
  5111     0232  3000               	movlw	0
  5112     0233  00C4               	movwf	(efgtoa@n^(0+128)+1)
  5113     0234                     l3501:
  5114                           
  5115                           ;C:\Program Files\Microchip\xc8\v2.40\pic\sources\c99\common\doprnt.c: 550:   {;C:\Progr
      +                          am Files\Microchip\xc8\v2.40\pic\sources\c99\common\doprnt.c: 551:             strcpy(&d
      +                          buf[n], "inf");
  5116     0234  300B               	movlw	low (STR_2| (0+32768))
  5117     0235  00F0               	movwf	strcpy@src
  5118     0236  3098               	movlw	high (STR_2| (0+32768))
  5119     0237  00F1               	movwf	strcpy@src+1
  5120     0238  0843               	movf	efgtoa@n^(0+128),w
  5121     0239  3EA0               	addlw	(low (_dbuf| (0+256)))& (0+255)
  5122     023A  3191  21E3  3181   	fcall	_strcpy
  5123     023D                     l3503:
  5124                           
  5125                           ;C:\Program Files\Microchip\xc8\v2.40\pic\sources\c99\common\doprnt.c: 552:         };C:
      +                          \Program Files\Microchip\xc8\v2.40\pic\sources\c99\common\doprnt.c: 553:         w -= ((
      +                          sizeof("inf")/sizeof("inf"[0]))-1);
  5126     023D  30FD               	movlw	253
  5127     023E  0141               	movlb	1	; select bank1
  5128     023F  07B2               	addwf	efgtoa@w^(0+128),f
  5129     0240  30FF               	movlw	255
  5130     0241  3DB3               	addwfc	(efgtoa@w+1)^(0+128),f
  5131                           
  5132                           ;C:\Program Files\Microchip\xc8\v2.40\pic\sources\c99\common\doprnt.c: 554:         retu
      +                          rn (void) pad(fp, &dbuf[0], w);
  5133     0242  30A0               	movlw	(low (_dbuf| (0+256)))& (0+255)
  5134     0243  0140               	movlb	0	; select bank0
  5135     0244  00A6               	movwf	pad@buf
  5136     0245  0141               	movlb	1	; select bank1
  5137     0246  0833               	movf	(efgtoa@w+1)^(0+128),w
  5138     0247  0140               	movlb	0	; select bank0
  5139     0248  00A8               	movwf	pad@p+1
  5140     0249  0141               	movlb	1	; select bank1
  5141     024A  0832               	movf	efgtoa@w^(0+128),w
  5142     024B  0140               	movlb	0	; select bank0
  5143     024C  00A7               	movwf	pad@p
  5144     024D  0141               	movlb	1	; select bank1
  5145     024E  082F               	movf	efgtoa@fp^(0+128),w
  5146     024F  3193  2387  3181   	fcall	_pad
  5147     0252  2FD4               	goto	l970
  5148     0253                     l3507:
  5149                           
  5150                           ;C:\Program Files\Microchip\xc8\v2.40\pic\sources\c99\common\doprnt.c: 556:     if (( __
      +                          fpclassifyf(g.f) == 0 )) {
  5151     0253  0141               	movlb	1	; select bank1
  5152     0254  0848               	movf	(efgtoa@g+3)^(0+128),w
  5153     0255  00F3               	movwf	___fpclassifyf@x+3
  5154     0256  0847               	movf	(efgtoa@g+2)^(0+128),w
  5155     0257  00F2               	movwf	___fpclassifyf@x+2
  5156     0258  0846               	movf	(efgtoa@g+1)^(0+128),w
  5157     0259  00F1               	movwf	___fpclassifyf@x+1
  5158     025A  0845               	movf	efgtoa@g^(0+128),w
  5159     025B  00F0               	movwf	___fpclassifyf@x
  5160     025C  3195  25E0  3181   	fcall	___fpclassifyf
  5161     025F  0870               	movf	?___fpclassifyf,w
  5162     0260  0471               	iorwf	?___fpclassifyf+1,w
  5163     0261  1D03               	btfss	3,2
  5164     0262  2A64               	goto	u4321
  5165     0263  2A65               	goto	u4320
  5166     0264                     u4321:
  5167     0264  2A96               	goto	l3519
  5168     0265                     u4320:
  5169     0265                     l3509:
  5170                           
  5171                           ;C:\Program Files\Microchip\xc8\v2.40\pic\sources\c99\common\doprnt.c: 557:   if (sign) 
      +                          {
  5172     0265  0141               	movlb	1	; select bank1
  5173     0266  0842               	movf	efgtoa@sign^(0+128),w
  5174     0267  1903               	btfsc	3,2
  5175     0268  2A6A               	goto	u4331
  5176     0269  2A6B               	goto	u4330
  5177     026A                     u4331:
  5178     026A  2A77               	goto	l3513
  5179     026B                     u4330:
  5180     026B                     l3511:
  5181                           
  5182                           ;C:\Program Files\Microchip\xc8\v2.40\pic\sources\c99\common\doprnt.c: 558:    dbuf[0] =
      +                           sign;
  5183     026B  0842               	movf	efgtoa@sign^(0+128),w
  5184     026C  0143               	movlb	3	; select bank3
  5185     026D  00A0               	movwf	_dbuf^(0+384)
  5186                           
  5187                           ;C:\Program Files\Microchip\xc8\v2.40\pic\sources\c99\common\doprnt.c: 559:    w--;
  5188     026E  30FF               	movlw	255
  5189     026F  0141               	movlb	1	; select bank1
  5190     0270  07B2               	addwf	efgtoa@w^(0+128),f
  5191     0271  30FF               	movlw	255
  5192     0272  3DB3               	addwfc	(efgtoa@w+1)^(0+128),f
  5193                           
  5194                           ;C:\Program Files\Microchip\xc8\v2.40\pic\sources\c99\common\doprnt.c: 560:    n = 1;
  5195     0273  3001               	movlw	1
  5196     0274  00C3               	movwf	efgtoa@n^(0+128)
  5197     0275  3000               	movlw	0
  5198     0276  00C4               	movwf	(efgtoa@n^(0+128)+1)
  5199     0277                     l3513:
  5200                           
  5201                           ;C:\Program Files\Microchip\xc8\v2.40\pic\sources\c99\common\doprnt.c: 568:   {;C:\Progr
      +                          am Files\Microchip\xc8\v2.40\pic\sources\c99\common\doprnt.c: 569:             strcpy(&d
      +                          buf[n], "nan");
  5202     0277  300F               	movlw	low (STR_5| (0+32768))
  5203     0278  00F0               	movwf	strcpy@src
  5204     0279  3098               	movlw	high (STR_5| (0+32768))
  5205     027A  00F1               	movwf	strcpy@src+1
  5206     027B  0843               	movf	efgtoa@n^(0+128),w
  5207     027C  3EA0               	addlw	(low (_dbuf| (0+256)))& (0+255)
  5208     027D  3191  21E3  3181   	fcall	_strcpy
  5209     0280                     l3515:
  5210                           
  5211                           ;C:\Program Files\Microchip\xc8\v2.40\pic\sources\c99\common\doprnt.c: 570:         };C:
      +                          \Program Files\Microchip\xc8\v2.40\pic\sources\c99\common\doprnt.c: 571:         w -= ((
      +                          sizeof("nan")/sizeof("nan"[0]))-1);
  5212     0280  30FD               	movlw	253
  5213     0281  0141               	movlb	1	; select bank1
  5214     0282  07B2               	addwf	efgtoa@w^(0+128),f
  5215     0283  30FF               	movlw	255
  5216     0284  3DB3               	addwfc	(efgtoa@w+1)^(0+128),f
  5217                           
  5218                           ;C:\Program Files\Microchip\xc8\v2.40\pic\sources\c99\common\doprnt.c: 572:         retu
      +                          rn (void) pad(fp, &dbuf[0], w);
  5219     0285  30A0               	movlw	(low (_dbuf| (0+256)))& (0+255)
  5220     0286  0140               	movlb	0	; select bank0
  5221     0287  00A6               	movwf	pad@buf
  5222     0288  0141               	movlb	1	; select bank1
  5223     0289  0833               	movf	(efgtoa@w+1)^(0+128),w
  5224     028A  0140               	movlb	0	; select bank0
  5225     028B  00A8               	movwf	pad@p+1
  5226     028C  0141               	movlb	1	; select bank1
  5227     028D  0832               	movf	efgtoa@w^(0+128),w
  5228     028E  0140               	movlb	0	; select bank0
  5229     028F  00A7               	movwf	pad@p
  5230     0290  0141               	movlb	1	; select bank1
  5231     0291  082F               	movf	efgtoa@fp^(0+128),w
  5232     0292  3193  2387  3181   	fcall	_pad
  5233     0295  2FD4               	goto	l970
  5234     0296                     l3519:
  5235                           
  5236                           ;C:\Program Files\Microchip\xc8\v2.40\pic\sources\c99\common\doprnt.c: 576:     u.f = 1.
      +                          0;
  5237     0296  303F               	movlw	63
  5238     0297  0141               	movlb	1	; select bank1
  5239     0298  00CC               	movwf	(efgtoa@u+3)^(0+128)
  5240     0299  3080               	movlw	128
  5241     029A  00CB               	movwf	(efgtoa@u+2)^(0+128)
  5242     029B  3000               	movlw	0
  5243     029C  00CA               	movwf	(efgtoa@u+1)^(0+128)
  5244     029D  3000               	movlw	0
  5245     029E  00C9               	movwf	efgtoa@u^(0+128)
  5246     029F                     l3521:
  5247                           
  5248                           ;C:\Program Files\Microchip\xc8\v2.40\pic\sources\c99\common\doprnt.c: 577:     e = 0;
  5249     029F  01B0               	clrf	efgtoa@e^(0+128)
  5250     02A0  01B1               	clrf	(efgtoa@e+1)^(0+128)
  5251     02A1                     l3523:
  5252                           
  5253                           ;C:\Program Files\Microchip\xc8\v2.40\pic\sources\c99\common\doprnt.c: 578:  if (!(g.f =
      +                          = 0.0)) {
  5254     02A1  0848               	movf	(efgtoa@g+3)^(0+128),w
  5255     02A2  00F3               	movwf	___fleq@ff1+3
  5256     02A3  0847               	movf	(efgtoa@g+2)^(0+128),w
  5257     02A4  00F2               	movwf	___fleq@ff1+2
  5258     02A5  0846               	movf	(efgtoa@g+1)^(0+128),w
  5259     02A6  00F1               	movwf	___fleq@ff1+1
  5260     02A7  0845               	movf	efgtoa@g^(0+128),w
  5261     02A8  00F0               	movwf	___fleq@ff1
  5262     02A9  3000               	movlw	0
  5263     02AA  00F7               	movwf	___fleq@ff2+3
  5264     02AB  3000               	movlw	0
  5265     02AC  00F6               	movwf	___fleq@ff2+2
  5266     02AD  3000               	movlw	0
  5267     02AE  00F5               	movwf	___fleq@ff2+1
  5268     02AF  3000               	movlw	0
  5269     02B0  00F4               	movwf	___fleq@ff2
  5270     02B1  3193  23CE  3181   	fcall	___fleq
  5271     02B4  1803               	btfsc	3,0
  5272     02B5  2AB7               	goto	u4341
  5273     02B6  2AB8               	goto	u4340
  5274     02B7                     u4341:
  5275     02B7  2BFA               	goto	l3549
  5276     02B8                     u4340:
  5277     02B8  2AC6               	goto	l3529
  5278     02B9                     l3527:
  5279                           
  5280                           ;C:\Program Files\Microchip\xc8\v2.40\pic\sources\c99\common\doprnt.c: 580:    u = ou;
  5281     02B9  0141               	movlb	1	; select bank1
  5282     02BA  0837               	movf	(efgtoa@ou+3)^(0+128),w
  5283     02BB  00CC               	movwf	(efgtoa@u+3)^(0+128)
  5284     02BC  0836               	movf	(efgtoa@ou+2)^(0+128),w
  5285     02BD  00CB               	movwf	(efgtoa@u+2)^(0+128)
  5286     02BE  0835               	movf	(efgtoa@ou+1)^(0+128),w
  5287     02BF  00CA               	movwf	(efgtoa@u+1)^(0+128)
  5288     02C0  0834               	movf	efgtoa@ou^(0+128),w
  5289     02C1  00C9               	movwf	efgtoa@u^(0+128)
  5290                           
  5291                           ;C:\Program Files\Microchip\xc8\v2.40\pic\sources\c99\common\doprnt.c: 581:    ++e;
  5292     02C2  3001               	movlw	1
  5293     02C3  07B0               	addwf	efgtoa@e^(0+128),f
  5294     02C4  3000               	movlw	0
  5295     02C5  3DB1               	addwfc	(efgtoa@e+1)^(0+128),f
  5296     02C6                     l3529:
  5297                           
  5298                           ;C:\Program Files\Microchip\xc8\v2.40\pic\sources\c99\common\doprnt.c: 579:   while ((la
      +                          bs((g).u-((ou.f = u.f*10.0,ou)).u) <= 1) || g.f > ou.f) {
  5299     02C6  3041               	movlw	65
  5300     02C7  0140               	movlb	0	; select bank0
  5301     02C8  00A3               	movwf	___flmul@b+3
  5302     02C9  3020               	movlw	32
  5303     02CA  00A2               	movwf	___flmul@b+2
  5304     02CB  3000               	movlw	0
  5305     02CC  00A1               	movwf	___flmul@b+1
  5306     02CD  3000               	movlw	0
  5307     02CE  00A0               	movwf	___flmul@b
  5308     02CF  0141               	movlb	1	; select bank1
  5309     02D0  084C               	movf	(efgtoa@u+3)^(0+128),w
  5310     02D1  0140               	movlb	0	; select bank0
  5311     02D2  00A7               	movwf	___flmul@a+3
  5312     02D3  0141               	movlb	1	; select bank1
  5313     02D4  084B               	movf	(efgtoa@u+2)^(0+128),w
  5314     02D5  0140               	movlb	0	; select bank0
  5315     02D6  00A6               	movwf	___flmul@a+2
  5316     02D7  0141               	movlb	1	; select bank1
  5317     02D8  084A               	movf	(efgtoa@u+1)^(0+128),w
  5318     02D9  0140               	movlb	0	; select bank0
  5319     02DA  00A5               	movwf	___flmul@a+1
  5320     02DB  0141               	movlb	1	; select bank1
  5321     02DC  0849               	movf	efgtoa@u^(0+128),w
  5322     02DD  0140               	movlb	0	; select bank0
  5323     02DE  00A4               	movwf	___flmul@a
  5324     02DF  318D  25C5  3181   	fcall	___flmul
  5325     02E2  0140               	movlb	0	; select bank0
  5326     02E3  0823               	movf	?___flmul+3,w
  5327     02E4  0141               	movlb	1	; select bank1
  5328     02E5  00B7               	movwf	(efgtoa@ou+3)^(0+128)
  5329     02E6  0140               	movlb	0	; select bank0
  5330     02E7  0822               	movf	?___flmul+2,w
  5331     02E8  0141               	movlb	1	; select bank1
  5332     02E9  00B6               	movwf	(efgtoa@ou+2)^(0+128)
  5333     02EA  0140               	movlb	0	; select bank0
  5334     02EB  0821               	movf	?___flmul+1,w
  5335     02EC  0141               	movlb	1	; select bank1
  5336     02ED  00B5               	movwf	(efgtoa@ou+1)^(0+128)
  5337     02EE  0140               	movlb	0	; select bank0
  5338     02EF  0820               	movf	?___flmul,w
  5339     02F0  0141               	movlb	1	; select bank1
  5340     02F1  00B4               	movwf	efgtoa@ou^(0+128)
  5341     02F2                     l3531:
  5342     02F2  0834               	movf	efgtoa@ou^(0+128),w
  5343     02F3  0245               	subwf	efgtoa@g^(0+128),w
  5344     02F4  0140               	movlb	0	; select bank0
  5345     02F5  00C6               	movwf	??_efgtoa
  5346     02F6  0141               	movlb	1	; select bank1
  5347     02F7  0835               	movf	(efgtoa@ou+1)^(0+128),w
  5348     02F8  3B46               	subwfb	(efgtoa@g+1)^(0+128),w
  5349     02F9  0140               	movlb	0	; select bank0
  5350     02FA  00C7               	movwf	??_efgtoa+1
  5351     02FB  0141               	movlb	1	; select bank1
  5352     02FC  0836               	movf	(efgtoa@ou+2)^(0+128),w
  5353     02FD  3B47               	subwfb	(efgtoa@g+2)^(0+128),w
  5354     02FE  0140               	movlb	0	; select bank0
  5355     02FF  00C8               	movwf	??_efgtoa+2
  5356     0300  0141               	movlb	1	; select bank1
  5357     0301  0837               	movf	(efgtoa@ou+3)^(0+128),w
  5358     0302  3B48               	subwfb	(efgtoa@g+3)^(0+128),w
  5359     0303  0140               	movlb	0	; select bank0
  5360     0304  00C9               	movwf	??_efgtoa+3
  5361     0305  0849               	movf	??_efgtoa+3,w
  5362     0306  00F3               	movwf	labs@a+3
  5363     0307  0848               	movf	??_efgtoa+2,w
  5364     0308  00F2               	movwf	labs@a+2
  5365     0309  0847               	movf	??_efgtoa+1,w
  5366     030A  00F1               	movwf	labs@a+1
  5367     030B  0846               	movf	??_efgtoa,w
  5368     030C  00F0               	movwf	labs@a
  5369     030D  3192  2243  3181   	fcall	_labs
  5370     0310  1BF3               	btfsc	?_labs+3,7
  5371     0311  2B20               	goto	u4351
  5372     0312  0873               	movf	?_labs+3,w
  5373     0313  1D03               	btfss	3,2
  5374     0314  2B21               	goto	u4350
  5375     0315  0872               	movf	?_labs+2,w
  5376     0316  1D03               	btfss	3,2
  5377     0317  2B21               	goto	u4350
  5378     0318  0871               	movf	?_labs+1,w
  5379     0319  1D03               	btfss	3,2
  5380     031A  2B21               	goto	u4350
  5381     031B  3002               	movlw	2
  5382     031C  0270               	subwf	?_labs,w
  5383     031D  1C03               	btfss	3,0
  5384     031E  2B20               	goto	u4351
  5385     031F  2B21               	goto	u4350
  5386     0320                     u4351:
  5387     0320  2AB9               	goto	l3527
  5388     0321                     u4350:
  5389     0321                     l3533:
  5390     0321  0141               	movlb	1	; select bank1
  5391     0322  0837               	movf	(efgtoa@ou+3)^(0+128),w
  5392     0323  0140               	movlb	0	; select bank0
  5393     0324  00B8               	movwf	___flge@ff1+3
  5394     0325  0141               	movlb	1	; select bank1
  5395     0326  0836               	movf	(efgtoa@ou+2)^(0+128),w
  5396     0327  0140               	movlb	0	; select bank0
  5397     0328  00B7               	movwf	___flge@ff1+2
  5398     0329  0141               	movlb	1	; select bank1
  5399     032A  0835               	movf	(efgtoa@ou+1)^(0+128),w
  5400     032B  0140               	movlb	0	; select bank0
  5401     032C  00B6               	movwf	___flge@ff1+1
  5402     032D  0141               	movlb	1	; select bank1
  5403     032E  0834               	movf	efgtoa@ou^(0+128),w
  5404     032F  0140               	movlb	0	; select bank0
  5405     0330  00B5               	movwf	___flge@ff1
  5406     0331  0141               	movlb	1	; select bank1
  5407     0332  0848               	movf	(efgtoa@g+3)^(0+128),w
  5408     0333  0140               	movlb	0	; select bank0
  5409     0334  00BC               	movwf	___flge@ff2+3
  5410     0335  0141               	movlb	1	; select bank1
  5411     0336  0847               	movf	(efgtoa@g+2)^(0+128),w
  5412     0337  0140               	movlb	0	; select bank0
  5413     0338  00BB               	movwf	___flge@ff2+2
  5414     0339  0141               	movlb	1	; select bank1
  5415     033A  0846               	movf	(efgtoa@g+1)^(0+128),w
  5416     033B  0140               	movlb	0	; select bank0
  5417     033C  00BA               	movwf	___flge@ff2+1
  5418     033D  0141               	movlb	1	; select bank1
  5419     033E  0845               	movf	efgtoa@g^(0+128),w
  5420     033F  0140               	movlb	0	; select bank0
  5421     0340  00B9               	movwf	___flge@ff2
  5422     0341  3196  26E1  3181   	fcall	___flge
  5423     0344  1C03               	btfss	3,0
  5424     0345  2B47               	goto	u4361
  5425     0346  2B48               	goto	u4360
  5426     0347                     u4361:
  5427     0347  2AB9               	goto	l3527
  5428     0348                     u4360:
  5429     0348                     l3535:
  5430                           
  5431                           ;C:\Program Files\Microchip\xc8\v2.40\pic\sources\c99\common\doprnt.c: 583:   if ((labs(
      +                          (g).u-(u).u) <= 1)) {
  5432     0348  0141               	movlb	1	; select bank1
  5433     0349  0849               	movf	efgtoa@u^(0+128),w
  5434     034A  0245               	subwf	efgtoa@g^(0+128),w
  5435     034B  0140               	movlb	0	; select bank0
  5436     034C  00C6               	movwf	??_efgtoa
  5437     034D  0141               	movlb	1	; select bank1
  5438     034E  084A               	movf	(efgtoa@u+1)^(0+128),w
  5439     034F  3B46               	subwfb	(efgtoa@g+1)^(0+128),w
  5440     0350  0140               	movlb	0	; select bank0
  5441     0351  00C7               	movwf	??_efgtoa+1
  5442     0352  0141               	movlb	1	; select bank1
  5443     0353  084B               	movf	(efgtoa@u+2)^(0+128),w
  5444     0354  3B47               	subwfb	(efgtoa@g+2)^(0+128),w
  5445     0355  0140               	movlb	0	; select bank0
  5446     0356  00C8               	movwf	??_efgtoa+2
  5447     0357  0141               	movlb	1	; select bank1
  5448     0358  084C               	movf	(efgtoa@u+3)^(0+128),w
  5449     0359  3B48               	subwfb	(efgtoa@g+3)^(0+128),w
  5450     035A  0140               	movlb	0	; select bank0
  5451     035B  00C9               	movwf	??_efgtoa+3
  5452     035C  0849               	movf	??_efgtoa+3,w
  5453     035D  00F3               	movwf	labs@a+3
  5454     035E  0848               	movf	??_efgtoa+2,w
  5455     035F  00F2               	movwf	labs@a+2
  5456     0360  0847               	movf	??_efgtoa+1,w
  5457     0361  00F1               	movwf	labs@a+1
  5458     0362  0846               	movf	??_efgtoa,w
  5459     0363  00F0               	movwf	labs@a
  5460     0364  3192  2243  3181   	fcall	_labs
  5461     0367  1BF3               	btfsc	?_labs+3,7
  5462     0368  2B78               	goto	u4370
  5463     0369  0873               	movf	?_labs+3,w
  5464     036A  1D03               	btfss	3,2
  5465     036B  2B77               	goto	u4371
  5466     036C  0872               	movf	?_labs+2,w
  5467     036D  1D03               	btfss	3,2
  5468     036E  2B77               	goto	u4371
  5469     036F  0871               	movf	?_labs+1,w
  5470     0370  1D03               	btfss	3,2
  5471     0371  2B77               	goto	u4371
  5472     0372  3002               	movlw	2
  5473     0373  0270               	subwf	?_labs,w
  5474     0374  1803               	btfsc	3,0
  5475     0375  2B77               	goto	u4371
  5476     0376  2B78               	goto	u4370
  5477     0377                     u4371:
  5478     0377  2BD3               	goto	l3547
  5479     0378                     u4370:
  5480     0378                     l3537:
  5481                           
  5482                           ;C:\Program Files\Microchip\xc8\v2.40\pic\sources\c99\common\doprnt.c: 584:    g = u;
  5483     0378  0141               	movlb	1	; select bank1
  5484     0379  084C               	movf	(efgtoa@u+3)^(0+128),w
  5485     037A  00C8               	movwf	(efgtoa@g+3)^(0+128)
  5486     037B  084B               	movf	(efgtoa@u+2)^(0+128),w
  5487     037C  00C7               	movwf	(efgtoa@g+2)^(0+128)
  5488     037D  084A               	movf	(efgtoa@u+1)^(0+128),w
  5489     037E  00C6               	movwf	(efgtoa@g+1)^(0+128)
  5490     037F  0849               	movf	efgtoa@u^(0+128),w
  5491     0380  00C5               	movwf	efgtoa@g^(0+128)
  5492                           
  5493                           ;C:\Program Files\Microchip\xc8\v2.40\pic\sources\c99\common\doprnt.c: 585:   }
  5494     0381  2BFA               	goto	l3549
  5495     0382                     l3539:
  5496                           
  5497                           ;C:\Program Files\Microchip\xc8\v2.40\pic\sources\c99\common\doprnt.c: 588:     u.f = u.
      +                          f/10.0;
  5498     0382  3041               	movlw	65
  5499     0383  00F3               	movwf	___fldiv@a+3
  5500     0384  3020               	movlw	32
  5501     0385  00F2               	movwf	___fldiv@a+2
  5502     0386  3000               	movlw	0
  5503     0387  00F1               	movwf	___fldiv@a+1
  5504     0388  3000               	movlw	0
  5505     0389  00F0               	movwf	___fldiv@a
  5506     038A  0141               	movlb	1	; select bank1
  5507     038B  084C               	movf	(efgtoa@u+3)^(0+128),w
  5508     038C  00F7               	movwf	___fldiv@b+3
  5509     038D  084B               	movf	(efgtoa@u+2)^(0+128),w
  5510     038E  00F6               	movwf	___fldiv@b+2
  5511     038F  084A               	movf	(efgtoa@u+1)^(0+128),w
  5512     0390  00F5               	movwf	___fldiv@b+1
  5513     0391  0849               	movf	efgtoa@u^(0+128),w
  5514     0392  00F4               	movwf	___fldiv@b
  5515     0393  3188  203F  3181   	fcall	___fldiv
  5516     0396  0873               	movf	?___fldiv+3,w
  5517     0397  0141               	movlb	1	; select bank1
  5518     0398  00CC               	movwf	(efgtoa@u+3)^(0+128)
  5519     0399  0872               	movf	?___fldiv+2,w
  5520     039A  00CB               	movwf	(efgtoa@u+2)^(0+128)
  5521     039B  0871               	movf	?___fldiv+1,w
  5522     039C  00CA               	movwf	(efgtoa@u+1)^(0+128)
  5523     039D  0870               	movf	?___fldiv,w
  5524     039E  00C9               	movwf	efgtoa@u^(0+128)
  5525     039F                     l3541:
  5526                           
  5527                           ;C:\Program Files\Microchip\xc8\v2.40\pic\sources\c99\common\doprnt.c: 589:     --e;
  5528     039F  30FF               	movlw	255
  5529     03A0  07B0               	addwf	efgtoa@e^(0+128),f
  5530     03A1  30FF               	movlw	255
  5531     03A2  3DB1               	addwfc	(efgtoa@e+1)^(0+128),f
  5532     03A3                     l3543:
  5533                           
  5534                           ;C:\Program Files\Microchip\xc8\v2.40\pic\sources\c99\common\doprnt.c: 590:     if ((lab
      +                          s((g).u-(u).u) <= 1)) {
  5535     03A3  0849               	movf	efgtoa@u^(0+128),w
  5536     03A4  0245               	subwf	efgtoa@g^(0+128),w
  5537     03A5  0140               	movlb	0	; select bank0
  5538     03A6  00C6               	movwf	??_efgtoa
  5539     03A7  0141               	movlb	1	; select bank1
  5540     03A8  084A               	movf	(efgtoa@u+1)^(0+128),w
  5541     03A9  3B46               	subwfb	(efgtoa@g+1)^(0+128),w
  5542     03AA  0140               	movlb	0	; select bank0
  5543     03AB  00C7               	movwf	??_efgtoa+1
  5544     03AC  0141               	movlb	1	; select bank1
  5545     03AD  084B               	movf	(efgtoa@u+2)^(0+128),w
  5546     03AE  3B47               	subwfb	(efgtoa@g+2)^(0+128),w
  5547     03AF  0140               	movlb	0	; select bank0
  5548     03B0  00C8               	movwf	??_efgtoa+2
  5549     03B1  0141               	movlb	1	; select bank1
  5550     03B2  084C               	movf	(efgtoa@u+3)^(0+128),w
  5551     03B3  3B48               	subwfb	(efgtoa@g+3)^(0+128),w
  5552     03B4  0140               	movlb	0	; select bank0
  5553     03B5  00C9               	movwf	??_efgtoa+3
  5554     03B6  0849               	movf	??_efgtoa+3,w
  5555     03B7  00F3               	movwf	labs@a+3
  5556     03B8  0848               	movf	??_efgtoa+2,w
  5557     03B9  00F2               	movwf	labs@a+2
  5558     03BA  0847               	movf	??_efgtoa+1,w
  5559     03BB  00F1               	movwf	labs@a+1
  5560     03BC  0846               	movf	??_efgtoa,w
  5561     03BD  00F0               	movwf	labs@a
  5562     03BE  3192  2243  3181   	fcall	_labs
  5563     03C1  1BF3               	btfsc	?_labs+3,7
  5564     03C2  2BD2               	goto	u4380
  5565     03C3  0873               	movf	?_labs+3,w
  5566     03C4  1D03               	btfss	3,2
  5567     03C5  2BD1               	goto	u4381
  5568     03C6  0872               	movf	?_labs+2,w
  5569     03C7  1D03               	btfss	3,2
  5570     03C8  2BD1               	goto	u4381
  5571     03C9  0871               	movf	?_labs+1,w
  5572     03CA  1D03               	btfss	3,2
  5573     03CB  2BD1               	goto	u4381
  5574     03CC  3002               	movlw	2
  5575     03CD  0270               	subwf	?_labs,w
  5576     03CE  1803               	btfsc	3,0
  5577     03CF  2BD1               	goto	u4381
  5578     03D0  2BD2               	goto	u4380
  5579     03D1                     u4381:
  5580     03D1  2BD3               	goto	l3547
  5581     03D2                     u4380:
  5582     03D2  2B78               	goto	l3537
  5583     03D3                     l3547:
  5584                           
  5585                           ;C:\Program Files\Microchip\xc8\v2.40\pic\sources\c99\common\doprnt.c: 587:    while (g.
      +                          f < u.f) {
  5586     03D3  0141               	movlb	1	; select bank1
  5587     03D4  0848               	movf	(efgtoa@g+3)^(0+128),w
  5588     03D5  0140               	movlb	0	; select bank0
  5589     03D6  00B8               	movwf	___flge@ff1+3
  5590     03D7  0141               	movlb	1	; select bank1
  5591     03D8  0847               	movf	(efgtoa@g+2)^(0+128),w
  5592     03D9  0140               	movlb	0	; select bank0
  5593     03DA  00B7               	movwf	___flge@ff1+2
  5594     03DB  0141               	movlb	1	; select bank1
  5595     03DC  0846               	movf	(efgtoa@g+1)^(0+128),w
  5596     03DD  0140               	movlb	0	; select bank0
  5597     03DE  00B6               	movwf	___flge@ff1+1
  5598     03DF  0141               	movlb	1	; select bank1
  5599     03E0  0845               	movf	efgtoa@g^(0+128),w
  5600     03E1  0140               	movlb	0	; select bank0
  5601     03E2  00B5               	movwf	___flge@ff1
  5602     03E3  0141               	movlb	1	; select bank1
  5603     03E4  084C               	movf	(efgtoa@u+3)^(0+128),w
  5604     03E5  0140               	movlb	0	; select bank0
  5605     03E6  00BC               	movwf	___flge@ff2+3
  5606     03E7  0141               	movlb	1	; select bank1
  5607     03E8  084B               	movf	(efgtoa@u+2)^(0+128),w
  5608     03E9  0140               	movlb	0	; select bank0
  5609     03EA  00BB               	movwf	___flge@ff2+2
  5610     03EB  0141               	movlb	1	; select bank1
  5611     03EC  084A               	movf	(efgtoa@u+1)^(0+128),w
  5612     03ED  0140               	movlb	0	; select bank0
  5613     03EE  00BA               	movwf	___flge@ff2+1
  5614     03EF  0141               	movlb	1	; select bank1
  5615     03F0  0849               	movf	efgtoa@u^(0+128),w
  5616     03F1  0140               	movlb	0	; select bank0
  5617     03F2  00B9               	movwf	___flge@ff2
  5618     03F3  3196  26E1  3181   	fcall	___flge
  5619     03F6  1C03               	btfss	3,0
  5620     03F7  2BF9               	goto	u4391
  5621     03F8  2BFA               	goto	u4390
  5622     03F9                     u4391:
  5623     03F9  2B82               	goto	l3539
  5624     03FA                     u4390:
  5625     03FA                     l3549:
  5626                           
  5627                           ;C:\Program Files\Microchip\xc8\v2.40\pic\sources\c99\common\doprnt.c: 602:  mode = c;
  5628     03FA  0140               	movlb	0	; select bank0
  5629     03FB  0845               	movf	efgtoa@c,w
  5630     03FC  0141               	movlb	1	; select bank1
  5631     03FD  00A9               	movwf	efgtoa@mode^(0+128)
  5632                           
  5633                           ;C:\Program Files\Microchip\xc8\v2.40\pic\sources\c99\common\doprnt.c: 604:     nmode = 
      +                          mode;
  5634     03FE  0829               	movf	efgtoa@mode^(0+128),w
  5635     03FF  00AA               	movwf	efgtoa@nmode^(0+128)
  5636     0400                     l3551:
  5637                           
  5638                           ;C:\Program Files\Microchip\xc8\v2.40\pic\sources\c99\common\doprnt.c: 614:  {;C:\Progra
      +                          m Files\Microchip\xc8\v2.40\pic\sources\c99\common\doprnt.c: 615:         p = (prec < 0)
      +                           ? 6 : prec;
  5639     0400  1BE9               	btfsc	(_prec+1)^(0+128),7
  5640     0401  2C03               	goto	u4401
  5641     0402  2C04               	goto	u4400
  5642     0403                     u4401:
  5643     0403  2C09               	goto	l3555
  5644     0404                     u4400:
  5645     0404                     l3553:
  5646     0404  0869               	movf	(_prec+1)^(0+128),w
  5647     0405  00A3               	movwf	(efgtoa@p+1)^(0+128)
  5648     0406  0868               	movf	_prec^(0+128),w
  5649     0407  00A2               	movwf	efgtoa@p^(0+128)
  5650     0408  2C0D               	goto	l986
  5651     0409                     l3555:
  5652     0409  3006               	movlw	6
  5653     040A  00A2               	movwf	efgtoa@p^(0+128)
  5654     040B  3000               	movlw	0
  5655     040C  00A3               	movwf	(efgtoa@p^(0+128)+1)
  5656     040D                     l986:
  5657                           
  5658                           ;C:\Program Files\Microchip\xc8\v2.40\pic\sources\c99\common\doprnt.c: 616:     };C:\Pro
      +                          gram Files\Microchip\xc8\v2.40\pic\sources\c99\common\doprnt.c: 630:     m = p;
  5659     040D  0823               	movf	(efgtoa@p+1)^(0+128),w
  5660     040E  00AE               	movwf	(efgtoa@m+1)^(0+128)
  5661     040F  0822               	movf	efgtoa@p^(0+128),w
  5662     0410  00AD               	movwf	efgtoa@m^(0+128)
  5663                           
  5664                           ;C:\Program Files\Microchip\xc8\v2.40\pic\sources\c99\common\doprnt.c: 634:  {;C:\Progra
      +                          m Files\Microchip\xc8\v2.40\pic\sources\c99\common\doprnt.c: 635:         ++m;
  5665     0411  3001               	movlw	1
  5666     0412  07AD               	addwf	efgtoa@m^(0+128),f
  5667     0413  3000               	movlw	0
  5668     0414  3DAE               	addwfc	(efgtoa@m+1)^(0+128),f
  5669     0415                     l3557:
  5670                           
  5671                           ;C:\Program Files\Microchip\xc8\v2.40\pic\sources\c99\common\doprnt.c: 636:     };C:\Pro
      +                          gram Files\Microchip\xc8\v2.40\pic\sources\c99\common\doprnt.c: 640:     if (nmode == 'f
      +                          ') {
  5672     0415  3066               	movlw	102
  5673     0416  062A               	xorwf	efgtoa@nmode^(0+128),w
  5674     0417  1D03               	btfss	3,2
  5675     0418  2C1A               	goto	u4411
  5676     0419  2C1B               	goto	u4410
  5677     041A                     u4411:
  5678     041A  2C33               	goto	l3569
  5679     041B                     u4410:
  5680     041B                     l3559:
  5681                           
  5682                           ;C:\Program Files\Microchip\xc8\v2.40\pic\sources\c99\common\doprnt.c: 641:         if (
      +                          e < 0) {
  5683     041B  1FB1               	btfss	(efgtoa@e+1)^(0+128),7
  5684     041C  2C1E               	goto	u4421
  5685     041D  2C1F               	goto	u4420
  5686     041E                     u4421:
  5687     041E  2C29               	goto	l3565
  5688     041F                     u4420:
  5689     041F                     l3561:
  5690                           
  5691                           ;C:\Program Files\Microchip\xc8\v2.40\pic\sources\c99\common\doprnt.c: 642:             
      +                          u.f = 1.0;
  5692     041F  303F               	movlw	63
  5693     0420  00CC               	movwf	(efgtoa@u+3)^(0+128)
  5694     0421  3080               	movlw	128
  5695     0422  00CB               	movwf	(efgtoa@u+2)^(0+128)
  5696     0423  3000               	movlw	0
  5697     0424  00CA               	movwf	(efgtoa@u+1)^(0+128)
  5698     0425  3000               	movlw	0
  5699     0426  00C9               	movwf	efgtoa@u^(0+128)
  5700     0427                     l3563:
  5701                           
  5702                           ;C:\Program Files\Microchip\xc8\v2.40\pic\sources\c99\common\doprnt.c: 643:             
      +                          e = 0;
  5703     0427  01B0               	clrf	efgtoa@e^(0+128)
  5704     0428  01B1               	clrf	(efgtoa@e+1)^(0+128)
  5705     0429                     l3565:
  5706                           
  5707                           ;C:\Program Files\Microchip\xc8\v2.40\pic\sources\c99\common\doprnt.c: 645:         if (
      +                          !(mode == 'g')) {
  5708     0429  3067               	movlw	103
  5709     042A  0629               	xorwf	efgtoa@mode^(0+128),w
  5710     042B  1903               	btfsc	3,2
  5711     042C  2C2E               	goto	u4431
  5712     042D  2C2F               	goto	u4430
  5713     042E                     u4431:
  5714     042E  2C33               	goto	l3569
  5715     042F                     u4430:
  5716     042F                     l3567:
  5717                           
  5718                           ;C:\Program Files\Microchip\xc8\v2.40\pic\sources\c99\common\doprnt.c: 646:             
      +                          m += e;
  5719     042F  0830               	movf	efgtoa@e^(0+128),w
  5720     0430  07AD               	addwf	efgtoa@m^(0+128),f
  5721     0431  0831               	movf	(efgtoa@e+1)^(0+128),w
  5722     0432  3DAE               	addwfc	(efgtoa@m+1)^(0+128),f
  5723     0433                     l3569:
  5724                           
  5725                           ;C:\Program Files\Microchip\xc8\v2.40\pic\sources\c99\common\doprnt.c: 652:     i = 0;
  5726     0433  01B8               	clrf	efgtoa@i^(0+128)
  5727     0434  01B9               	clrf	(efgtoa@i+1)^(0+128)
  5728     0435                     l3571:
  5729                           
  5730                           ;C:\Program Files\Microchip\xc8\v2.40\pic\sources\c99\common\doprnt.c: 653:     h = g.f;
  5731     0435  0848               	movf	(efgtoa@g+3)^(0+128),w
  5732     0436  00BD               	movwf	(efgtoa@h+3)^(0+128)
  5733     0437  0847               	movf	(efgtoa@g+2)^(0+128),w
  5734     0438  00BC               	movwf	(efgtoa@h+2)^(0+128)
  5735     0439  0846               	movf	(efgtoa@g+1)^(0+128),w
  5736     043A  00BB               	movwf	(efgtoa@h+1)^(0+128)
  5737     043B  0845               	movf	efgtoa@g^(0+128),w
  5738     043C  00BA               	movwf	efgtoa@h^(0+128)
  5739     043D                     l3573:
  5740                           
  5741                           ;C:\Program Files\Microchip\xc8\v2.40\pic\sources\c99\common\doprnt.c: 654:     ou = u;
  5742     043D  084C               	movf	(efgtoa@u+3)^(0+128),w
  5743     043E  00B7               	movwf	(efgtoa@ou+3)^(0+128)
  5744     043F  084B               	movf	(efgtoa@u+2)^(0+128),w
  5745     0440  00B6               	movwf	(efgtoa@ou+2)^(0+128)
  5746     0441  084A               	movf	(efgtoa@u+1)^(0+128),w
  5747     0442  00B5               	movwf	(efgtoa@ou+1)^(0+128)
  5748     0443  0849               	movf	efgtoa@u^(0+128),w
  5749     0444  00B4               	movwf	efgtoa@ou^(0+128)
  5750                           
  5751                           ;C:\Program Files\Microchip\xc8\v2.40\pic\sources\c99\common\doprnt.c: 655:     while (i
      +                           < m) {
  5752     0445  2CF4               	goto	l3579
  5753     0446                     l3575:
  5754                           
  5755                           ;C:\Program Files\Microchip\xc8\v2.40\pic\sources\c99\common\doprnt.c: 656:         l = 
      +                          floorf(h/u.f);
  5756     0446  0141               	movlb	1	; select bank1
  5757     0447  084C               	movf	(efgtoa@u+3)^(0+128),w
  5758     0448  00F3               	movwf	___fldiv@a+3
  5759     0449  084B               	movf	(efgtoa@u+2)^(0+128),w
  5760     044A  00F2               	movwf	___fldiv@a+2
  5761     044B  084A               	movf	(efgtoa@u+1)^(0+128),w
  5762     044C  00F1               	movwf	___fldiv@a+1
  5763     044D  0849               	movf	efgtoa@u^(0+128),w
  5764     044E  00F0               	movwf	___fldiv@a
  5765     044F  083D               	movf	(efgtoa@h+3)^(0+128),w
  5766     0450  00F7               	movwf	___fldiv@b+3
  5767     0451  083C               	movf	(efgtoa@h+2)^(0+128),w
  5768     0452  00F6               	movwf	___fldiv@b+2
  5769     0453  083B               	movf	(efgtoa@h+1)^(0+128),w
  5770     0454  00F5               	movwf	___fldiv@b+1
  5771     0455  083A               	movf	efgtoa@h^(0+128),w
  5772     0456  00F4               	movwf	___fldiv@b
  5773     0457  3188  203F  3181   	fcall	___fldiv
  5774     045A  0873               	movf	?___fldiv+3,w
  5775     045B  0140               	movlb	0	; select bank0
  5776     045C  00B0               	movwf	floorf@x+3
  5777     045D  0872               	movf	?___fldiv+2,w
  5778     045E  00AF               	movwf	floorf@x+2
  5779     045F  0871               	movf	?___fldiv+1,w
  5780     0460  00AE               	movwf	floorf@x+1
  5781     0461  0870               	movf	?___fldiv,w
  5782     0462  00AD               	movwf	floorf@x
  5783     0463  3180  20C2  3181   	fcall	_floorf
  5784     0466  0140               	movlb	0	; select bank0
  5785     0467  0830               	movf	?_floorf+3,w
  5786     0468  0141               	movlb	1	; select bank1
  5787     0469  00C1               	movwf	(efgtoa@l+3)^(0+128)
  5788     046A  0140               	movlb	0	; select bank0
  5789     046B  082F               	movf	?_floorf+2,w
  5790     046C  0141               	movlb	1	; select bank1
  5791     046D  00C0               	movwf	(efgtoa@l+2)^(0+128)
  5792     046E  0140               	movlb	0	; select bank0
  5793     046F  082E               	movf	?_floorf+1,w
  5794     0470  0141               	movlb	1	; select bank1
  5795     0471  00BF               	movwf	(efgtoa@l+1)^(0+128)
  5796     0472  0140               	movlb	0	; select bank0
  5797     0473  082D               	movf	?_floorf,w
  5798     0474  0141               	movlb	1	; select bank1
  5799     0475  00BE               	movwf	efgtoa@l^(0+128)
  5800                           
  5801                           ;C:\Program Files\Microchip\xc8\v2.40\pic\sources\c99\common\doprnt.c: 657:         d = 
      +                          (int)l;
  5802     0476  0841               	movf	(efgtoa@l+3)^(0+128),w
  5803     0477  00F3               	movwf	___fltol@f1+3
  5804     0478  0840               	movf	(efgtoa@l+2)^(0+128),w
  5805     0479  00F2               	movwf	___fltol@f1+2
  5806     047A  083F               	movf	(efgtoa@l+1)^(0+128),w
  5807     047B  00F1               	movwf	___fltol@f1+1
  5808     047C  083E               	movf	efgtoa@l^(0+128),w
  5809     047D  00F0               	movwf	___fltol@f1
  5810     047E  3195  2570  3181   	fcall	___fltol
  5811     0481  0871               	movf	?___fltol+1,w
  5812     0482  0141               	movlb	1	; select bank1
  5813     0483  00AC               	movwf	(efgtoa@d+1)^(0+128)
  5814     0484  0870               	movf	?___fltol,w
  5815     0485  00AB               	movwf	efgtoa@d^(0+128)
  5816                           
  5817                           ;C:\Program Files\Microchip\xc8\v2.40\pic\sources\c99\common\doprnt.c: 658:         h -=
      +                           l*u.f;
  5818     0486  084C               	movf	(efgtoa@u+3)^(0+128),w
  5819     0487  0140               	movlb	0	; select bank0
  5820     0488  00A7               	movwf	___flmul@a+3
  5821     0489  0141               	movlb	1	; select bank1
  5822     048A  084B               	movf	(efgtoa@u+2)^(0+128),w
  5823     048B  0140               	movlb	0	; select bank0
  5824     048C  00A6               	movwf	___flmul@a+2
  5825     048D  0141               	movlb	1	; select bank1
  5826     048E  084A               	movf	(efgtoa@u+1)^(0+128),w
  5827     048F  0140               	movlb	0	; select bank0
  5828     0490  00A5               	movwf	___flmul@a+1
  5829     0491  0141               	movlb	1	; select bank1
  5830     0492  0849               	movf	efgtoa@u^(0+128),w
  5831     0493  0140               	movlb	0	; select bank0
  5832     0494  00A4               	movwf	___flmul@a
  5833     0495  0141               	movlb	1	; select bank1
  5834     0496  0841               	movf	(efgtoa@l+3)^(0+128),w
  5835     0497  0140               	movlb	0	; select bank0
  5836     0498  00A3               	movwf	___flmul@b+3
  5837     0499  0141               	movlb	1	; select bank1
  5838     049A  0840               	movf	(efgtoa@l+2)^(0+128),w
  5839     049B  0140               	movlb	0	; select bank0
  5840     049C  00A2               	movwf	___flmul@b+2
  5841     049D  0141               	movlb	1	; select bank1
  5842     049E  083F               	movf	(efgtoa@l+1)^(0+128),w
  5843     049F  0140               	movlb	0	; select bank0
  5844     04A0  00A1               	movwf	___flmul@b+1
  5845     04A1  0141               	movlb	1	; select bank1
  5846     04A2  083E               	movf	efgtoa@l^(0+128),w
  5847     04A3  0140               	movlb	0	; select bank0
  5848     04A4  00A0               	movwf	___flmul@b
  5849     04A5  318D  25C5  3181   	fcall	___flmul
  5850     04A8  0140               	movlb	0	; select bank0
  5851     04A9  0823               	movf	?___flmul+3,w
  5852     04AA  00B8               	movwf	___flsub@a+3
  5853     04AB  0822               	movf	?___flmul+2,w
  5854     04AC  00B7               	movwf	___flsub@a+2
  5855     04AD  0821               	movf	?___flmul+1,w
  5856     04AE  00B6               	movwf	___flsub@a+1
  5857     04AF  0820               	movf	?___flmul,w
  5858     04B0  00B5               	movwf	___flsub@a
  5859     04B1  0141               	movlb	1	; select bank1
  5860     04B2  083D               	movf	(efgtoa@h+3)^(0+128),w
  5861     04B3  0140               	movlb	0	; select bank0
  5862     04B4  00BC               	movwf	___flsub@b+3
  5863     04B5  0141               	movlb	1	; select bank1
  5864     04B6  083C               	movf	(efgtoa@h+2)^(0+128),w
  5865     04B7  0140               	movlb	0	; select bank0
  5866     04B8  00BB               	movwf	___flsub@b+2
  5867     04B9  0141               	movlb	1	; select bank1
  5868     04BA  083B               	movf	(efgtoa@h+1)^(0+128),w
  5869     04BB  0140               	movlb	0	; select bank0
  5870     04BC  00BA               	movwf	___flsub@b+1
  5871     04BD  0141               	movlb	1	; select bank1
  5872     04BE  083A               	movf	efgtoa@h^(0+128),w
  5873     04BF  0140               	movlb	0	; select bank0
  5874     04C0  00B9               	movwf	___flsub@b
  5875     04C1  3192  2202  3181   	fcall	___flsub
  5876     04C4  0140               	movlb	0	; select bank0
  5877     04C5  0838               	movf	?___flsub+3,w
  5878     04C6  0141               	movlb	1	; select bank1
  5879     04C7  00BD               	movwf	(efgtoa@h+3)^(0+128)
  5880     04C8  0140               	movlb	0	; select bank0
  5881     04C9  0837               	movf	?___flsub+2,w
  5882     04CA  0141               	movlb	1	; select bank1
  5883     04CB  00BC               	movwf	(efgtoa@h+2)^(0+128)
  5884     04CC  0140               	movlb	0	; select bank0
  5885     04CD  0836               	movf	?___flsub+1,w
  5886     04CE  0141               	movlb	1	; select bank1
  5887     04CF  00BB               	movwf	(efgtoa@h+1)^(0+128)
  5888     04D0  0140               	movlb	0	; select bank0
  5889     04D1  0835               	movf	?___flsub,w
  5890     04D2  0141               	movlb	1	; select bank1
  5891     04D3  00BA               	movwf	efgtoa@h^(0+128)
  5892                           
  5893                           ;C:\Program Files\Microchip\xc8\v2.40\pic\sources\c99\common\doprnt.c: 659:         u.f 
      +                          = u.f/10.0;
  5894     04D4  3041               	movlw	65
  5895     04D5  00F3               	movwf	___fldiv@a+3
  5896     04D6  3020               	movlw	32
  5897     04D7  00F2               	movwf	___fldiv@a+2
  5898     04D8  3000               	movlw	0
  5899     04D9  00F1               	movwf	___fldiv@a+1
  5900     04DA  3000               	movlw	0
  5901     04DB  00F0               	movwf	___fldiv@a
  5902     04DC  084C               	movf	(efgtoa@u+3)^(0+128),w
  5903     04DD  00F7               	movwf	___fldiv@b+3
  5904     04DE  084B               	movf	(efgtoa@u+2)^(0+128),w
  5905     04DF  00F6               	movwf	___fldiv@b+2
  5906     04E0  084A               	movf	(efgtoa@u+1)^(0+128),w
  5907     04E1  00F5               	movwf	___fldiv@b+1
  5908     04E2  0849               	movf	efgtoa@u^(0+128),w
  5909     04E3  00F4               	movwf	___fldiv@b
  5910     04E4  3188  203F  3181   	fcall	___fldiv
  5911     04E7  0873               	movf	?___fldiv+3,w
  5912     04E8  0141               	movlb	1	; select bank1
  5913     04E9  00CC               	movwf	(efgtoa@u+3)^(0+128)
  5914     04EA  0872               	movf	?___fldiv+2,w
  5915     04EB  00CB               	movwf	(efgtoa@u+2)^(0+128)
  5916     04EC  0871               	movf	?___fldiv+1,w
  5917     04ED  00CA               	movwf	(efgtoa@u+1)^(0+128)
  5918     04EE  0870               	movf	?___fldiv,w
  5919     04EF  00C9               	movwf	efgtoa@u^(0+128)
  5920     04F0                     l3577:
  5921                           
  5922                           ;C:\Program Files\Microchip\xc8\v2.40\pic\sources\c99\common\doprnt.c: 660:         ++i;
  5923     04F0  3001               	movlw	1
  5924     04F1  07B8               	addwf	efgtoa@i^(0+128),f
  5925     04F2  3000               	movlw	0
  5926     04F3  3DB9               	addwfc	(efgtoa@i+1)^(0+128),f
  5927     04F4                     l3579:
  5928                           
  5929                           ;C:\Program Files\Microchip\xc8\v2.40\pic\sources\c99\common\doprnt.c: 655:     while (i
      +                           < m) {
  5930     04F4  0839               	movf	(efgtoa@i+1)^(0+128),w
  5931     04F5  3A80               	xorlw	128
  5932     04F6  0140               	movlb	0	; select bank0
  5933     04F7  00C6               	movwf	??_efgtoa
  5934     04F8  0141               	movlb	1	; select bank1
  5935     04F9  082E               	movf	(efgtoa@m+1)^(0+128),w
  5936     04FA  3A80               	xorlw	128
  5937     04FB  0140               	movlb	0	; select bank0
  5938     04FC  0246               	subwf	??_efgtoa,w
  5939     04FD  1D03               	skipz
  5940     04FE  2D02               	goto	u4445
  5941     04FF  0141               	movlb	1	; select bank1
  5942     0500  082D               	movf	efgtoa@m^(0+128),w
  5943     0501  0238               	subwf	efgtoa@i^(0+128),w
  5944     0502                     u4445:
  5945     0502  1C03               	skipc
  5946     0503  2D05               	goto	u4441
  5947     0504  2D06               	goto	u4440
  5948     0505                     u4441:
  5949     0505  2C46               	goto	l3575
  5950     0506                     u4440:
  5951     0506                     l3581:
  5952                           
  5953                           ;C:\Program Files\Microchip\xc8\v2.40\pic\sources\c99\common\doprnt.c: 664:     l = u.f*
      +                          5.0;
  5954     0506  3040               	movlw	64
  5955     0507  0140               	movlb	0	; select bank0
  5956     0508  00A3               	movwf	___flmul@b+3
  5957     0509  30A0               	movlw	160
  5958     050A  00A2               	movwf	___flmul@b+2
  5959     050B  3000               	movlw	0
  5960     050C  00A1               	movwf	___flmul@b+1
  5961     050D  3000               	movlw	0
  5962     050E  00A0               	movwf	___flmul@b
  5963     050F  0141               	movlb	1	; select bank1
  5964     0510  084C               	movf	(efgtoa@u+3)^(0+128),w
  5965     0511  0140               	movlb	0	; select bank0
  5966     0512  00A7               	movwf	___flmul@a+3
  5967     0513  0141               	movlb	1	; select bank1
  5968     0514  084B               	movf	(efgtoa@u+2)^(0+128),w
  5969     0515  0140               	movlb	0	; select bank0
  5970     0516  00A6               	movwf	___flmul@a+2
  5971     0517  0141               	movlb	1	; select bank1
  5972     0518  084A               	movf	(efgtoa@u+1)^(0+128),w
  5973     0519  0140               	movlb	0	; select bank0
  5974     051A  00A5               	movwf	___flmul@a+1
  5975     051B  0141               	movlb	1	; select bank1
  5976     051C  0849               	movf	efgtoa@u^(0+128),w
  5977     051D  0140               	movlb	0	; select bank0
  5978     051E  00A4               	movwf	___flmul@a
  5979     051F  318D  25C5  3181   	fcall	___flmul
  5980     0522  0140               	movlb	0	; select bank0
  5981     0523  0823               	movf	?___flmul+3,w
  5982     0524  0141               	movlb	1	; select bank1
  5983     0525  00C1               	movwf	(efgtoa@l+3)^(0+128)
  5984     0526  0140               	movlb	0	; select bank0
  5985     0527  0822               	movf	?___flmul+2,w
  5986     0528  0141               	movlb	1	; select bank1
  5987     0529  00C0               	movwf	(efgtoa@l+2)^(0+128)
  5988     052A  0140               	movlb	0	; select bank0
  5989     052B  0821               	movf	?___flmul+1,w
  5990     052C  0141               	movlb	1	; select bank1
  5991     052D  00BF               	movwf	(efgtoa@l+1)^(0+128)
  5992     052E  0140               	movlb	0	; select bank0
  5993     052F  0820               	movf	?___flmul,w
  5994     0530  0141               	movlb	1	; select bank1
  5995     0531  00BE               	movwf	efgtoa@l^(0+128)
  5996                           
  5997                           ;C:\Program Files\Microchip\xc8\v2.40\pic\sources\c99\common\doprnt.c: 665:     if (h < 
      +                          l) {
  5998     0532  083D               	movf	(efgtoa@h+3)^(0+128),w
  5999     0533  0140               	movlb	0	; select bank0
  6000     0534  00B8               	movwf	___flge@ff1+3
  6001     0535  0141               	movlb	1	; select bank1
  6002     0536  083C               	movf	(efgtoa@h+2)^(0+128),w
  6003     0537  0140               	movlb	0	; select bank0
  6004     0538  00B7               	movwf	___flge@ff1+2
  6005     0539  0141               	movlb	1	; select bank1
  6006     053A  083B               	movf	(efgtoa@h+1)^(0+128),w
  6007     053B  0140               	movlb	0	; select bank0
  6008     053C  00B6               	movwf	___flge@ff1+1
  6009     053D  0141               	movlb	1	; select bank1
  6010     053E  083A               	movf	efgtoa@h^(0+128),w
  6011     053F  0140               	movlb	0	; select bank0
  6012     0540  00B5               	movwf	___flge@ff1
  6013     0541  0141               	movlb	1	; select bank1
  6014     0542  0841               	movf	(efgtoa@l+3)^(0+128),w
  6015     0543  0140               	movlb	0	; select bank0
  6016     0544  00BC               	movwf	___flge@ff2+3
  6017     0545  0141               	movlb	1	; select bank1
  6018     0546  0840               	movf	(efgtoa@l+2)^(0+128),w
  6019     0547  0140               	movlb	0	; select bank0
  6020     0548  00BB               	movwf	___flge@ff2+2
  6021     0549  0141               	movlb	1	; select bank1
  6022     054A  083F               	movf	(efgtoa@l+1)^(0+128),w
  6023     054B  0140               	movlb	0	; select bank0
  6024     054C  00BA               	movwf	___flge@ff2+1
  6025     054D  0141               	movlb	1	; select bank1
  6026     054E  083E               	movf	efgtoa@l^(0+128),w
  6027     054F  0140               	movlb	0	; select bank0
  6028     0550  00B9               	movwf	___flge@ff2
  6029     0551  3196  26E1  3181   	fcall	___flge
  6030     0554  1803               	btfsc	3,0
  6031     0555  2D57               	goto	u4451
  6032     0556  2D58               	goto	u4450
  6033     0557                     u4451:
  6034     0557  2D62               	goto	l3585
  6035     0558                     u4450:
  6036     0558                     l3583:
  6037                           
  6038                           ;C:\Program Files\Microchip\xc8\v2.40\pic\sources\c99\common\doprnt.c: 666:         l = 
      +                          0.0;
  6039     0558  3000               	movlw	0
  6040     0559  0141               	movlb	1	; select bank1
  6041     055A  00C1               	movwf	(efgtoa@l+3)^(0+128)
  6042     055B  3000               	movlw	0
  6043     055C  00C0               	movwf	(efgtoa@l+2)^(0+128)
  6044     055D  3000               	movlw	0
  6045     055E  00BF               	movwf	(efgtoa@l+1)^(0+128)
  6046     055F  3000               	movlw	0
  6047     0560  00BE               	movwf	efgtoa@l^(0+128)
  6048                           
  6049                           ;C:\Program Files\Microchip\xc8\v2.40\pic\sources\c99\common\doprnt.c: 667:     } else {
  6050     0561  2D87               	goto	l3591
  6051     0562                     l3585:
  6052                           
  6053                           ;C:\Program Files\Microchip\xc8\v2.40\pic\sources\c99\common\doprnt.c: 669:         if (
      +                          (h == l) && !(d % 2)) {
  6054     0562  0141               	movlb	1	; select bank1
  6055     0563  083D               	movf	(efgtoa@h+3)^(0+128),w
  6056     0564  00F3               	movwf	___fleq@ff1+3
  6057     0565  083C               	movf	(efgtoa@h+2)^(0+128),w
  6058     0566  00F2               	movwf	___fleq@ff1+2
  6059     0567  083B               	movf	(efgtoa@h+1)^(0+128),w
  6060     0568  00F1               	movwf	___fleq@ff1+1
  6061     0569  083A               	movf	efgtoa@h^(0+128),w
  6062     056A  00F0               	movwf	___fleq@ff1
  6063     056B  0841               	movf	(efgtoa@l+3)^(0+128),w
  6064     056C  00F7               	movwf	___fleq@ff2+3
  6065     056D  0840               	movf	(efgtoa@l+2)^(0+128),w
  6066     056E  00F6               	movwf	___fleq@ff2+2
  6067     056F  083F               	movf	(efgtoa@l+1)^(0+128),w
  6068     0570  00F5               	movwf	___fleq@ff2+1
  6069     0571  083E               	movf	efgtoa@l^(0+128),w
  6070     0572  00F4               	movwf	___fleq@ff2
  6071     0573  3193  23CE  3181   	fcall	___fleq
  6072     0576  1C03               	btfss	3,0
  6073     0577  2D79               	goto	u4461
  6074     0578  2D7A               	goto	u4460
  6075     0579                     u4461:
  6076     0579  2D87               	goto	l3591
  6077     057A                     u4460:
  6078     057A                     l3587:
  6079     057A  0141               	movlb	1	; select bank1
  6080     057B  182B               	btfsc	efgtoa@d^(0+128),0
  6081     057C  2D7E               	goto	u4471
  6082     057D  2D7F               	goto	u4470
  6083     057E                     u4471:
  6084     057E  2D87               	goto	l3591
  6085     057F                     u4470:
  6086     057F                     l3589:
  6087                           
  6088                           ;C:\Program Files\Microchip\xc8\v2.40\pic\sources\c99\common\doprnt.c: 670:             
      +                          l = 0.0;
  6089     057F  3000               	movlw	0
  6090     0580  00C1               	movwf	(efgtoa@l+3)^(0+128)
  6091     0581  3000               	movlw	0
  6092     0582  00C0               	movwf	(efgtoa@l+2)^(0+128)
  6093     0583  3000               	movlw	0
  6094     0584  00BF               	movwf	(efgtoa@l+1)^(0+128)
  6095     0585  3000               	movlw	0
  6096     0586  00BE               	movwf	efgtoa@l^(0+128)
  6097     0587                     l3591:
  6098                           
  6099                           ;C:\Program Files\Microchip\xc8\v2.40\pic\sources\c99\common\doprnt.c: 675:     h = g.f 
      +                          + l;
  6100     0587  0141               	movlb	1	; select bank1
  6101     0588  0841               	movf	(efgtoa@l+3)^(0+128),w
  6102     0589  0140               	movlb	0	; select bank0
  6103     058A  00A3               	movwf	___fladd@b+3
  6104     058B  0141               	movlb	1	; select bank1
  6105     058C  0840               	movf	(efgtoa@l+2)^(0+128),w
  6106     058D  0140               	movlb	0	; select bank0
  6107     058E  00A2               	movwf	___fladd@b+2
  6108     058F  0141               	movlb	1	; select bank1
  6109     0590  083F               	movf	(efgtoa@l+1)^(0+128),w
  6110     0591  0140               	movlb	0	; select bank0
  6111     0592  00A1               	movwf	___fladd@b+1
  6112     0593  0141               	movlb	1	; select bank1
  6113     0594  083E               	movf	efgtoa@l^(0+128),w
  6114     0595  0140               	movlb	0	; select bank0
  6115     0596  00A0               	movwf	___fladd@b
  6116     0597  0141               	movlb	1	; select bank1
  6117     0598  0848               	movf	(efgtoa@g+3)^(0+128),w
  6118     0599  0140               	movlb	0	; select bank0
  6119     059A  00A7               	movwf	___fladd@a+3
  6120     059B  0141               	movlb	1	; select bank1
  6121     059C  0847               	movf	(efgtoa@g+2)^(0+128),w
  6122     059D  0140               	movlb	0	; select bank0
  6123     059E  00A6               	movwf	___fladd@a+2
  6124     059F  0141               	movlb	1	; select bank1
  6125     05A0  0846               	movf	(efgtoa@g+1)^(0+128),w
  6126     05A1  0140               	movlb	0	; select bank0
  6127     05A2  00A5               	movwf	___fladd@a+1
  6128     05A3  0141               	movlb	1	; select bank1
  6129     05A4  0845               	movf	efgtoa@g^(0+128),w
  6130     05A5  0140               	movlb	0	; select bank0
  6131     05A6  00A4               	movwf	___fladd@a
  6132     05A7  318B  23BD  3181   	fcall	___fladd
  6133     05AA  0140               	movlb	0	; select bank0
  6134     05AB  0823               	movf	?___fladd+3,w
  6135     05AC  0141               	movlb	1	; select bank1
  6136     05AD  00BD               	movwf	(efgtoa@h+3)^(0+128)
  6137     05AE  0140               	movlb	0	; select bank0
  6138     05AF  0822               	movf	?___fladd+2,w
  6139     05B0  0141               	movlb	1	; select bank1
  6140     05B1  00BC               	movwf	(efgtoa@h+2)^(0+128)
  6141     05B2  0140               	movlb	0	; select bank0
  6142     05B3  0821               	movf	?___fladd+1,w
  6143     05B4  0141               	movlb	1	; select bank1
  6144     05B5  00BB               	movwf	(efgtoa@h+1)^(0+128)
  6145     05B6  0140               	movlb	0	; select bank0
  6146     05B7  0820               	movf	?___fladd,w
  6147     05B8  0141               	movlb	1	; select bank1
  6148     05B9  00BA               	movwf	efgtoa@h^(0+128)
  6149     05BA                     l3593:
  6150                           
  6151                           ;C:\Program Files\Microchip\xc8\v2.40\pic\sources\c99\common\doprnt.c: 677:  if (h >= (o
      +                          u.f*10.0)) {
  6152     05BA  083D               	movf	(efgtoa@h+3)^(0+128),w
  6153     05BB  0140               	movlb	0	; select bank0
  6154     05BC  00B8               	movwf	___flge@ff1+3
  6155     05BD  0141               	movlb	1	; select bank1
  6156     05BE  083C               	movf	(efgtoa@h+2)^(0+128),w
  6157     05BF  0140               	movlb	0	; select bank0
  6158     05C0  00B7               	movwf	___flge@ff1+2
  6159     05C1  0141               	movlb	1	; select bank1
  6160     05C2  083B               	movf	(efgtoa@h+1)^(0+128),w
  6161     05C3  0140               	movlb	0	; select bank0
  6162     05C4  00B6               	movwf	___flge@ff1+1
  6163     05C5  0141               	movlb	1	; select bank1
  6164     05C6  083A               	movf	efgtoa@h^(0+128),w
  6165     05C7  0140               	movlb	0	; select bank0
  6166     05C8  00B5               	movwf	___flge@ff1
  6167     05C9  3041               	movlw	65
  6168     05CA  00A3               	movwf	___flmul@b+3
  6169     05CB  3020               	movlw	32
  6170     05CC  00A2               	movwf	___flmul@b+2
  6171     05CD  3000               	movlw	0
  6172     05CE  00A1               	movwf	___flmul@b+1
  6173     05CF  3000               	movlw	0
  6174     05D0  00A0               	movwf	___flmul@b
  6175     05D1  0141               	movlb	1	; select bank1
  6176     05D2  0837               	movf	(efgtoa@ou+3)^(0+128),w
  6177     05D3  0140               	movlb	0	; select bank0
  6178     05D4  00A7               	movwf	___flmul@a+3
  6179     05D5  0141               	movlb	1	; select bank1
  6180     05D6  0836               	movf	(efgtoa@ou+2)^(0+128),w
  6181     05D7  0140               	movlb	0	; select bank0
  6182     05D8  00A6               	movwf	___flmul@a+2
  6183     05D9  0141               	movlb	1	; select bank1
  6184     05DA  0835               	movf	(efgtoa@ou+1)^(0+128),w
  6185     05DB  0140               	movlb	0	; select bank0
  6186     05DC  00A5               	movwf	___flmul@a+1
  6187     05DD  0141               	movlb	1	; select bank1
  6188     05DE  0834               	movf	efgtoa@ou^(0+128),w
  6189     05DF  0140               	movlb	0	; select bank0
  6190     05E0  00A4               	movwf	___flmul@a
  6191     05E1  318D  25C5  3181   	fcall	___flmul
  6192     05E4  0140               	movlb	0	; select bank0
  6193     05E5  0823               	movf	?___flmul+3,w
  6194     05E6  00BC               	movwf	___flge@ff2+3
  6195     05E7  0822               	movf	?___flmul+2,w
  6196     05E8  00BB               	movwf	___flge@ff2+2
  6197     05E9  0821               	movf	?___flmul+1,w
  6198     05EA  00BA               	movwf	___flge@ff2+1
  6199     05EB  0820               	movf	?___flmul,w
  6200     05EC  00B9               	movwf	___flge@ff2
  6201     05ED  3196  26E1  3181   	fcall	___flge
  6202     05F0  1C03               	btfss	3,0
  6203     05F1  2DF3               	goto	u4481
  6204     05F2  2DF4               	goto	u4480
  6205     05F3                     u4481:
  6206     05F3  2E2F               	goto	l996
  6207     05F4                     u4480:
  6208     05F4                     l3595:
  6209                           
  6210                           ;C:\Program Files\Microchip\xc8\v2.40\pic\sources\c99\common\doprnt.c: 678:   e++;
  6211     05F4  3001               	movlw	1
  6212     05F5  0141               	movlb	1	; select bank1
  6213     05F6  07B0               	addwf	efgtoa@e^(0+128),f
  6214     05F7  3000               	movlw	0
  6215     05F8  3DB1               	addwfc	(efgtoa@e+1)^(0+128),f
  6216     05F9                     l3597:
  6217                           
  6218                           ;C:\Program Files\Microchip\xc8\v2.40\pic\sources\c99\common\doprnt.c: 679:   ou.f *= 10
      +                          .0;
  6219     05F9  3041               	movlw	65
  6220     05FA  0140               	movlb	0	; select bank0
  6221     05FB  00A3               	movwf	___flmul@b+3
  6222     05FC  3020               	movlw	32
  6223     05FD  00A2               	movwf	___flmul@b+2
  6224     05FE  3000               	movlw	0
  6225     05FF  00A1               	movwf	___flmul@b+1
  6226     0600  3000               	movlw	0
  6227     0601  00A0               	movwf	___flmul@b
  6228     0602  0141               	movlb	1	; select bank1
  6229     0603  0837               	movf	(efgtoa@ou+3)^(0+128),w
  6230     0604  0140               	movlb	0	; select bank0
  6231     0605  00A7               	movwf	___flmul@a+3
  6232     0606  0141               	movlb	1	; select bank1
  6233     0607  0836               	movf	(efgtoa@ou+2)^(0+128),w
  6234     0608  0140               	movlb	0	; select bank0
  6235     0609  00A6               	movwf	___flmul@a+2
  6236     060A  0141               	movlb	1	; select bank1
  6237     060B  0835               	movf	(efgtoa@ou+1)^(0+128),w
  6238     060C  0140               	movlb	0	; select bank0
  6239     060D  00A5               	movwf	___flmul@a+1
  6240     060E  0141               	movlb	1	; select bank1
  6241     060F  0834               	movf	efgtoa@ou^(0+128),w
  6242     0610  0140               	movlb	0	; select bank0
  6243     0611  00A4               	movwf	___flmul@a
  6244     0612  318D  25C5  3181   	fcall	___flmul
  6245     0615  0140               	movlb	0	; select bank0
  6246     0616  0823               	movf	?___flmul+3,w
  6247     0617  0141               	movlb	1	; select bank1
  6248     0618  00B7               	movwf	(efgtoa@ou+3)^(0+128)
  6249     0619  0140               	movlb	0	; select bank0
  6250     061A  0822               	movf	?___flmul+2,w
  6251     061B  0141               	movlb	1	; select bank1
  6252     061C  00B6               	movwf	(efgtoa@ou+2)^(0+128)
  6253     061D  0140               	movlb	0	; select bank0
  6254     061E  0821               	movf	?___flmul+1,w
  6255     061F  0141               	movlb	1	; select bank1
  6256     0620  00B5               	movwf	(efgtoa@ou+1)^(0+128)
  6257     0621  0140               	movlb	0	; select bank0
  6258     0622  0820               	movf	?___flmul,w
  6259     0623  0141               	movlb	1	; select bank1
  6260     0624  00B4               	movwf	efgtoa@ou^(0+128)
  6261     0625                     l3599:
  6262                           
  6263                           ;C:\Program Files\Microchip\xc8\v2.40\pic\sources\c99\common\doprnt.c: 681:   if (nmode 
      +                          == 'f') {
  6264     0625  3066               	movlw	102
  6265     0626  062A               	xorwf	efgtoa@nmode^(0+128),w
  6266     0627  1D03               	btfss	3,2
  6267     0628  2E2A               	goto	u4491
  6268     0629  2E2B               	goto	u4490
  6269     062A                     u4491:
  6270     062A  2E2F               	goto	l996
  6271     062B                     u4490:
  6272     062B                     l3601:
  6273                           
  6274                           ;C:\Program Files\Microchip\xc8\v2.40\pic\sources\c99\common\doprnt.c: 683:    m++;
  6275     062B  3001               	movlw	1
  6276     062C  07AD               	addwf	efgtoa@m^(0+128),f
  6277     062D  3000               	movlw	0
  6278     062E  3DAE               	addwfc	(efgtoa@m+1)^(0+128),f
  6279     062F                     l996:	
  6280                           ;C:\Program Files\Microchip\xc8\v2.40\pic\sources\c99\common\doprnt.c: 686:  }
  6281                           
  6282                           
  6283                           ;C:\Program Files\Microchip\xc8\v2.40\pic\sources\c99\common\doprnt.c: 689:     u = ou;
  6284     062F  0141               	movlb	1	; select bank1
  6285     0630  0837               	movf	(efgtoa@ou+3)^(0+128),w
  6286     0631  00CC               	movwf	(efgtoa@u+3)^(0+128)
  6287     0632  0836               	movf	(efgtoa@ou+2)^(0+128),w
  6288     0633  00CB               	movwf	(efgtoa@u+2)^(0+128)
  6289     0634  0835               	movf	(efgtoa@ou+1)^(0+128),w
  6290     0635  00CA               	movwf	(efgtoa@u+1)^(0+128)
  6291     0636  0834               	movf	efgtoa@ou^(0+128),w
  6292     0637  00C9               	movwf	efgtoa@u^(0+128)
  6293                           
  6294                           ;C:\Program Files\Microchip\xc8\v2.40\pic\sources\c99\common\doprnt.c: 693:  ne = e;
  6295     0638  0831               	movf	(efgtoa@e+1)^(0+128),w
  6296     0639  00A1               	movwf	(efgtoa@ne+1)^(0+128)
  6297     063A  0830               	movf	efgtoa@e^(0+128),w
  6298     063B  00A0               	movwf	efgtoa@ne^(0+128)
  6299     063C                     l3603:
  6300                           
  6301                           ;C:\Program Files\Microchip\xc8\v2.40\pic\sources\c99\common\doprnt.c: 695:     pp = 0;
  6302     063C  01A8               	clrf	efgtoa@pp^(0+128)
  6303     063D                     l3605:
  6304                           
  6305                           ;C:\Program Files\Microchip\xc8\v2.40\pic\sources\c99\common\doprnt.c: 696:     t = 0;
  6306     063D  01A4               	clrf	efgtoa@t^(0+128)
  6307     063E  01A5               	clrf	(efgtoa@t+1)^(0+128)
  6308     063F                     l3607:
  6309                           
  6310                           ;C:\Program Files\Microchip\xc8\v2.40\pic\sources\c99\common\doprnt.c: 697:     i = 0;
  6311     063F  01B8               	clrf	efgtoa@i^(0+128)
  6312     0640  01B9               	clrf	(efgtoa@i+1)^(0+128)
  6313                           
  6314                           ;C:\Program Files\Microchip\xc8\v2.40\pic\sources\c99\common\doprnt.c: 698:     while ((
      +                          i < m) && (n < (80 - 5))) {
  6315     0641  2F58               	goto	l3651
  6316     0642                     l3609:
  6317                           
  6318                           ;C:\Program Files\Microchip\xc8\v2.40\pic\sources\c99\common\doprnt.c: 699:         l = 
      +                          floorf(h/u.f);
  6319     0642  0141               	movlb	1	; select bank1
  6320     0643  084C               	movf	(efgtoa@u+3)^(0+128),w
  6321     0644  00F3               	movwf	___fldiv@a+3
  6322     0645  084B               	movf	(efgtoa@u+2)^(0+128),w
  6323     0646  00F2               	movwf	___fldiv@a+2
  6324     0647  084A               	movf	(efgtoa@u+1)^(0+128),w
  6325     0648  00F1               	movwf	___fldiv@a+1
  6326     0649  0849               	movf	efgtoa@u^(0+128),w
  6327     064A  00F0               	movwf	___fldiv@a
  6328     064B  083D               	movf	(efgtoa@h+3)^(0+128),w
  6329     064C  00F7               	movwf	___fldiv@b+3
  6330     064D  083C               	movf	(efgtoa@h+2)^(0+128),w
  6331     064E  00F6               	movwf	___fldiv@b+2
  6332     064F  083B               	movf	(efgtoa@h+1)^(0+128),w
  6333     0650  00F5               	movwf	___fldiv@b+1
  6334     0651  083A               	movf	efgtoa@h^(0+128),w
  6335     0652  00F4               	movwf	___fldiv@b
  6336     0653  3188  203F  3181   	fcall	___fldiv
  6337     0656  0873               	movf	?___fldiv+3,w
  6338     0657  0140               	movlb	0	; select bank0
  6339     0658  00B0               	movwf	floorf@x+3
  6340     0659  0872               	movf	?___fldiv+2,w
  6341     065A  00AF               	movwf	floorf@x+2
  6342     065B  0871               	movf	?___fldiv+1,w
  6343     065C  00AE               	movwf	floorf@x+1
  6344     065D  0870               	movf	?___fldiv,w
  6345     065E  00AD               	movwf	floorf@x
  6346     065F  3180  20C2  3181   	fcall	_floorf
  6347     0662  0140               	movlb	0	; select bank0
  6348     0663  0830               	movf	?_floorf+3,w
  6349     0664  0141               	movlb	1	; select bank1
  6350     0665  00C1               	movwf	(efgtoa@l+3)^(0+128)
  6351     0666  0140               	movlb	0	; select bank0
  6352     0667  082F               	movf	?_floorf+2,w
  6353     0668  0141               	movlb	1	; select bank1
  6354     0669  00C0               	movwf	(efgtoa@l+2)^(0+128)
  6355     066A  0140               	movlb	0	; select bank0
  6356     066B  082E               	movf	?_floorf+1,w
  6357     066C  0141               	movlb	1	; select bank1
  6358     066D  00BF               	movwf	(efgtoa@l+1)^(0+128)
  6359     066E  0140               	movlb	0	; select bank0
  6360     066F  082D               	movf	?_floorf,w
  6361     0670  0141               	movlb	1	; select bank1
  6362     0671  00BE               	movwf	efgtoa@l^(0+128)
  6363                           
  6364                           ;C:\Program Files\Microchip\xc8\v2.40\pic\sources\c99\common\doprnt.c: 700:         d = 
      +                          (int)l > 9 ? 9 : (int)l;
  6365     0672  0841               	movf	(efgtoa@l+3)^(0+128),w
  6366     0673  00F3               	movwf	___fltol@f1+3
  6367     0674  0840               	movf	(efgtoa@l+2)^(0+128),w
  6368     0675  00F2               	movwf	___fltol@f1+2
  6369     0676  083F               	movf	(efgtoa@l+1)^(0+128),w
  6370     0677  00F1               	movwf	___fltol@f1+1
  6371     0678  083E               	movf	efgtoa@l^(0+128),w
  6372     0679  00F0               	movwf	___fltol@f1
  6373     067A  3195  2570  3181   	fcall	___fltol
  6374     067D  0871               	movf	?___fltol+1,w
  6375     067E  3A80               	xorlw	128
  6376     067F  0140               	movlb	0	; select bank0
  6377     0680  00C6               	movwf	??_efgtoa
  6378     0681  3080               	movlw	128
  6379     0682  0246               	subwf	??_efgtoa,w
  6380     0683  1D03               	skipz
  6381     0684  2E87               	goto	u4505
  6382     0685  300A               	movlw	10
  6383     0686  0270               	subwf	?___fltol,w
  6384     0687                     u4505:
  6385     0687  1803               	skipnc
  6386     0688  2E8A               	goto	u4501
  6387     0689  2E8B               	goto	u4500
  6388     068A                     u4501:
  6389     068A  2E9D               	goto	l3613
  6390     068B                     u4500:
  6391     068B                     l3611:
  6392     068B  0141               	movlb	1	; select bank1
  6393     068C  0841               	movf	(efgtoa@l+3)^(0+128),w
  6394     068D  00F3               	movwf	___fltol@f1+3
  6395     068E  0840               	movf	(efgtoa@l+2)^(0+128),w
  6396     068F  00F2               	movwf	___fltol@f1+2
  6397     0690  083F               	movf	(efgtoa@l+1)^(0+128),w
  6398     0691  00F1               	movwf	___fltol@f1+1
  6399     0692  083E               	movf	efgtoa@l^(0+128),w
  6400     0693  00F0               	movwf	___fltol@f1
  6401     0694  3195  2570  3181   	fcall	___fltol
  6402     0697  0871               	movf	?___fltol+1,w
  6403     0698  0141               	movlb	1	; select bank1
  6404     0699  00AC               	movwf	(efgtoa@d+1)^(0+128)
  6405     069A  0870               	movf	?___fltol,w
  6406     069B  00AB               	movwf	efgtoa@d^(0+128)
  6407     069C  2EA2               	goto	l3615
  6408     069D                     l3613:
  6409     069D  3009               	movlw	9
  6410     069E  0141               	movlb	1	; select bank1
  6411     069F  00AB               	movwf	efgtoa@d^(0+128)
  6412     06A0  3000               	movlw	0
  6413     06A1  00AC               	movwf	(efgtoa@d^(0+128)+1)
  6414     06A2                     l3615:
  6415                           
  6416                           ;C:\Program Files\Microchip\xc8\v2.40\pic\sources\c99\common\doprnt.c: 711:   {;C:\Progr
      +                          am Files\Microchip\xc8\v2.40\pic\sources\c99\common\doprnt.c: 712:             if (!pp &
      +                          & (ne < 0)) {
  6417     06A2  0828               	movf	efgtoa@pp^(0+128),w
  6418     06A3  1D03               	btfss	3,2
  6419     06A4  2EA6               	goto	u4511
  6420     06A5  2EA7               	goto	u4510
  6421     06A6                     u4511:
  6422     06A6  2ED0               	goto	l3635
  6423     06A7                     u4510:
  6424     06A7                     l3617:
  6425     06A7  1FA1               	btfss	(efgtoa@ne+1)^(0+128),7
  6426     06A8  2EAA               	goto	u4521
  6427     06A9  2EAB               	goto	u4520
  6428     06AA                     u4521:
  6429     06AA  2ED0               	goto	l3635
  6430     06AB                     u4520:
  6431     06AB                     l3619:
  6432                           
  6433                           ;C:\Program Files\Microchip\xc8\v2.40\pic\sources\c99\common\doprnt.c: 713:             
      +                              dbuf[n++] = '.';
  6434     06AB  0843               	movf	efgtoa@n^(0+128),w
  6435     06AC  3EA0               	addlw	(low (_dbuf| (0+256)))& (0+255)
  6436     06AD  0086               	movwf	6
  6437     06AE  3001               	movlw	1	; select bank3/4
  6438     06AF  0087               	movwf	7
  6439     06B0  302E               	movlw	46
  6440     06B1  0081               	movwf	1
  6441     06B2                     l3621:
  6442     06B2  3001               	movlw	1
  6443     06B3  07C3               	addwf	efgtoa@n^(0+128),f
  6444     06B4  3000               	movlw	0
  6445     06B5  3DC4               	addwfc	(efgtoa@n+1)^(0+128),f
  6446     06B6                     l3623:
  6447                           
  6448                           ;C:\Program Files\Microchip\xc8\v2.40\pic\sources\c99\common\doprnt.c: 714:             
      +                              --w;
  6449     06B6  30FF               	movlw	255
  6450     06B7  07B2               	addwf	efgtoa@w^(0+128),f
  6451     06B8  30FF               	movlw	255
  6452     06B9  3DB3               	addwfc	(efgtoa@w+1)^(0+128),f
  6453     06BA                     l3625:
  6454                           
  6455                           ;C:\Program Files\Microchip\xc8\v2.40\pic\sources\c99\common\doprnt.c: 715:             
      +                              pp = 1;
  6456     06BA  01A8               	clrf	efgtoa@pp^(0+128)
  6457     06BB  0AA8               	incf	efgtoa@pp^(0+128),f
  6458     06BC  2ED0               	goto	l3635
  6459     06BD                     l3627:
  6460                           
  6461                           ;C:\Program Files\Microchip\xc8\v2.40\pic\sources\c99\common\doprnt.c: 718:             
      +                              dbuf[n++] = '0';
  6462     06BD  0843               	movf	efgtoa@n^(0+128),w
  6463     06BE  3EA0               	addlw	(low (_dbuf| (0+256)))& (0+255)
  6464     06BF  0086               	movwf	6
  6465     06C0  3001               	movlw	1	; select bank3/4
  6466     06C1  0087               	movwf	7
  6467     06C2  3030               	movlw	48
  6468     06C3  0081               	movwf	1
  6469     06C4                     l3629:
  6470     06C4  3001               	movlw	1
  6471     06C5  07C3               	addwf	efgtoa@n^(0+128),f
  6472     06C6  3000               	movlw	0
  6473     06C7  3DC4               	addwfc	(efgtoa@n+1)^(0+128),f
  6474     06C8                     l3631:
  6475                           
  6476                           ;C:\Program Files\Microchip\xc8\v2.40\pic\sources\c99\common\doprnt.c: 719:             
      +                              --w;
  6477     06C8  30FF               	movlw	255
  6478     06C9  07B2               	addwf	efgtoa@w^(0+128),f
  6479     06CA  30FF               	movlw	255
  6480     06CB  3DB3               	addwfc	(efgtoa@w+1)^(0+128),f
  6481     06CC                     l3633:
  6482                           
  6483                           ;C:\Program Files\Microchip\xc8\v2.40\pic\sources\c99\common\doprnt.c: 720:             
      +                              --t;
  6484     06CC  30FF               	movlw	255
  6485     06CD  07A4               	addwf	efgtoa@t^(0+128),f
  6486     06CE  30FF               	movlw	255
  6487     06CF  3DA5               	addwfc	(efgtoa@t+1)^(0+128),f
  6488     06D0                     l3635:
  6489                           
  6490                           ;C:\Program Files\Microchip\xc8\v2.40\pic\sources\c99\common\doprnt.c: 717:             
      +                          while (t) {
  6491     06D0  0824               	movf	efgtoa@t^(0+128),w
  6492     06D1  0425               	iorwf	(efgtoa@t+1)^(0+128),w
  6493     06D2  1D03               	btfss	3,2
  6494     06D3  2ED5               	goto	u4531
  6495     06D4  2ED6               	goto	u4530
  6496     06D5                     u4531:
  6497     06D5  2EBD               	goto	l3627
  6498     06D6                     u4530:
  6499     06D6                     l3637:
  6500                           
  6501                           ;C:\Program Files\Microchip\xc8\v2.40\pic\sources\c99\common\doprnt.c: 722:             
      +                          dbuf[n++] = (char)((int)'0' + d);
  6502     06D6  0843               	movf	efgtoa@n^(0+128),w
  6503     06D7  3EA0               	addlw	(low (_dbuf| (0+256)))& (0+255)
  6504     06D8  0086               	movwf	6
  6505     06D9  3001               	movlw	1	; select bank3/4
  6506     06DA  0087               	movwf	7
  6507     06DB  082B               	movf	efgtoa@d^(0+128),w
  6508     06DC  3E30               	addlw	48
  6509     06DD  0081               	movwf	1
  6510     06DE                     l3639:
  6511     06DE  3001               	movlw	1
  6512     06DF  07C3               	addwf	efgtoa@n^(0+128),f
  6513     06E0  3000               	movlw	0
  6514     06E1  3DC4               	addwfc	(efgtoa@n+1)^(0+128),f
  6515     06E2                     l3641:
  6516                           
  6517                           ;C:\Program Files\Microchip\xc8\v2.40\pic\sources\c99\common\doprnt.c: 723:             
      +                          --w;
  6518     06E2  30FF               	movlw	255
  6519     06E3  07B2               	addwf	efgtoa@w^(0+128),f
  6520     06E4  30FF               	movlw	255
  6521     06E5  3DB3               	addwfc	(efgtoa@w+1)^(0+128),f
  6522     06E6                     l3643:
  6523                           
  6524                           ;C:\Program Files\Microchip\xc8\v2.40\pic\sources\c99\common\doprnt.c: 724:         };C:
      +                          \Program Files\Microchip\xc8\v2.40\pic\sources\c99\common\doprnt.c: 725:         h -= l*
      +                          u.f;
  6525     06E6  084C               	movf	(efgtoa@u+3)^(0+128),w
  6526     06E7  0140               	movlb	0	; select bank0
  6527     06E8  00A7               	movwf	___flmul@a+3
  6528     06E9  0141               	movlb	1	; select bank1
  6529     06EA  084B               	movf	(efgtoa@u+2)^(0+128),w
  6530     06EB  0140               	movlb	0	; select bank0
  6531     06EC  00A6               	movwf	___flmul@a+2
  6532     06ED  0141               	movlb	1	; select bank1
  6533     06EE  084A               	movf	(efgtoa@u+1)^(0+128),w
  6534     06EF  0140               	movlb	0	; select bank0
  6535     06F0  00A5               	movwf	___flmul@a+1
  6536     06F1  0141               	movlb	1	; select bank1
  6537     06F2  0849               	movf	efgtoa@u^(0+128),w
  6538     06F3  0140               	movlb	0	; select bank0
  6539     06F4  00A4               	movwf	___flmul@a
  6540     06F5  0141               	movlb	1	; select bank1
  6541     06F6  0841               	movf	(efgtoa@l+3)^(0+128),w
  6542     06F7  0140               	movlb	0	; select bank0
  6543     06F8  00A3               	movwf	___flmul@b+3
  6544     06F9  0141               	movlb	1	; select bank1
  6545     06FA  0840               	movf	(efgtoa@l+2)^(0+128),w
  6546     06FB  0140               	movlb	0	; select bank0
  6547     06FC  00A2               	movwf	___flmul@b+2
  6548     06FD  0141               	movlb	1	; select bank1
  6549     06FE  083F               	movf	(efgtoa@l+1)^(0+128),w
  6550     06FF  0140               	movlb	0	; select bank0
  6551     0700  00A1               	movwf	___flmul@b+1
  6552     0701  0141               	movlb	1	; select bank1
  6553     0702  083E               	movf	efgtoa@l^(0+128),w
  6554     0703  0140               	movlb	0	; select bank0
  6555     0704  00A0               	movwf	___flmul@b
  6556     0705  318D  25C5  3181   	fcall	___flmul
  6557     0708  0140               	movlb	0	; select bank0
  6558     0709  0823               	movf	?___flmul+3,w
  6559     070A  00B8               	movwf	___flsub@a+3
  6560     070B  0822               	movf	?___flmul+2,w
  6561     070C  00B7               	movwf	___flsub@a+2
  6562     070D  0821               	movf	?___flmul+1,w
  6563     070E  00B6               	movwf	___flsub@a+1
  6564     070F  0820               	movf	?___flmul,w
  6565     0710  00B5               	movwf	___flsub@a
  6566     0711  0141               	movlb	1	; select bank1
  6567     0712  083D               	movf	(efgtoa@h+3)^(0+128),w
  6568     0713  0140               	movlb	0	; select bank0
  6569     0714  00BC               	movwf	___flsub@b+3
  6570     0715  0141               	movlb	1	; select bank1
  6571     0716  083C               	movf	(efgtoa@h+2)^(0+128),w
  6572     0717  0140               	movlb	0	; select bank0
  6573     0718  00BB               	movwf	___flsub@b+2
  6574     0719  0141               	movlb	1	; select bank1
  6575     071A  083B               	movf	(efgtoa@h+1)^(0+128),w
  6576     071B  0140               	movlb	0	; select bank0
  6577     071C  00BA               	movwf	___flsub@b+1
  6578     071D  0141               	movlb	1	; select bank1
  6579     071E  083A               	movf	efgtoa@h^(0+128),w
  6580     071F  0140               	movlb	0	; select bank0
  6581     0720  00B9               	movwf	___flsub@b
  6582     0721  3192  2202  3181   	fcall	___flsub
  6583     0724  0140               	movlb	0	; select bank0
  6584     0725  0838               	movf	?___flsub+3,w
  6585     0726  0141               	movlb	1	; select bank1
  6586     0727  00BD               	movwf	(efgtoa@h+3)^(0+128)
  6587     0728  0140               	movlb	0	; select bank0
  6588     0729  0837               	movf	?___flsub+2,w
  6589     072A  0141               	movlb	1	; select bank1
  6590     072B  00BC               	movwf	(efgtoa@h+2)^(0+128)
  6591     072C  0140               	movlb	0	; select bank0
  6592     072D  0836               	movf	?___flsub+1,w
  6593     072E  0141               	movlb	1	; select bank1
  6594     072F  00BB               	movwf	(efgtoa@h+1)^(0+128)
  6595     0730  0140               	movlb	0	; select bank0
  6596     0731  0835               	movf	?___flsub,w
  6597     0732  0141               	movlb	1	; select bank1
  6598     0733  00BA               	movwf	efgtoa@h^(0+128)
  6599     0734                     l3645:
  6600                           
  6601                           ;C:\Program Files\Microchip\xc8\v2.40\pic\sources\c99\common\doprnt.c: 726:         u.f 
      +                          = u.f/10.0;
  6602     0734  3041               	movlw	65
  6603     0735  00F3               	movwf	___fldiv@a+3
  6604     0736  3020               	movlw	32
  6605     0737  00F2               	movwf	___fldiv@a+2
  6606     0738  3000               	movlw	0
  6607     0739  00F1               	movwf	___fldiv@a+1
  6608     073A  3000               	movlw	0
  6609     073B  00F0               	movwf	___fldiv@a
  6610     073C  084C               	movf	(efgtoa@u+3)^(0+128),w
  6611     073D  00F7               	movwf	___fldiv@b+3
  6612     073E  084B               	movf	(efgtoa@u+2)^(0+128),w
  6613     073F  00F6               	movwf	___fldiv@b+2
  6614     0740  084A               	movf	(efgtoa@u+1)^(0+128),w
  6615     0741  00F5               	movwf	___fldiv@b+1
  6616     0742  0849               	movf	efgtoa@u^(0+128),w
  6617     0743  00F4               	movwf	___fldiv@b
  6618     0744  3188  203F  3181   	fcall	___fldiv
  6619     0747  0873               	movf	?___fldiv+3,w
  6620     0748  0141               	movlb	1	; select bank1
  6621     0749  00CC               	movwf	(efgtoa@u+3)^(0+128)
  6622     074A  0872               	movf	?___fldiv+2,w
  6623     074B  00CB               	movwf	(efgtoa@u+2)^(0+128)
  6624     074C  0871               	movf	?___fldiv+1,w
  6625     074D  00CA               	movwf	(efgtoa@u+1)^(0+128)
  6626     074E  0870               	movf	?___fldiv,w
  6627     074F  00C9               	movwf	efgtoa@u^(0+128)
  6628     0750                     l3647:
  6629                           
  6630                           ;C:\Program Files\Microchip\xc8\v2.40\pic\sources\c99\common\doprnt.c: 727:         --ne
      +                          ;
  6631     0750  30FF               	movlw	255
  6632     0751  07A0               	addwf	efgtoa@ne^(0+128),f
  6633     0752  30FF               	movlw	255
  6634     0753  3DA1               	addwfc	(efgtoa@ne+1)^(0+128),f
  6635     0754                     l3649:
  6636                           
  6637                           ;C:\Program Files\Microchip\xc8\v2.40\pic\sources\c99\common\doprnt.c: 728:         ++i;
  6638     0754  3001               	movlw	1
  6639     0755  07B8               	addwf	efgtoa@i^(0+128),f
  6640     0756  3000               	movlw	0
  6641     0757  3DB9               	addwfc	(efgtoa@i+1)^(0+128),f
  6642     0758                     l3651:
  6643                           
  6644                           ;C:\Program Files\Microchip\xc8\v2.40\pic\sources\c99\common\doprnt.c: 698:     while ((
      +                          i < m) && (n < (80 - 5))) {
  6645     0758  0839               	movf	(efgtoa@i+1)^(0+128),w
  6646     0759  3A80               	xorlw	128
  6647     075A  0140               	movlb	0	; select bank0
  6648     075B  00C6               	movwf	??_efgtoa
  6649     075C  0141               	movlb	1	; select bank1
  6650     075D  082E               	movf	(efgtoa@m+1)^(0+128),w
  6651     075E  3A80               	xorlw	128
  6652     075F  0140               	movlb	0	; select bank0
  6653     0760  0246               	subwf	??_efgtoa,w
  6654     0761  1D03               	skipz
  6655     0762  2F66               	goto	u4545
  6656     0763  0141               	movlb	1	; select bank1
  6657     0764  082D               	movf	efgtoa@m^(0+128),w
  6658     0765  0238               	subwf	efgtoa@i^(0+128),w
  6659     0766                     u4545:
  6660     0766  1803               	skipnc
  6661     0767  2F69               	goto	u4541
  6662     0768  2F6A               	goto	u4540
  6663     0769                     u4541:
  6664     0769  2F7A               	goto	l3655
  6665     076A                     u4540:
  6666     076A                     l3653:
  6667     076A  0141               	movlb	1	; select bank1
  6668     076B  0844               	movf	(efgtoa@n+1)^(0+128),w
  6669     076C  3A80               	xorlw	128
  6670     076D  0140               	movlb	0	; select bank0
  6671     076E  00C6               	movwf	??_efgtoa
  6672     076F  3080               	movlw	128
  6673     0770  0246               	subwf	??_efgtoa,w
  6674     0771  1D03               	skipz
  6675     0772  2F76               	goto	u4555
  6676     0773  304B               	movlw	75
  6677     0774  0141               	movlb	1	; select bank1
  6678     0775  0243               	subwf	efgtoa@n^(0+128),w
  6679     0776                     u4555:
  6680     0776  1C03               	skipc
  6681     0777  2F79               	goto	u4551
  6682     0778  2F7A               	goto	u4550
  6683     0779                     u4551:
  6684     0779  2E42               	goto	l3609
  6685     077A                     u4550:
  6686     077A                     l3655:
  6687                           
  6688                           ;C:\Program Files\Microchip\xc8\v2.40\pic\sources\c99\common\doprnt.c: 735:  i = sizeof(
      +                          dbuf) - 1;
  6689     077A  304F               	movlw	79
  6690     077B  0141               	movlb	1	; select bank1
  6691     077C  00B8               	movwf	efgtoa@i^(0+128)
  6692     077D  3000               	movlw	0
  6693     077E  00B9               	movwf	(efgtoa@i^(0+128)+1)
  6694     077F                     l3657:
  6695                           
  6696                           ;C:\Program Files\Microchip\xc8\v2.40\pic\sources\c99\common\doprnt.c: 736:     dbuf[i] 
      +                          = '\0';
  6697     077F  0838               	movf	efgtoa@i^(0+128),w
  6698     0780  3EA0               	addlw	(low (_dbuf| (0+256)))& (0+255)
  6699     0781  0086               	movwf	6
  6700     0782  3001               	movlw	1	; select bank3/4
  6701     0783  0087               	movwf	7
  6702     0784  0181               	clrf	1
  6703     0785                     l3659:
  6704                           
  6705                           ;C:\Program Files\Microchip\xc8\v2.40\pic\sources\c99\common\doprnt.c: 767:  memcpy(&dbu
      +                          f[i-n], &dbuf[0], (size_t)n);
  6706     0785  30A0               	movlw	(low (_dbuf| (0+256)))& (0+255)
  6707     0786  00F0               	movwf	memcpy@s1
  6708     0787  0844               	movf	(efgtoa@n+1)^(0+128),w
  6709     0788  00F2               	movwf	memcpy@n+1
  6710     0789  0843               	movf	efgtoa@n^(0+128),w
  6711     078A  00F1               	movwf	memcpy@n
  6712     078B  30A0               	movlw	(low (_dbuf| (0+256)))& (0+255)
  6713     078C  0140               	movlb	0	; select bank0
  6714     078D  00C6               	movwf	??_efgtoa
  6715     078E  0141               	movlb	1	; select bank1
  6716     078F  0843               	movf	efgtoa@n^(0+128),w
  6717     0790  0140               	movlb	0	; select bank0
  6718     0791  0246               	subwf	??_efgtoa,w
  6719     0792  0141               	movlb	1	; select bank1
  6720     0793  0738               	addwf	efgtoa@i^(0+128),w
  6721     0794  3192  22D0  3181   	fcall	_memcpy
  6722     0797                     l3661:
  6723                           
  6724                           ;C:\Program Files\Microchip\xc8\v2.40\pic\sources\c99\common\doprnt.c: 768:  n = i-n;
  6725     0797  0141               	movlb	1	; select bank1
  6726     0798  0843               	movf	efgtoa@n^(0+128),w
  6727     0799  0238               	subwf	efgtoa@i^(0+128),w
  6728     079A  00C3               	movwf	efgtoa@n^(0+128)
  6729     079B  0844               	movf	(efgtoa@n+1)^(0+128),w
  6730     079C  3B39               	subwfb	(efgtoa@i+1)^(0+128),w
  6731     079D  00C4               	movwf	(efgtoa@n+1)^(0+128)
  6732     079E                     l3663:
  6733                           
  6734                           ;C:\Program Files\Microchip\xc8\v2.40\pic\sources\c99\common\doprnt.c: 769:  i = sign ==
      +                           0 ? 0 : 1;
  6735     079E  0842               	movf	efgtoa@sign^(0+128),w
  6736     079F  1D03               	btfss	3,2
  6737     07A0  2FA2               	goto	u4561
  6738     07A1  2FA4               	goto	u4560
  6739     07A2                     u4561:
  6740     07A2  3001               	movlw	1
  6741     07A3  2FA5               	goto	u4570
  6742     07A4                     u4560:
  6743     07A4  3000               	movlw	0
  6744     07A5                     u4570:
  6745     07A5  0140               	movlb	0	; select bank0
  6746     07A6  00C6               	movwf	??_efgtoa
  6747     07A7  01C7               	clrf	??_efgtoa+1
  6748     07A8  0846               	movf	??_efgtoa,w
  6749     07A9  0141               	movlb	1	; select bank1
  6750     07AA  00B8               	movwf	efgtoa@i^(0+128)
  6751     07AB  0140               	movlb	0	; select bank0
  6752     07AC  0847               	movf	??_efgtoa+1,w
  6753     07AD  0141               	movlb	1	; select bank1
  6754     07AE  00B9               	movwf	(efgtoa@i+1)^(0+128)
  6755     07AF                     l3665:
  6756                           
  6757                           ;C:\Program Files\Microchip\xc8\v2.40\pic\sources\c99\common\doprnt.c: 780:  if (sign) {
  6758     07AF  0842               	movf	efgtoa@sign^(0+128),w
  6759     07B0  1903               	btfsc	3,2
  6760     07B1  2FB3               	goto	u4581
  6761     07B2  2FB4               	goto	u4580
  6762     07B3                     u4581:
  6763     07B3  2FBF               	goto	l3669
  6764     07B4                     u4580:
  6765     07B4                     l3667:
  6766                           
  6767                           ;C:\Program Files\Microchip\xc8\v2.40\pic\sources\c99\common\doprnt.c: 781:   dbuf[--n] 
      +                          = sign;
  6768     07B4  30FF               	movlw	255
  6769     07B5  07C3               	addwf	efgtoa@n^(0+128),f
  6770     07B6  30FF               	movlw	255
  6771     07B7  3DC4               	addwfc	(efgtoa@n+1)^(0+128),f
  6772     07B8  0843               	movf	efgtoa@n^(0+128),w
  6773     07B9  3EA0               	addlw	(low (_dbuf| (0+256)))& (0+255)
  6774     07BA  0086               	movwf	6
  6775     07BB  3001               	movlw	1	; select bank3/4
  6776     07BC  0087               	movwf	7
  6777     07BD  0842               	movf	efgtoa@sign^(0+128),w
  6778     07BE  0081               	movwf	1
  6779     07BF                     l3669:
  6780                           
  6781                           ;C:\Program Files\Microchip\xc8\v2.40\pic\sources\c99\common\doprnt.c: 783:  w -= i;
  6782     07BF  0838               	movf	efgtoa@i^(0+128),w
  6783     07C0  02B2               	subwf	efgtoa@w^(0+128),f
  6784     07C1  0839               	movf	(efgtoa@i+1)^(0+128),w
  6785     07C2  3BB3               	subwfb	(efgtoa@w+1)^(0+128),f
  6786     07C3                     l3671:
  6787                           
  6788                           ;C:\Program Files\Microchip\xc8\v2.40\pic\sources\c99\common\doprnt.c: 786:     return (
      +                          void) pad(fp, &dbuf[n], w);
  6789     07C3  0843               	movf	efgtoa@n^(0+128),w
  6790     07C4  3EA0               	addlw	(low (_dbuf| (0+256)))& (0+255)
  6791     07C5  0140               	movlb	0	; select bank0
  6792     07C6  00A6               	movwf	pad@buf
  6793     07C7  0141               	movlb	1	; select bank1
  6794     07C8  0833               	movf	(efgtoa@w+1)^(0+128),w
  6795     07C9  0140               	movlb	0	; select bank0
  6796     07CA  00A8               	movwf	pad@p+1
  6797     07CB  0141               	movlb	1	; select bank1
  6798     07CC  0832               	movf	efgtoa@w^(0+128),w
  6799     07CD  0140               	movlb	0	; select bank0
  6800     07CE  00A7               	movwf	pad@p
  6801     07CF  0141               	movlb	1	; select bank1
  6802     07D0  082F               	movf	efgtoa@fp^(0+128),w
  6803     07D1  3193  2387  3181   	fcall	_pad
  6804     07D4                     l970:
  6805     07D4  0008               	return
  6806     07D5                     __end_of_efgtoa:
  6807                           
  6808                           	psect	text5
  6809     11E3                     __ptext5:	
  6810 ;; *************** function _strcpy *****************
  6811 ;; Defined at:
  6812 ;;		line 3 in file "C:\Program Files\Microchip\xc8\v2.40\pic\sources\c99\common\strcpy.c"
  6813 ;; Parameters:    Size  Location     Type
  6814 ;;  dest            1    wreg     PTR unsigned char 
  6815 ;;		 -> dbuf(80), 
  6816 ;;  src             2    0[COMMON] PTR const unsigned char 
  6817 ;;		 -> STR_5(4), STR_2(4), 
  6818 ;; Auto vars:     Size  Location     Type
  6819 ;;  dest            1    7[COMMON] PTR unsigned char 
  6820 ;;		 -> dbuf(80), 
  6821 ;;  s               2    4[COMMON] PTR const unsigned char 
  6822 ;;		 -> STR_5(4), STR_2(4), 
  6823 ;;  d               1    6[COMMON] PTR unsigned char 
  6824 ;;		 -> dbuf(80), 
  6825 ;; Return value:  Size  Location     Type
  6826 ;;                  1    wreg      PTR unsigned char 
  6827 ;; Registers used:
  6828 ;;		wreg, fsr0l, fsr0h, fsr1l, fsr1h, status,2, status,0, pclath
  6829 ;; Tracked objects:
  6830 ;;		On entry : 0/0
  6831 ;;		On exit  : 0/0
  6832 ;;		Unchanged: 0/0
  6833 ;; Data sizes:     COMMON   BANK0   BANK1   BANK2   BANK3   BANK4   BANK5   BANK6   BANK7   BANK8   BANK9  BANK10  BANK1
      +1  BANK12  BANK13  BANK14  BANK15  BANK16  BANK17  BANK18  BANK19  BANK20  BANK21  BANK22  BANK23  BANK24  BANK25  BANK2
      +6  BANK27  BANK28  BANK29  BANK30  BANK31  BANK32  BANK33  BANK34  BANK35  BANK36  BANK37  BANK38  BANK39  BANK40  BANK4
      +1  BANK42  BANK43  BANK44  BANK45  BANK46  BANK47  BANK48  BANK49  BANK50
  6834 ;;      Params:         2       0       0       0       0       0       0       0       0       0       0       0       
      +0       0       0       0       0       0       0       0       0       0       0       0       0       0       0       
      +0       0       0       0       0       0       0       0       0       0       0       0       0       0       0       
      +0       0       0       0       0       0       0       0       0       0
  6835 ;;      Locals:         4       0       0       0       0       0       0       0       0       0       0       0       
      +0       0       0       0       0       0       0       0       0       0       0       0       0       0       0       
      +0       0       0       0       0       0       0       0       0       0       0       0       0       0       0       
      +0       0       0       0       0       0       0       0       0       0
  6836 ;;      Temps:          2       0       0       0       0       0       0       0       0       0       0       0       
      +0       0       0       0       0       0       0       0       0       0       0       0       0       0       0       
      +0       0       0       0       0       0       0       0       0       0       0       0       0       0       0       
      +0       0       0       0       0       0       0       0       0       0
  6837 ;;      Totals:         8       0       0       0       0       0       0       0       0       0       0       0       
      +0       0       0       0       0       0       0       0       0       0       0       0       0       0       0       
      +0       0       0       0       0       0       0       0       0       0       0       0       0       0       0       
      +0       0       0       0       0       0       0       0       0       0
  6838 ;;Total ram usage:        8 bytes
  6839 ;; Hardware stack levels used: 1
  6840 ;; This function calls:
  6841 ;;		Nothing
  6842 ;; This function is called by:
  6843 ;;		_efgtoa
  6844 ;; This function uses a non-reentrant model
  6845 ;;
  6846                           
  6847     11E3                     _strcpy:	
  6848                           ;psect for function _strcpy
  6849                           
  6850                           
  6851                           ;incstack = 0
  6852                           ; Regs used in _strcpy: [wreg-fsr1h+status,2+status,0+pclath]
  6853                           ;strcpy@dest stored from wreg
  6854     11E3  00F7               	movwf	strcpy@dest
  6855     11E4                     l3411:
  6856     11E4  0871               	movf	strcpy@src+1,w
  6857     11E5  00F5               	movwf	strcpy@s+1
  6858     11E6  0870               	movf	strcpy@src,w
  6859     11E7  00F4               	movwf	strcpy@s
  6860     11E8  0877               	movf	strcpy@dest,w
  6861     11E9  00F6               	movwf	strcpy@d
  6862     11EA                     l3413:
  6863     11EA  0876               	movf	strcpy@d,w
  6864     11EB  0086               	movwf	6
  6865     11EC  3001               	movlw	1	; select bank2/3
  6866     11ED  0087               	movwf	7
  6867     11EE  0AF6               	incf	strcpy@d,f
  6868     11EF  0875               	movf	strcpy@s+1,w
  6869     11F0  00F3               	movwf	??_strcpy+1
  6870     11F1  0874               	movf	strcpy@s,w
  6871     11F2  00F2               	movwf	??_strcpy
  6872     11F3  0AF4               	incf	strcpy@s,f
  6873     11F4  1903               	skipnz
  6874     11F5  0AF5               	incf	strcpy@s+1,f
  6875     11F6  0872               	movf	??_strcpy,w
  6876     11F7  0084               	movwf	4
  6877     11F8  0873               	movf	??_strcpy+1,w
  6878     11F9  0085               	movwf	5
  6879     11FA  0800               	movf	0,w	;code access
  6880     11FB  3FC0               	movwi [0]fsr1
  6881     11FC  0889               	movf	9,f
  6882     11FD  1D03               	btfss	3,2
  6883     11FE  2A00               	goto	u4091
  6884     11FF  2A01               	goto	u4090
  6885     1200                     u4091:
  6886     1200  29EA               	goto	l3413
  6887     1201                     u4090:
  6888     1201                     l1155:
  6889     1201  0008               	return
  6890     1202                     __end_of_strcpy:
  6891                           
  6892                           	psect	text6
  6893     1387                     __ptext6:	
  6894 ;; *************** function _pad *****************
  6895 ;; Defined at:
  6896 ;;		line 133 in file "C:\Program Files\Microchip\xc8\v2.40\pic\sources\c99\common\doprnt.c"
  6897 ;; Parameters:    Size  Location     Type
  6898 ;;  fp              1    wreg     PTR struct _IO_FILE
  6899 ;;		 -> sprintf@f(10), 
  6900 ;;  buf             1    6[BANK0 ] PTR unsigned char 
  6901 ;;		 -> dbuf(80), 
  6902 ;;  p               2    7[BANK0 ] int 
  6903 ;; Auto vars:     Size  Location     Type
  6904 ;;  fp              1   13[BANK0 ] PTR struct _IO_FILE
  6905 ;;		 -> sprintf@f(10), 
  6906 ;;  w               2   11[BANK0 ] int 
  6907 ;;  i               2    9[BANK0 ] int 
  6908 ;; Return value:  Size  Location     Type
  6909 ;;                  1    wreg      void 
  6910 ;; Registers used:
  6911 ;;		wreg, fsr0l, fsr0h, fsr1l, fsr1h, status,2, status,0, pclath, cstack
  6912 ;; Tracked objects:
  6913 ;;		On entry : 0/0
  6914 ;;		On exit  : 0/0
  6915 ;;		Unchanged: 0/0
  6916 ;; Data sizes:     COMMON   BANK0   BANK1   BANK2   BANK3   BANK4   BANK5   BANK6   BANK7   BANK8   BANK9  BANK10  BANK1
      +1  BANK12  BANK13  BANK14  BANK15  BANK16  BANK17  BANK18  BANK19  BANK20  BANK21  BANK22  BANK23  BANK24  BANK25  BANK2
      +6  BANK27  BANK28  BANK29  BANK30  BANK31  BANK32  BANK33  BANK34  BANK35  BANK36  BANK37  BANK38  BANK39  BANK40  BANK4
      +1  BANK42  BANK43  BANK44  BANK45  BANK46  BANK47  BANK48  BANK49  BANK50
  6917 ;;      Params:         0       3       0       0       0       0       0       0       0       0       0       0       
      +0       0       0       0       0       0       0       0       0       0       0       0       0       0       0       
      +0       0       0       0       0       0       0       0       0       0       0       0       0       0       0       
      +0       0       0       0       0       0       0       0       0       0
  6918 ;;      Locals:         0       5       0       0       0       0       0       0       0       0       0       0       
      +0       0       0       0       0       0       0       0       0       0       0       0       0       0       0       
      +0       0       0       0       0       0       0       0       0       0       0       0       0       0       0       
      +0       0       0       0       0       0       0       0       0       0
  6919 ;;      Temps:          1       0       0       0       0       0       0       0       0       0       0       0       
      +0       0       0       0       0       0       0       0       0       0       0       0       0       0       0       
      +0       0       0       0       0       0       0       0       0       0       0       0       0       0       0       
      +0       0       0       0       0       0       0       0       0       0
  6920 ;;      Totals:         1       8       0       0       0       0       0       0       0       0       0       0       
      +0       0       0       0       0       0       0       0       0       0       0       0       0       0       0       
      +0       0       0       0       0       0       0       0       0       0       0       0       0       0       0       
      +0       0       0       0       0       0       0       0       0       0
  6921 ;;Total ram usage:        9 bytes
  6922 ;; Hardware stack levels used: 1
  6923 ;; Hardware stack levels required when called: 5
  6924 ;; This function calls:
  6925 ;;		_fputc
  6926 ;;		_fputs
  6927 ;; This function is called by:
  6928 ;;		_efgtoa
  6929 ;; This function uses a non-reentrant model
  6930 ;;
  6931                           
  6932     1387                     _pad:	
  6933                           ;psect for function _pad
  6934                           
  6935                           
  6936                           ;incstack = 0
  6937                           ; Regs used in _pad: [wreg-fsr1h+status,2+status,0+pclath+cstack]
  6938                           ;pad@fp stored from wreg
  6939     1387  0140               	movlb	0	; select bank0
  6940     1388  00AD               	movwf	pad@fp
  6941     1389                     l3369:
  6942                           
  6943                           ;C:\Program Files\Microchip\xc8\v2.40\pic\sources\c99\common\doprnt.c: 133: static void 
      +                          pad(FILE *fp, char *buf, int p);C:\Program Files\Microchip\xc8\v2.40\pic\sources\c99\com
      +                          mon\doprnt.c: 134: {;C:\Program Files\Microchip\xc8\v2.40\pic\sources\c99\common\doprnt.
      +                          c: 135:     int i, w;;C:\Program Files\Microchip\xc8\v2.40\pic\sources\c99\common\doprnt
      +                          .c: 139:     if (flags & (1 << 0)) {
  6944     1389  0141               	movlb	1	; select bank1
  6945     138A  1C6A               	btfss	_flags^(0+128),0
  6946     138B  2B8D               	goto	u3971
  6947     138C  2B8E               	goto	u3970
  6948     138D                     u3971:
  6949     138D  2B95               	goto	l3373
  6950     138E                     u3970:
  6951     138E                     l3371:
  6952                           
  6953                           ;C:\Program Files\Microchip\xc8\v2.40\pic\sources\c99\common\doprnt.c: 140:         fput
      +                          s((const char *)buf, fp);
  6954     138E  0140               	movlb	0	; select bank0
  6955     138F  082D               	movf	pad@fp,w
  6956     1390  00FC               	movwf	fputs@fp
  6957     1391  0826               	movf	pad@buf,w
  6958     1392  3192  22AB  3193   	fcall	_fputs
  6959     1395                     l3373:
  6960                           
  6961                           ;C:\Program Files\Microchip\xc8\v2.40\pic\sources\c99\common\doprnt.c: 145:     w = (p <
      +                           0) ? 0 : p;
  6962     1395  0140               	movlb	0	; select bank0
  6963     1396  1BA8               	btfsc	pad@p+1,7
  6964     1397  2B99               	goto	u3981
  6965     1398  2B9A               	goto	u3980
  6966     1399                     u3981:
  6967     1399  2B9F               	goto	l3377
  6968     139A                     u3980:
  6969     139A                     l3375:
  6970     139A  0828               	movf	pad@p+1,w
  6971     139B  00AC               	movwf	pad@w+1
  6972     139C  0827               	movf	pad@p,w
  6973     139D  00AB               	movwf	pad@w
  6974     139E  2BA1               	goto	l954
  6975     139F                     l3377:
  6976     139F  01AB               	clrf	pad@w
  6977     13A0  01AC               	clrf	pad@w+1
  6978     13A1                     l954:
  6979                           
  6980                           ;C:\Program Files\Microchip\xc8\v2.40\pic\sources\c99\common\doprnt.c: 146:     i = 0;
  6981     13A1  01A9               	clrf	pad@i
  6982     13A2  01AA               	clrf	pad@i+1
  6983                           
  6984                           ;C:\Program Files\Microchip\xc8\v2.40\pic\sources\c99\common\doprnt.c: 147:     while (i
      +                           < w) {
  6985     13A3  2BB3               	goto	l3383
  6986     13A4                     l3379:
  6987                           
  6988                           ;C:\Program Files\Microchip\xc8\v2.40\pic\sources\c99\common\doprnt.c: 148:         fput
      +                          c(' ', fp);
  6989     13A4  3020               	movlw	32
  6990     13A5  00F4               	movwf	fputc@c
  6991     13A6  3000               	movlw	0
  6992     13A7  00F5               	movwf	fputc@c+1
  6993     13A8  0140               	movlb	0	; select bank0
  6994     13A9  082D               	movf	pad@fp,w
  6995     13AA  00F6               	movwf	fputc@fp
  6996     13AB  3194  241C  3193   	fcall	_fputc
  6997     13AE                     l3381:
  6998                           
  6999                           ;C:\Program Files\Microchip\xc8\v2.40\pic\sources\c99\common\doprnt.c: 149:         ++i;
  7000     13AE  3001               	movlw	1
  7001     13AF  0140               	movlb	0	; select bank0
  7002     13B0  07A9               	addwf	pad@i,f
  7003     13B1  3000               	movlw	0
  7004     13B2  3DAA               	addwfc	pad@i+1,f
  7005     13B3                     l3383:
  7006                           
  7007                           ;C:\Program Files\Microchip\xc8\v2.40\pic\sources\c99\common\doprnt.c: 147:     while (i
      +                           < w) {
  7008     13B3  082A               	movf	pad@i+1,w
  7009     13B4  3A80               	xorlw	128
  7010     13B5  00FD               	movwf	??_pad
  7011     13B6  082C               	movf	pad@w+1,w
  7012     13B7  3A80               	xorlw	128
  7013     13B8  027D               	subwf	??_pad,w
  7014     13B9  1D03               	skipz
  7015     13BA  2BBD               	goto	u3995
  7016     13BB  082B               	movf	pad@w,w
  7017     13BC  0229               	subwf	pad@i,w
  7018     13BD                     u3995:
  7019     13BD  1C03               	skipc
  7020     13BE  2BC0               	goto	u3991
  7021     13BF  2BC1               	goto	u3990
  7022     13C0                     u3991:
  7023     13C0  2BA4               	goto	l3379
  7024     13C1                     u3990:
  7025     13C1                     l957:
  7026                           
  7027                           ;C:\Program Files\Microchip\xc8\v2.40\pic\sources\c99\common\doprnt.c: 154:     if (!(fl
      +                          ags & (1 << 0))) {
  7028     13C1  0141               	movlb	1	; select bank1
  7029     13C2  186A               	btfsc	_flags^(0+128),0
  7030     13C3  2BC5               	goto	u4001
  7031     13C4  2BC6               	goto	u4000
  7032     13C5                     u4001:
  7033     13C5  2BCD               	goto	l959
  7034     13C6                     u4000:
  7035     13C6                     l3385:
  7036                           
  7037                           ;C:\Program Files\Microchip\xc8\v2.40\pic\sources\c99\common\doprnt.c: 156:         fput
      +                          s((const char *)buf, fp);
  7038     13C6  0140               	movlb	0	; select bank0
  7039     13C7  082D               	movf	pad@fp,w
  7040     13C8  00FC               	movwf	fputs@fp
  7041     13C9  0826               	movf	pad@buf,w
  7042     13CA  3192  22AB  3193   	fcall	_fputs
  7043     13CD                     l959:
  7044     13CD  0008               	return
  7045     13CE                     __end_of_pad:
  7046                           
  7047                           	psect	text7
  7048     12AB                     __ptext7:	
  7049 ;; *************** function _fputs *****************
  7050 ;; Defined at:
  7051 ;;		line 8 in file "C:\Program Files\Microchip\xc8\v2.40\pic\sources\c99\common\nf_fputs.c"
  7052 ;; Parameters:    Size  Location     Type
  7053 ;;  s               1    wreg     PTR const unsigned char 
  7054 ;;		 -> dbuf(80), 
  7055 ;;  fp              1   12[COMMON] PTR struct _IO_FILE
  7056 ;;		 -> sprintf@f(10), 
  7057 ;; Auto vars:     Size  Location     Type
  7058 ;;  s               1    5[BANK0 ] PTR const unsigned char 
  7059 ;;		 -> dbuf(80), 
  7060 ;;  i               2    3[BANK0 ] int 
  7061 ;;  c               1    2[BANK0 ] unsigned char 
  7062 ;; Return value:  Size  Location     Type
  7063 ;;                  2   12[COMMON] int 
  7064 ;; Registers used:
  7065 ;;		wreg, fsr0l, fsr0h, fsr1l, fsr1h, status,2, status,0, pclath, cstack
  7066 ;; Tracked objects:
  7067 ;;		On entry : 0/0
  7068 ;;		On exit  : 0/0
  7069 ;;		Unchanged: 0/0
  7070 ;; Data sizes:     COMMON   BANK0   BANK1   BANK2   BANK3   BANK4   BANK5   BANK6   BANK7   BANK8   BANK9  BANK10  BANK1
      +1  BANK12  BANK13  BANK14  BANK15  BANK16  BANK17  BANK18  BANK19  BANK20  BANK21  BANK22  BANK23  BANK24  BANK25  BANK2
      +6  BANK27  BANK28  BANK29  BANK30  BANK31  BANK32  BANK33  BANK34  BANK35  BANK36  BANK37  BANK38  BANK39  BANK40  BANK4
      +1  BANK42  BANK43  BANK44  BANK45  BANK46  BANK47  BANK48  BANK49  BANK50
  7071 ;;      Params:         1       0       0       0       0       0       0       0       0       0       0       0       
      +0       0       0       0       0       0       0       0       0       0       0       0       0       0       0       
      +0       0       0       0       0       0       0       0       0       0       0       0       0       0       0       
      +0       0       0       0       0       0       0       0       0       0
  7072 ;;      Locals:         0       4       0       0       0       0       0       0       0       0       0       0       
      +0       0       0       0       0       0       0       0       0       0       0       0       0       0       0       
      +0       0       0       0       0       0       0       0       0       0       0       0       0       0       0       
      +0       0       0       0       0       0       0       0       0       0
  7073 ;;      Temps:          0       2       0       0       0       0       0       0       0       0       0       0       
      +0       0       0       0       0       0       0       0       0       0       0       0       0       0       0       
      +0       0       0       0       0       0       0       0       0       0       0       0       0       0       0       
      +0       0       0       0       0       0       0       0       0       0
  7074 ;;      Totals:         1       6       0       0       0       0       0       0       0       0       0       0       
      +0       0       0       0       0       0       0       0       0       0       0       0       0       0       0       
      +0       0       0       0       0       0       0       0       0       0       0       0       0       0       0       
      +0       0       0       0       0       0       0       0       0       0
  7075 ;;Total ram usage:        7 bytes
  7076 ;; Hardware stack levels used: 1
  7077 ;; Hardware stack levels required when called: 4
  7078 ;; This function calls:
  7079 ;;		_fputc
  7080 ;; This function is called by:
  7081 ;;		_pad
  7082 ;; This function uses a non-reentrant model
  7083 ;;
  7084                           
  7085     12AB                     _fputs:	
  7086                           ;psect for function _fputs
  7087                           
  7088                           
  7089                           ;incstack = 0
  7090                           ; Regs used in _fputs: [wreg-fsr1h+status,2+status,0+pclath+cstack]
  7091                           ;fputs@s stored from wreg
  7092     12AB  0140               	movlb	0	; select bank0
  7093     12AC  00A5               	movwf	fputs@s
  7094     12AD                     l2985:
  7095     12AD  01A3               	clrf	fputs@i
  7096     12AE  01A4               	clrf	fputs@i+1
  7097     12AF  2AC1               	goto	l2991
  7098     12B0                     l2987:
  7099     12B0  0822               	movf	fputs@c,w
  7100     12B1  00A0               	movwf	??_fputs
  7101     12B2  01A1               	clrf	??_fputs+1
  7102     12B3  0820               	movf	??_fputs,w
  7103     12B4  00F4               	movwf	fputc@c
  7104     12B5  0821               	movf	??_fputs+1,w
  7105     12B6  00F5               	movwf	fputc@c+1
  7106     12B7  087C               	movf	fputs@fp,w
  7107     12B8  00F6               	movwf	fputc@fp
  7108     12B9  3194  241C  3192   	fcall	_fputc
  7109     12BC                     l2989:
  7110     12BC  3001               	movlw	1
  7111     12BD  0140               	movlb	0	; select bank0
  7112     12BE  07A3               	addwf	fputs@i,f
  7113     12BF  3000               	movlw	0
  7114     12C0  3DA4               	addwfc	fputs@i+1,f
  7115     12C1                     l2991:
  7116     12C1  0823               	movf	fputs@i,w
  7117     12C2  0725               	addwf	fputs@s,w
  7118     12C3  00A0               	movwf	??_fputs
  7119     12C4  0820               	movf	??_fputs,w
  7120     12C5  0086               	movwf	6
  7121     12C6  3001               	movlw	1	; select bank2/3
  7122     12C7  0087               	movwf	7
  7123     12C8  0801               	movf	1,w
  7124     12C9  00A2               	movwf	fputs@c
  7125     12CA  0822               	movf	fputs@c,w
  7126     12CB  1D03               	btfss	3,2
  7127     12CC  2ACE               	goto	u3181
  7128     12CD  2ACF               	goto	u3180
  7129     12CE                     u3181:
  7130     12CE  2AB0               	goto	l2987
  7131     12CF                     u3180:
  7132     12CF                     l1149:
  7133     12CF  0008               	return
  7134     12D0                     __end_of_fputs:
  7135                           
  7136                           	psect	text8
  7137     141C                     __ptext8:	
  7138 ;; *************** function _fputc *****************
  7139 ;; Defined at:
  7140 ;;		line 8 in file "C:\Program Files\Microchip\xc8\v2.40\pic\sources\c99\common\nf_fputc.c"
  7141 ;; Parameters:    Size  Location     Type
  7142 ;;  c               2    4[COMMON] int 
  7143 ;;  fp              1    6[COMMON] PTR struct _IO_FILE
  7144 ;;		 -> sprintf@f(10), 
  7145 ;; Auto vars:     Size  Location     Type
  7146 ;;		None
  7147 ;; Return value:  Size  Location     Type
  7148 ;;                  2    4[COMMON] int 
  7149 ;; Registers used:
  7150 ;;		wreg, fsr0l, fsr0h, fsr1l, fsr1h, status,2, status,0, pclath, cstack
  7151 ;; Tracked objects:
  7152 ;;		On entry : 0/0
  7153 ;;		On exit  : 0/0
  7154 ;;		Unchanged: 0/0
  7155 ;; Data sizes:     COMMON   BANK0   BANK1   BANK2   BANK3   BANK4   BANK5   BANK6   BANK7   BANK8   BANK9  BANK10  BANK1
      +1  BANK12  BANK13  BANK14  BANK15  BANK16  BANK17  BANK18  BANK19  BANK20  BANK21  BANK22  BANK23  BANK24  BANK25  BANK2
      +6  BANK27  BANK28  BANK29  BANK30  BANK31  BANK32  BANK33  BANK34  BANK35  BANK36  BANK37  BANK38  BANK39  BANK40  BANK4
      +1  BANK42  BANK43  BANK44  BANK45  BANK46  BANK47  BANK48  BANK49  BANK50
  7156 ;;      Params:         3       0       0       0       0       0       0       0       0       0       0       0       
      +0       0       0       0       0       0       0       0       0       0       0       0       0       0       0       
      +0       0       0       0       0       0       0       0       0       0       0       0       0       0       0       
      +0       0       0       0       0       0       0       0       0       0
  7157 ;;      Locals:         0       0       0       0       0       0       0       0       0       0       0       0       
      +0       0       0       0       0       0       0       0       0       0       0       0       0       0       0       
      +0       0       0       0       0       0       0       0       0       0       0       0       0       0       0       
      +0       0       0       0       0       0       0       0       0       0
  7158 ;;      Temps:          5       0       0       0       0       0       0       0       0       0       0       0       
      +0       0       0       0       0       0       0       0       0       0       0       0       0       0       0       
      +0       0       0       0       0       0       0       0       0       0       0       0       0       0       0       
      +0       0       0       0       0       0       0       0       0       0
  7159 ;;      Totals:         8       0       0       0       0       0       0       0       0       0       0       0       
      +0       0       0       0       0       0       0       0       0       0       0       0       0       0       0       
      +0       0       0       0       0       0       0       0       0       0       0       0       0       0       0       
      +0       0       0       0       0       0       0       0       0       0
  7160 ;;Total ram usage:        8 bytes
  7161 ;; Hardware stack levels used: 1
  7162 ;; Hardware stack levels required when called: 3
  7163 ;; This function calls:
  7164 ;;		_putch
  7165 ;; This function is called by:
  7166 ;;		_pad
  7167 ;;		_vfpfcnvrt
  7168 ;;		_fputs
  7169 ;; This function uses a non-reentrant model
  7170 ;;
  7171                           
  7172     141C                     _fputc:	
  7173                           ;psect for function _fputc
  7174                           
  7175     141C                     l2761:	
  7176                           ;incstack = 0
  7177                           ; Regs used in _fputc: [wreg-fsr1h+status,2+status,0+pclath+cstack]
  7178                           
  7179     141C  0876               	movf	fputc@fp,w
  7180     141D  1903               	btfsc	3,2
  7181     141E  2C20               	goto	u2681
  7182     141F  2C21               	goto	u2680
  7183     1420                     u2681:
  7184     1420  2C26               	goto	l2765
  7185     1421                     u2680:
  7186     1421                     l2763:
  7187     1421  0876               	movf	fputc@fp,w
  7188     1422  1D03               	btfss	3,2
  7189     1423  2C25               	goto	u2691
  7190     1424  2C26               	goto	u2690
  7191     1425                     u2691:
  7192     1425  2C2B               	goto	l2767
  7193     1426                     u2690:
  7194     1426                     l2765:
  7195     1426  0874               	movf	fputc@c,w
  7196     1427  3190  20A3  3194   	fcall	_putch
  7197     142A  2C6B               	goto	l1141
  7198     142B                     l2767:
  7199     142B  0876               	movf	fputc@fp,w
  7200     142C  3E08               	addlw	8
  7201     142D  0086               	movwf	6
  7202     142E  0187               	clrf	7
  7203     142F  0016               	moviw fsr1++
  7204     1430  0401               	iorwf	1,w
  7205     1431  1903               	btfsc	3,2
  7206     1432  2C34               	goto	u2701
  7207     1433  2C35               	goto	u2700
  7208     1434                     u2701:
  7209     1434  2C53               	goto	l2771
  7210     1435                     u2700:
  7211     1435                     l2769:
  7212     1435  0876               	movf	fputc@fp,w
  7213     1436  3E08               	addlw	8
  7214     1437  0086               	movwf	6
  7215     1438  0187               	clrf	7
  7216     1439  3F40               	moviw [0]fsr1
  7217     143A  00F7               	movwf	??_fputc
  7218     143B  3F41               	moviw [1]fsr1
  7219     143C  00F8               	movwf	??_fputc+1
  7220     143D  0876               	movf	fputc@fp,w
  7221     143E  3E02               	addlw	2
  7222     143F  0086               	movwf	6
  7223     1440  0187               	clrf	7
  7224     1441  3F40               	moviw [0]fsr1
  7225     1442  00F9               	movwf	??_fputc+2
  7226     1443  3F41               	moviw [1]fsr1
  7227     1444  00FA               	movwf	??_fputc+3
  7228     1445  087A               	movf	??_fputc+3,w
  7229     1446  3A80               	xorlw	128
  7230     1447  00FB               	movwf	??_fputc+4
  7231     1448  0878               	movf	??_fputc+1,w
  7232     1449  3A80               	xorlw	128
  7233     144A  027B               	subwf	??_fputc+4,w
  7234     144B  1D03               	skipz
  7235     144C  2C4F               	goto	u2715
  7236     144D  0877               	movf	??_fputc,w
  7237     144E  0279               	subwf	??_fputc+2,w
  7238     144F                     u2715:
  7239     144F  1803               	skipnc
  7240     1450  2C52               	goto	u2711
  7241     1451  2C53               	goto	u2710
  7242     1452                     u2711:
  7243     1452  2C6B               	goto	l1141
  7244     1453                     u2710:
  7245     1453                     l2771:
  7246     1453  0876               	movf	fputc@fp,w
  7247     1454  0086               	movwf	6
  7248     1455  0187               	clrf	7
  7249     1456  0876               	movf	fputc@fp,w
  7250     1457  3E02               	addlw	2
  7251     1458  0084               	movwf	4
  7252     1459  0185               	clrf	5
  7253     145A  0800               	movf	0,w
  7254     145B  0701               	addwf	1,w
  7255     145C  00F7               	movwf	??_fputc
  7256     145D  0877               	movf	??_fputc,w
  7257     145E  0086               	movwf	6
  7258     145F  0187               	clrf	7
  7259     1460  0874               	movf	fputc@c,w
  7260     1461  0081               	movwf	1
  7261     1462                     l2773:
  7262     1462  0876               	movf	fputc@fp,w
  7263     1463  3E02               	addlw	2
  7264     1464  0086               	movwf	6
  7265     1465  0187               	clrf	7
  7266     1466  3001               	movlw	1
  7267     1467  0781               	addwf	1,f
  7268     1468  3141               	addfsr 1,1
  7269     1469  1803               	skipnc
  7270     146A  0A81               	incf	1,f
  7271     146B                     l1141:
  7272     146B  0008               	return
  7273     146C                     __end_of_fputc:
  7274                           
  7275                           	psect	text9
  7276     10A3                     __ptext9:	
  7277 ;; *************** function _putch *****************
  7278 ;; Defined at:
  7279 ;;		line 79 in file "LCD.c"
  7280 ;; Parameters:    Size  Location     Type
  7281 ;;  dato            1    wreg     unsigned char 
  7282 ;; Auto vars:     Size  Location     Type
  7283 ;;  dato            1    3[COMMON] unsigned char 
  7284 ;; Return value:  Size  Location     Type
  7285 ;;                  1    wreg      void 
  7286 ;; Registers used:
  7287 ;;		wreg, status,2, status,0, pclath, cstack
  7288 ;; Tracked objects:
  7289 ;;		On entry : 0/0
  7290 ;;		On exit  : 0/0
  7291 ;;		Unchanged: 0/0
  7292 ;; Data sizes:     COMMON   BANK0   BANK1   BANK2   BANK3   BANK4   BANK5   BANK6   BANK7   BANK8   BANK9  BANK10  BANK1
      +1  BANK12  BANK13  BANK14  BANK15  BANK16  BANK17  BANK18  BANK19  BANK20  BANK21  BANK22  BANK23  BANK24  BANK25  BANK2
      +6  BANK27  BANK28  BANK29  BANK30  BANK31  BANK32  BANK33  BANK34  BANK35  BANK36  BANK37  BANK38  BANK39  BANK40  BANK4
      +1  BANK42  BANK43  BANK44  BANK45  BANK46  BANK47  BANK48  BANK49  BANK50
  7293 ;;      Params:         0       0       0       0       0       0       0       0       0       0       0       0       
      +0       0       0       0       0       0       0       0       0       0       0       0       0       0       0       
      +0       0       0       0       0       0       0       0       0       0       0       0       0       0       0       
      +0       0       0       0       0       0       0       0       0       0
  7294 ;;      Locals:         1       0       0       0       0       0       0       0       0       0       0       0       
      +0       0       0       0       0       0       0       0       0       0       0       0       0       0       0       
      +0       0       0       0       0       0       0       0       0       0       0       0       0       0       0       
      +0       0       0       0       0       0       0       0       0       0
  7295 ;;      Temps:          0       0       0       0       0       0       0       0       0       0       0       0       
      +0       0       0       0       0       0       0       0       0       0       0       0       0       0       0       
      +0       0       0       0       0       0       0       0       0       0       0       0       0       0       0       
      +0       0       0       0       0       0       0       0       0       0
  7296 ;;      Totals:         1       0       0       0       0       0       0       0       0       0       0       0       
      +0       0       0       0       0       0       0       0       0       0       0       0       0       0       0       
      +0       0       0       0       0       0       0       0       0       0       0       0       0       0       0       
      +0       0       0       0       0       0       0       0       0       0
  7297 ;;Total ram usage:        1 bytes
  7298 ;; Hardware stack levels used: 1
  7299 ;; Hardware stack levels required when called: 2
  7300 ;; This function calls:
  7301 ;;		_LCD_dato
  7302 ;; This function is called by:
  7303 ;;		_fputc
  7304 ;; This function uses a non-reentrant model
  7305 ;;
  7306                           
  7307     10A3                     _putch:	
  7308                           ;psect for function _putch
  7309                           
  7310                           
  7311                           ;incstack = 0
  7312                           ; Regs used in _putch: [wreg+status,2+status,0+pclath+cstack]
  7313                           ;putch@dato stored from wreg
  7314     10A3  00F3               	movwf	putch@dato
  7315     10A4                     l2759:
  7316                           
  7317                           ;LCD.c: 80:     LCD_dato(dato);
  7318     10A4  0873               	movf	putch@dato,w
  7319     10A5  3190  20CC  3190   	fcall	_LCD_dato
  7320     10A8                     l116:
  7321     10A8  0008               	return
  7322     10A9                     __end_of_putch:
  7323                           
  7324                           	psect	text10
  7325     12D0                     __ptext10:	
  7326 ;; *************** function _memcpy *****************
  7327 ;; Defined at:
  7328 ;;		line 4 in file "C:\Program Files\Microchip\xc8\v2.40\pic\sources\c99\common\memcpy.c"
  7329 ;; Parameters:    Size  Location     Type
  7330 ;;  d1              1    wreg     PTR void 
  7331 ;;		 -> dbuf(80), 
  7332 ;;  s1              1    0[COMMON] PTR const void 
  7333 ;;		 -> dbuf(80), 
  7334 ;;  n               2    1[COMMON] unsigned int 
  7335 ;; Auto vars:     Size  Location     Type
  7336 ;;  d1              1    5[COMMON] PTR void 
  7337 ;;		 -> dbuf(80), 
  7338 ;;  s               1    7[COMMON] PTR const unsigned char 
  7339 ;;		 -> dbuf(80), 
  7340 ;;  d               1    6[COMMON] PTR unsigned char 
  7341 ;;		 -> dbuf(80), 
  7342 ;;  tmp             1    4[COMMON] unsigned char 
  7343 ;; Return value:  Size  Location     Type
  7344 ;;                  1    wreg      PTR void 
  7345 ;; Registers used:
  7346 ;;		wreg, fsr1l, fsr1h, status,2, status,0
  7347 ;; Tracked objects:
  7348 ;;		On entry : 0/0
  7349 ;;		On exit  : 0/0
  7350 ;;		Unchanged: 0/0
  7351 ;; Data sizes:     COMMON   BANK0   BANK1   BANK2   BANK3   BANK4   BANK5   BANK6   BANK7   BANK8   BANK9  BANK10  BANK1
      +1  BANK12  BANK13  BANK14  BANK15  BANK16  BANK17  BANK18  BANK19  BANK20  BANK21  BANK22  BANK23  BANK24  BANK25  BANK2
      +6  BANK27  BANK28  BANK29  BANK30  BANK31  BANK32  BANK33  BANK34  BANK35  BANK36  BANK37  BANK38  BANK39  BANK40  BANK4
      +1  BANK42  BANK43  BANK44  BANK45  BANK46  BANK47  BANK48  BANK49  BANK50
  7352 ;;      Params:         3       0       0       0       0       0       0       0       0       0       0       0       
      +0       0       0       0       0       0       0       0       0       0       0       0       0       0       0       
      +0       0       0       0       0       0       0       0       0       0       0       0       0       0       0       
      +0       0       0       0       0       0       0       0       0       0
  7353 ;;      Locals:         4       0       0       0       0       0       0       0       0       0       0       0       
      +0       0       0       0       0       0       0       0       0       0       0       0       0       0       0       
      +0       0       0       0       0       0       0       0       0       0       0       0       0       0       0       
      +0       0       0       0       0       0       0       0       0       0
  7354 ;;      Temps:          1       0       0       0       0       0       0       0       0       0       0       0       
      +0       0       0       0       0       0       0       0       0       0       0       0       0       0       0       
      +0       0       0       0       0       0       0       0       0       0       0       0       0       0       0       
      +0       0       0       0       0       0       0       0       0       0
  7355 ;;      Totals:         8       0       0       0       0       0       0       0       0       0       0       0       
      +0       0       0       0       0       0       0       0       0       0       0       0       0       0       0       
      +0       0       0       0       0       0       0       0       0       0       0       0       0       0       0       
      +0       0       0       0       0       0       0       0       0       0
  7356 ;;Total ram usage:        8 bytes
  7357 ;; Hardware stack levels used: 1
  7358 ;; This function calls:
  7359 ;;		Nothing
  7360 ;; This function is called by:
  7361 ;;		_efgtoa
  7362 ;; This function uses a non-reentrant model
  7363 ;;
  7364                           
  7365     12D0                     _memcpy:	
  7366                           ;psect for function _memcpy
  7367                           
  7368                           
  7369                           ;incstack = 0
  7370                           ; Regs used in _memcpy: [wreg+fsr1l+fsr1h+status,2+status,0]
  7371                           ;memcpy@d1 stored from wreg
  7372     12D0  00F5               	movwf	memcpy@d1
  7373     12D1                     l3449:
  7374     12D1  0870               	movf	memcpy@s1,w
  7375     12D2  00F7               	movwf	memcpy@s
  7376     12D3  0875               	movf	memcpy@d1,w
  7377     12D4  00F6               	movwf	memcpy@d
  7378     12D5  2AEA               	goto	l1126
  7379     12D6                     l3451:
  7380     12D6  0877               	movf	memcpy@s,w
  7381     12D7  0086               	movwf	6
  7382     12D8  3001               	movlw	1	; select bank2/3
  7383     12D9  0087               	movwf	7
  7384     12DA  0801               	movf	1,w
  7385     12DB  00F4               	movwf	memcpy@tmp
  7386     12DC                     l3453:
  7387     12DC  3001               	movlw	1
  7388     12DD  00F3               	movwf	??_memcpy
  7389     12DE  0873               	movf	??_memcpy,w
  7390     12DF  07F7               	addwf	memcpy@s,f
  7391     12E0                     l3455:
  7392     12E0  0876               	movf	memcpy@d,w
  7393     12E1  0086               	movwf	6
  7394     12E2  3001               	movlw	1	; select bank2/3
  7395     12E3  0087               	movwf	7
  7396     12E4  0874               	movf	memcpy@tmp,w
  7397     12E5  0081               	movwf	1
  7398     12E6  3001               	movlw	1
  7399     12E7  00F3               	movwf	??_memcpy
  7400     12E8  0873               	movf	??_memcpy,w
  7401     12E9  07F6               	addwf	memcpy@d,f
  7402     12EA                     l1126:
  7403     12EA  3001               	movlw	1
  7404     12EB  02F1               	subwf	memcpy@n,f
  7405     12EC  3000               	movlw	0
  7406     12ED  3BF2               	subwfb	memcpy@n+1,f
  7407     12EE  0A71               	incf	memcpy@n,w
  7408     12EF  1D03               	skipz
  7409     12F0  2AF5               	goto	u4221
  7410     12F1  0A72               	incf	memcpy@n+1,w
  7411     12F2  1D03               	btfss	3,2
  7412     12F3  2AF5               	goto	u4221
  7413     12F4  2AF6               	goto	u4220
  7414     12F5                     u4221:
  7415     12F5  2AD6               	goto	l3451
  7416     12F6                     u4220:
  7417     12F6                     l1129:
  7418     12F6  0008               	return
  7419     12F7                     __end_of_memcpy:
  7420                           
  7421                           	psect	text11
  7422     1243                     __ptext11:	
  7423 ;; *************** function _labs *****************
  7424 ;; Defined at:
  7425 ;;		line 1 in file "C:\Program Files\Microchip\xc8\v2.40\pic\sources\c99\common\labs.c"
  7426 ;; Parameters:    Size  Location     Type
  7427 ;;  a               4    0[COMMON] long 
  7428 ;; Auto vars:     Size  Location     Type
  7429 ;;		None
  7430 ;; Return value:  Size  Location     Type
  7431 ;;                  4    0[COMMON] long 
  7432 ;; Registers used:
  7433 ;;		wreg, status,2, status,0
  7434 ;; Tracked objects:
  7435 ;;		On entry : 0/0
  7436 ;;		On exit  : 0/0
  7437 ;;		Unchanged: 0/0
  7438 ;; Data sizes:     COMMON   BANK0   BANK1   BANK2   BANK3   BANK4   BANK5   BANK6   BANK7   BANK8   BANK9  BANK10  BANK1
      +1  BANK12  BANK13  BANK14  BANK15  BANK16  BANK17  BANK18  BANK19  BANK20  BANK21  BANK22  BANK23  BANK24  BANK25  BANK2
      +6  BANK27  BANK28  BANK29  BANK30  BANK31  BANK32  BANK33  BANK34  BANK35  BANK36  BANK37  BANK38  BANK39  BANK40  BANK4
      +1  BANK42  BANK43  BANK44  BANK45  BANK46  BANK47  BANK48  BANK49  BANK50
  7439 ;;      Params:         4       0       0       0       0       0       0       0       0       0       0       0       
      +0       0       0       0       0       0       0       0       0       0       0       0       0       0       0       
      +0       0       0       0       0       0       0       0       0       0       0       0       0       0       0       
      +0       0       0       0       0       0       0       0       0       0
  7440 ;;      Locals:         0       0       0       0       0       0       0       0       0       0       0       0       
      +0       0       0       0       0       0       0       0       0       0       0       0       0       0       0       
      +0       0       0       0       0       0       0       0       0       0       0       0       0       0       0       
      +0       0       0       0       0       0       0       0       0       0
  7441 ;;      Temps:          0       0       0       0       0       0       0       0       0       0       0       0       
      +0       0       0       0       0       0       0       0       0       0       0       0       0       0       0       
      +0       0       0       0       0       0       0       0       0       0       0       0       0       0       0       
      +0       0       0       0       0       0       0       0       0       0
  7442 ;;      Totals:         4       0       0       0       0       0       0       0       0       0       0       0       
      +0       0       0       0       0       0       0       0       0       0       0       0       0       0       0       
      +0       0       0       0       0       0       0       0       0       0       0       0       0       0       0       
      +0       0       0       0       0       0       0       0       0       0
  7443 ;;Total ram usage:        4 bytes
  7444 ;; Hardware stack levels used: 1
  7445 ;; This function calls:
  7446 ;;		Nothing
  7447 ;; This function is called by:
  7448 ;;		_efgtoa
  7449 ;; This function uses a non-reentrant model
  7450 ;;
  7451                           
  7452     1243                     _labs:	
  7453                           ;psect for function _labs
  7454                           
  7455     1243                     l3415:	
  7456                           ;incstack = 0
  7457                           ; Regs used in _labs: [wreg+status,2+status,0]
  7458                           
  7459     1243  1BF3               	btfsc	labs@a+3,7
  7460     1244  2A54               	goto	u4100
  7461     1245  0873               	movf	labs@a+3,w
  7462     1246  1D03               	btfss	3,2
  7463     1247  2A53               	goto	u4101
  7464     1248  0872               	movf	labs@a+2,w
  7465     1249  1D03               	btfss	3,2
  7466     124A  2A53               	goto	u4101
  7467     124B  0871               	movf	labs@a+1,w
  7468     124C  1D03               	btfss	3,2
  7469     124D  2A53               	goto	u4101
  7470     124E  3001               	movlw	1
  7471     124F  0270               	subwf	labs@a,w
  7472     1250  1803               	btfsc	3,0
  7473     1251  2A53               	goto	u4101
  7474     1252  2A54               	goto	u4100
  7475     1253                     u4101:
  7476     1253  2A64               	goto	l1120
  7477     1254                     u4100:
  7478     1254                     l3417:
  7479     1254  0970               	comf	labs@a,w
  7480     1255  00F0               	movwf	?_labs
  7481     1256  0971               	comf	labs@a+1,w
  7482     1257  00F1               	movwf	?_labs+1
  7483     1258  0972               	comf	labs@a+2,w
  7484     1259  00F2               	movwf	?_labs+2
  7485     125A  0973               	comf	labs@a+3,w
  7486     125B  00F3               	movwf	?_labs+3
  7487     125C  0AF0               	incf	?_labs,f
  7488     125D  1903               	skipnz
  7489     125E  0AF1               	incf	?_labs+1,f
  7490     125F  1903               	skipnz
  7491     1260  0AF2               	incf	?_labs+2,f
  7492     1261  1903               	skipnz
  7493     1262  0AF3               	incf	?_labs+3,f
  7494     1263  2A64               	goto	l1123
  7495     1264                     l1120:
  7496     1264                     l1123:
  7497     1264  0008               	return
  7498     1265                     __end_of_labs:
  7499                           
  7500                           	psect	text12
  7501     00C2                     __ptext12:	
  7502 ;; *************** function _floorf *****************
  7503 ;; Defined at:
  7504 ;;		line 3 in file "C:\Program Files\Microchip\xc8\v2.40\pic\sources\c99\common\floorf.c"
  7505 ;; Parameters:    Size  Location     Type
  7506 ;;  x               4   13[BANK0 ] float 
  7507 ;; Auto vars:     Size  Location     Type
  7508 ;;  u               4   29[BANK0 ] struct .
  7509 ;;  m               4   23[BANK0 ] unsigned long 
  7510 ;;  e               2   27[BANK0 ] int 
  7511 ;; Return value:  Size  Location     Type
  7512 ;;                  4   13[BANK0 ] float 
  7513 ;; Registers used:
  7514 ;;		wreg, status,2, status,0
  7515 ;; Tracked objects:
  7516 ;;		On entry : 0/0
  7517 ;;		On exit  : 0/0
  7518 ;;		Unchanged: 0/0
  7519 ;; Data sizes:     COMMON   BANK0   BANK1   BANK2   BANK3   BANK4   BANK5   BANK6   BANK7   BANK8   BANK9  BANK10  BANK1
      +1  BANK12  BANK13  BANK14  BANK15  BANK16  BANK17  BANK18  BANK19  BANK20  BANK21  BANK22  BANK23  BANK24  BANK25  BANK2
      +6  BANK27  BANK28  BANK29  BANK30  BANK31  BANK32  BANK33  BANK34  BANK35  BANK36  BANK37  BANK38  BANK39  BANK40  BANK4
      +1  BANK42  BANK43  BANK44  BANK45  BANK46  BANK47  BANK48  BANK49  BANK50
  7520 ;;      Params:         0       4       0       0       0       0       0       0       0       0       0       0       
      +0       0       0       0       0       0       0       0       0       0       0       0       0       0       0       
      +0       0       0       0       0       0       0       0       0       0       0       0       0       0       0       
      +0       0       0       0       0       0       0       0       0       0
  7521 ;;      Locals:         0      10       0       0       0       0       0       0       0       0       0       0       
      +0       0       0       0       0       0       0       0       0       0       0       0       0       0       0       
      +0       0       0       0       0       0       0       0       0       0       0       0       0       0       0       
      +0       0       0       0       0       0       0       0       0       0
  7522 ;;      Temps:          0       6       0       0       0       0       0       0       0       0       0       0       
      +0       0       0       0       0       0       0       0       0       0       0       0       0       0       0       
      +0       0       0       0       0       0       0       0       0       0       0       0       0       0       0       
      +0       0       0       0       0       0       0       0       0       0
  7523 ;;      Totals:         0      20       0       0       0       0       0       0       0       0       0       0       
      +0       0       0       0       0       0       0       0       0       0       0       0       0       0       0       
      +0       0       0       0       0       0       0       0       0       0       0       0       0       0       0       
      +0       0       0       0       0       0       0       0       0       0
  7524 ;;Total ram usage:       20 bytes
  7525 ;; Hardware stack levels used: 1
  7526 ;; This function calls:
  7527 ;;		Nothing
  7528 ;; This function is called by:
  7529 ;;		_efgtoa
  7530 ;; This function uses a non-reentrant model
  7531 ;;
  7532                           
  7533     00C2                     _floorf:	
  7534                           ;psect for function _floorf
  7535                           
  7536     00C2                     l3419:	
  7537                           ;incstack = 0
  7538                           ; Regs used in _floorf: [wreg+status,2+status,0]
  7539                           
  7540     00C2  0142               	movlb	2	; select bank2
  7541     00C3  082B               	movf	(floorf@F526+3)^(0+256),w
  7542     00C4  0140               	movlb	0	; select bank0
  7543     00C5  00C0               	movwf	floorf@u+3
  7544     00C6  0142               	movlb	2	; select bank2
  7545     00C7  082A               	movf	(floorf@F526+2)^(0+256),w
  7546     00C8  0140               	movlb	0	; select bank0
  7547     00C9  00BF               	movwf	floorf@u+2
  7548     00CA  0142               	movlb	2	; select bank2
  7549     00CB  0829               	movf	(floorf@F526+1)^(0+256),w
  7550     00CC  0140               	movlb	0	; select bank0
  7551     00CD  00BE               	movwf	floorf@u+1
  7552     00CE  0142               	movlb	2	; select bank2
  7553     00CF  0828               	movf	floorf@F526^(0+256),w
  7554     00D0  0140               	movlb	0	; select bank0
  7555     00D1  00BD               	movwf	floorf@u
  7556     00D2  0830               	movf	floorf@x+3,w
  7557     00D3  00C0               	movwf	floorf@u+3
  7558     00D4  082F               	movf	floorf@x+2,w
  7559     00D5  00BF               	movwf	floorf@u+2
  7560     00D6  082E               	movf	floorf@x+1,w
  7561     00D7  00BE               	movwf	floorf@u+1
  7562     00D8  082D               	movf	floorf@x,w
  7563     00D9  00BD               	movwf	floorf@u
  7564     00DA                     l3421:
  7565     00DA  083D               	movf	floorf@u,w
  7566     00DB  00B1               	movwf	??_floorf
  7567     00DC  083E               	movf	floorf@u+1,w
  7568     00DD  00B2               	movwf	??_floorf+1
  7569     00DE  083F               	movf	floorf@u+2,w
  7570     00DF  00B3               	movwf	??_floorf+2
  7571     00E0  0840               	movf	floorf@u+3,w
  7572     00E1  00B4               	movwf	??_floorf+3
  7573     00E2  3017               	movlw	23
  7574     00E3                     u4115:
  7575     00E3  36B4               	lsrf	??_floorf+3,f
  7576     00E4  0CB3               	rrf	??_floorf+2,f
  7577     00E5  0CB2               	rrf	??_floorf+1,f
  7578     00E6  0CB1               	rrf	??_floorf,f
  7579     00E7                     u4110:
  7580     00E7  0B89               	decfsz	9,f
  7581     00E8  28E3               	goto	u4115
  7582     00E9  30FF               	movlw	255
  7583     00EA  0531               	andwf	??_floorf,w
  7584     00EB  00B5               	movwf	??_floorf+4
  7585     00EC  3000               	movlw	0
  7586     00ED  0532               	andwf	??_floorf+1,w
  7587     00EE  00B6               	movwf	??_floorf+5
  7588     00EF  0835               	movf	??_floorf+4,w
  7589     00F0  3E81               	addlw	129
  7590     00F1  00BB               	movwf	floorf@e
  7591     00F2  30FF               	movlw	255
  7592     00F3  3D36               	addwfc	??_floorf+5,w
  7593     00F4  00BC               	movwf	floorf@e+1
  7594     00F5                     l3423:
  7595     00F5  083C               	movf	floorf@e+1,w
  7596     00F6  3A80               	xorlw	128
  7597     00F7  00B1               	movwf	??_floorf
  7598     00F8  3080               	movlw	128
  7599     00F9  0231               	subwf	??_floorf,w
  7600     00FA  1D03               	skipz
  7601     00FB  28FE               	goto	u4125
  7602     00FC  3017               	movlw	23
  7603     00FD  023B               	subwf	floorf@e,w
  7604     00FE                     u4125:
  7605     00FE  1C03               	skipc
  7606     00FF  2901               	goto	u4121
  7607     0100  2902               	goto	u4120
  7608     0101                     u4121:
  7609     0101  2903               	goto	l1094
  7610     0102                     u4120:
  7611     0102                     l3425:
  7612     0102  29AC               	goto	l1095
  7613     0103                     l1094:
  7614     0103  0140               	movlb	0	; select bank0
  7615     0104  1BBC               	btfsc	floorf@e+1,7
  7616     0105  2907               	goto	u4131
  7617     0106  2908               	goto	u4130
  7618     0107                     u4131:
  7619     0107  2965               	goto	l3439
  7620     0108                     u4130:
  7621     0108                     l3427:
  7622     0108  30FF               	movlw	255
  7623     0109  00B1               	movwf	??_floorf
  7624     010A  30FF               	movlw	255
  7625     010B  00B2               	movwf	??_floorf+1
  7626     010C  307F               	movlw	127
  7627     010D  00B3               	movwf	??_floorf+2
  7628     010E  3000               	movlw	0
  7629     010F  00B4               	movwf	??_floorf+3
  7630     0110  0A3B               	incf	floorf@e,w
  7631     0111  2916               	goto	u4140
  7632     0112                     u4145:
  7633     0112  37B4               	asrf	??_floorf+3,f
  7634     0113  0CB3               	rrf	??_floorf+2,f
  7635     0114  0CB2               	rrf	??_floorf+1,f
  7636     0115  0CB1               	rrf	??_floorf,f
  7637     0116                     u4140:
  7638     0116  0B89               	decfsz	9,f
  7639     0117  2912               	goto	u4145
  7640     0118  0834               	movf	??_floorf+3,w
  7641     0119  00BA               	movwf	floorf@m+3
  7642     011A  0833               	movf	??_floorf+2,w
  7643     011B  00B9               	movwf	floorf@m+2
  7644     011C  0832               	movf	??_floorf+1,w
  7645     011D  00B8               	movwf	floorf@m+1
  7646     011E  0831               	movf	??_floorf,w
  7647     011F  00B7               	movwf	floorf@m
  7648     0120                     l3429:
  7649     0120  083D               	movf	floorf@u,w
  7650     0121  0537               	andwf	floorf@m,w
  7651     0122  00B1               	movwf	??_floorf
  7652     0123  083E               	movf	floorf@u+1,w
  7653     0124  0538               	andwf	floorf@m+1,w
  7654     0125  00B2               	movwf	??_floorf+1
  7655     0126  083F               	movf	floorf@u+2,w
  7656     0127  0539               	andwf	floorf@m+2,w
  7657     0128  00B3               	movwf	??_floorf+2
  7658     0129  0840               	movf	floorf@u+3,w
  7659     012A  053A               	andwf	floorf@m+3,w
  7660     012B  00B4               	movwf	??_floorf+3
  7661     012C  0834               	movf	??_floorf+3,w
  7662     012D  0433               	iorwf	??_floorf+2,w
  7663     012E  0432               	iorwf	??_floorf+1,w
  7664     012F  0431               	iorwf	??_floorf,w
  7665     0130  1D03               	skipz
  7666     0131  2933               	goto	u4151
  7667     0132  2934               	goto	u4150
  7668     0133                     u4151:
  7669     0133  2935               	goto	l3433
  7670     0134                     u4150:
  7671     0134  2902               	goto	l3425
  7672     0135                     l3433:
  7673     0135  083D               	movf	floorf@u,w
  7674     0136  00B1               	movwf	??_floorf
  7675     0137  083E               	movf	floorf@u+1,w
  7676     0138  00B2               	movwf	??_floorf+1
  7677     0139  083F               	movf	floorf@u+2,w
  7678     013A  00B3               	movwf	??_floorf+2
  7679     013B  0840               	movf	floorf@u+3,w
  7680     013C  00B4               	movwf	??_floorf+3
  7681     013D  301F               	movlw	31
  7682     013E                     u4165:
  7683     013E  36B4               	lsrf	??_floorf+3,f
  7684     013F  0CB3               	rrf	??_floorf+2,f
  7685     0140  0CB2               	rrf	??_floorf+1,f
  7686     0141  0CB1               	rrf	??_floorf,f
  7687     0142                     u4160:
  7688     0142  0B89               	decfsz	9,f
  7689     0143  293E               	goto	u4165
  7690     0144  0834               	movf	??_floorf+3,w
  7691     0145  0433               	iorwf	??_floorf+2,w
  7692     0146  0432               	iorwf	??_floorf+1,w
  7693     0147  0431               	iorwf	??_floorf,w
  7694     0148  1903               	skipnz
  7695     0149  294B               	goto	u4171
  7696     014A  294C               	goto	u4170
  7697     014B                     u4171:
  7698     014B  2954               	goto	l3437
  7699     014C                     u4170:
  7700     014C                     l3435:
  7701     014C  0837               	movf	floorf@m,w
  7702     014D  07BD               	addwf	floorf@u,f
  7703     014E  0838               	movf	floorf@m+1,w
  7704     014F  3DBE               	addwfc	floorf@u+1,f
  7705     0150  0839               	movf	floorf@m+2,w
  7706     0151  3DBF               	addwfc	floorf@u+2,f
  7707     0152  083A               	movf	floorf@m+3,w
  7708     0153  3DC0               	addwfc	floorf@u+3,f
  7709     0154                     l3437:
  7710     0154  0937               	comf	floorf@m,w
  7711     0155  00B1               	movwf	??_floorf
  7712     0156  0938               	comf	floorf@m+1,w
  7713     0157  00B2               	movwf	??_floorf+1
  7714     0158  0939               	comf	floorf@m+2,w
  7715     0159  00B3               	movwf	??_floorf+2
  7716     015A  093A               	comf	floorf@m+3,w
  7717     015B  00B4               	movwf	??_floorf+3
  7718     015C  0831               	movf	??_floorf,w
  7719     015D  05BD               	andwf	floorf@u,f
  7720     015E  0832               	movf	??_floorf+1,w
  7721     015F  05BE               	andwf	floorf@u+1,f
  7722     0160  0833               	movf	??_floorf+2,w
  7723     0161  05BF               	andwf	floorf@u+2,f
  7724     0162  0834               	movf	??_floorf+3,w
  7725     0163  05C0               	andwf	floorf@u+3,f
  7726     0164  29A4               	goto	l1099
  7727     0165                     l3439:
  7728     0165  083D               	movf	floorf@u,w
  7729     0166  00B1               	movwf	??_floorf
  7730     0167  083E               	movf	floorf@u+1,w
  7731     0168  00B2               	movwf	??_floorf+1
  7732     0169  083F               	movf	floorf@u+2,w
  7733     016A  00B3               	movwf	??_floorf+2
  7734     016B  0840               	movf	floorf@u+3,w
  7735     016C  00B4               	movwf	??_floorf+3
  7736     016D  301F               	movlw	31
  7737     016E                     u4185:
  7738     016E  36B4               	lsrf	??_floorf+3,f
  7739     016F  0CB3               	rrf	??_floorf+2,f
  7740     0170  0CB2               	rrf	??_floorf+1,f
  7741     0171  0CB1               	rrf	??_floorf,f
  7742     0172                     u4180:
  7743     0172  0B89               	decfsz	9,f
  7744     0173  296E               	goto	u4185
  7745     0174  0834               	movf	??_floorf+3,w
  7746     0175  0433               	iorwf	??_floorf+2,w
  7747     0176  0432               	iorwf	??_floorf+1,w
  7748     0177  0431               	iorwf	??_floorf,w
  7749     0178  1D03               	skipz
  7750     0179  297B               	goto	u4191
  7751     017A  297C               	goto	u4190
  7752     017B                     u4191:
  7753     017B  2985               	goto	l3443
  7754     017C                     u4190:
  7755     017C                     l3441:
  7756     017C  3000               	movlw	0
  7757     017D  00C0               	movwf	floorf@u+3
  7758     017E  3000               	movlw	0
  7759     017F  00BF               	movwf	floorf@u+2
  7760     0180  3000               	movlw	0
  7761     0181  00BE               	movwf	floorf@u+1
  7762     0182  3000               	movlw	0
  7763     0183  00BD               	movwf	floorf@u
  7764     0184  29A4               	goto	l1099
  7765     0185                     l3443:
  7766     0185  083D               	movf	floorf@u,w
  7767     0186  00B1               	movwf	??_floorf
  7768     0187  083E               	movf	floorf@u+1,w
  7769     0188  00B2               	movwf	??_floorf+1
  7770     0189  083F               	movf	floorf@u+2,w
  7771     018A  00B3               	movwf	??_floorf+2
  7772     018B  0840               	movf	floorf@u+3,w
  7773     018C  00B4               	movwf	??_floorf+3
  7774     018D  3001               	movlw	1
  7775     018E                     u4205:
  7776     018E  35B1               	lslf	??_floorf,f
  7777     018F  0DB2               	rlf	??_floorf+1,f
  7778     0190  0DB3               	rlf	??_floorf+2,f
  7779     0191  0DB4               	rlf	??_floorf+3,f
  7780     0192                     u4200:
  7781     0192  0B89               	decfsz	9,f
  7782     0193  298E               	goto	u4205
  7783     0194  0834               	movf	??_floorf+3,w
  7784     0195  0433               	iorwf	??_floorf+2,w
  7785     0196  0432               	iorwf	??_floorf+1,w
  7786     0197  0431               	iorwf	??_floorf,w
  7787     0198  1903               	skipnz
  7788     0199  299B               	goto	u4211
  7789     019A  299C               	goto	u4210
  7790     019B                     u4211:
  7791     019B  29A4               	goto	l1099
  7792     019C                     u4210:
  7793     019C                     l3445:
  7794     019C  30BF               	movlw	191
  7795     019D  00C0               	movwf	floorf@u+3
  7796     019E  3080               	movlw	128
  7797     019F  00BF               	movwf	floorf@u+2
  7798     01A0  3000               	movlw	0
  7799     01A1  00BE               	movwf	floorf@u+1
  7800     01A2  3000               	movlw	0
  7801     01A3  00BD               	movwf	floorf@u
  7802     01A4                     l1099:
  7803     01A4  0840               	movf	floorf@u+3,w
  7804     01A5  00B0               	movwf	?_floorf+3
  7805     01A6  083F               	movf	floorf@u+2,w
  7806     01A7  00AF               	movwf	?_floorf+2
  7807     01A8  083E               	movf	floorf@u+1,w
  7808     01A9  00AE               	movwf	?_floorf+1
  7809     01AA  083D               	movf	floorf@u,w
  7810     01AB  00AD               	movwf	?_floorf
  7811     01AC                     l1095:
  7812     01AC  0008               	return
  7813     01AD                     __end_of_floorf:
  7814                           
  7815                           	psect	text13
  7816     15E0                     __ptext13:	
  7817 ;; *************** function ___fpclassifyf *****************
  7818 ;; Defined at:
  7819 ;;		line 4 in file "C:\Program Files\Microchip\xc8\v2.40\pic\sources\c99\common\__fpclassifyf.c"
  7820 ;; Parameters:    Size  Location     Type
  7821 ;;  x               4    0[COMMON] float 
  7822 ;; Auto vars:     Size  Location     Type
  7823 ;;  u               4    2[BANK0 ] struct .
  7824 ;;  e               2    0[BANK0 ] int 
  7825 ;; Return value:  Size  Location     Type
  7826 ;;                  2    0[COMMON] int 
  7827 ;; Registers used:
  7828 ;;		wreg, status,2, status,0
  7829 ;; Tracked objects:
  7830 ;;		On entry : 0/0
  7831 ;;		On exit  : 0/0
  7832 ;;		Unchanged: 0/0
  7833 ;; Data sizes:     COMMON   BANK0   BANK1   BANK2   BANK3   BANK4   BANK5   BANK6   BANK7   BANK8   BANK9  BANK10  BANK1
      +1  BANK12  BANK13  BANK14  BANK15  BANK16  BANK17  BANK18  BANK19  BANK20  BANK21  BANK22  BANK23  BANK24  BANK25  BANK2
      +6  BANK27  BANK28  BANK29  BANK30  BANK31  BANK32  BANK33  BANK34  BANK35  BANK36  BANK37  BANK38  BANK39  BANK40  BANK4
      +1  BANK42  BANK43  BANK44  BANK45  BANK46  BANK47  BANK48  BANK49  BANK50
  7834 ;;      Params:         4       0       0       0       0       0       0       0       0       0       0       0       
      +0       0       0       0       0       0       0       0       0       0       0       0       0       0       0       
      +0       0       0       0       0       0       0       0       0       0       0       0       0       0       0       
      +0       0       0       0       0       0       0       0       0       0
  7835 ;;      Locals:         0       6       0       0       0       0       0       0       0       0       0       0       
      +0       0       0       0       0       0       0       0       0       0       0       0       0       0       0       
      +0       0       0       0       0       0       0       0       0       0       0       0       0       0       0       
      +0       0       0       0       0       0       0       0       0       0
  7836 ;;      Temps:          6       0       0       0       0       0       0       0       0       0       0       0       
      +0       0       0       0       0       0       0       0       0       0       0       0       0       0       0       
      +0       0       0       0       0       0       0       0       0       0       0       0       0       0       0       
      +0       0       0       0       0       0       0       0       0       0
  7837 ;;      Totals:        10       6       0       0       0       0       0       0       0       0       0       0       
      +0       0       0       0       0       0       0       0       0       0       0       0       0       0       0       
      +0       0       0       0       0       0       0       0       0       0       0       0       0       0       0       
      +0       0       0       0       0       0       0       0       0       0
  7838 ;;Total ram usage:       16 bytes
  7839 ;; Hardware stack levels used: 1
  7840 ;; This function calls:
  7841 ;;		Nothing
  7842 ;; This function is called by:
  7843 ;;		_efgtoa
  7844 ;; This function uses a non-reentrant model
  7845 ;;
  7846                           
  7847     15E0                     ___fpclassifyf:	
  7848                           ;psect for function ___fpclassifyf
  7849                           
  7850     15E0                     l3387:	
  7851                           ;incstack = 0
  7852                           ; Regs used in ___fpclassifyf: [wreg+status,2+status,0]
  7853                           
  7854     15E0  0142               	movlb	2	; select bank2
  7855     15E1  082F               	movf	(___fpclassifyf@F465+3)^(0+256),w
  7856     15E2  0140               	movlb	0	; select bank0
  7857     15E3  00A5               	movwf	___fpclassifyf@u+3
  7858     15E4  0142               	movlb	2	; select bank2
  7859     15E5  082E               	movf	(___fpclassifyf@F465+2)^(0+256),w
  7860     15E6  0140               	movlb	0	; select bank0
  7861     15E7  00A4               	movwf	___fpclassifyf@u+2
  7862     15E8  0142               	movlb	2	; select bank2
  7863     15E9  082D               	movf	(___fpclassifyf@F465+1)^(0+256),w
  7864     15EA  0140               	movlb	0	; select bank0
  7865     15EB  00A3               	movwf	___fpclassifyf@u+1
  7866     15EC  0142               	movlb	2	; select bank2
  7867     15ED  082C               	movf	___fpclassifyf@F465^(0+256),w
  7868     15EE  0140               	movlb	0	; select bank0
  7869     15EF  00A2               	movwf	___fpclassifyf@u
  7870     15F0  0873               	movf	___fpclassifyf@x+3,w
  7871     15F1  00A5               	movwf	___fpclassifyf@u+3
  7872     15F2  0872               	movf	___fpclassifyf@x+2,w
  7873     15F3  00A4               	movwf	___fpclassifyf@u+2
  7874     15F4  0871               	movf	___fpclassifyf@x+1,w
  7875     15F5  00A3               	movwf	___fpclassifyf@u+1
  7876     15F6  0870               	movf	___fpclassifyf@x,w
  7877     15F7  00A2               	movwf	___fpclassifyf@u
  7878     15F8                     l3389:
  7879     15F8  0822               	movf	___fpclassifyf@u,w
  7880     15F9  00F4               	movwf	??___fpclassifyf
  7881     15FA  0823               	movf	___fpclassifyf@u+1,w
  7882     15FB  00F5               	movwf	??___fpclassifyf+1
  7883     15FC  0824               	movf	___fpclassifyf@u+2,w
  7884     15FD  00F6               	movwf	??___fpclassifyf+2
  7885     15FE  0825               	movf	___fpclassifyf@u+3,w
  7886     15FF  00F7               	movwf	??___fpclassifyf+3
  7887     1600  3017               	movlw	23
  7888     1601                     u4015:
  7889     1601  36F7               	lsrf	??___fpclassifyf+3,f
  7890     1602  0CF6               	rrf	??___fpclassifyf+2,f
  7891     1603  0CF5               	rrf	??___fpclassifyf+1,f
  7892     1604  0CF4               	rrf	??___fpclassifyf,f
  7893     1605                     u4010:
  7894     1605  0B89               	decfsz	9,f
  7895     1606  2E01               	goto	u4015
  7896     1607  30FF               	movlw	255
  7897     1608  0574               	andwf	??___fpclassifyf,w
  7898     1609  00A0               	movwf	___fpclassifyf@e
  7899     160A  3000               	movlw	0
  7900     160B  0575               	andwf	??___fpclassifyf+1,w
  7901     160C  00A1               	movwf	___fpclassifyf@e+1
  7902     160D                     l3391:
  7903     160D  0820               	movf	___fpclassifyf@e,w
  7904     160E  0421               	iorwf	___fpclassifyf@e+1,w
  7905     160F  1D03               	btfss	3,2
  7906     1610  2E12               	goto	u4021
  7907     1611  2E13               	goto	u4020
  7908     1612                     u4021:
  7909     1612  2E34               	goto	l3401
  7910     1613                     u4020:
  7911     1613                     l3393:
  7912     1613  0822               	movf	___fpclassifyf@u,w
  7913     1614  00F4               	movwf	??___fpclassifyf
  7914     1615  0823               	movf	___fpclassifyf@u+1,w
  7915     1616  00F5               	movwf	??___fpclassifyf+1
  7916     1617  0824               	movf	___fpclassifyf@u+2,w
  7917     1618  00F6               	movwf	??___fpclassifyf+2
  7918     1619  0825               	movf	___fpclassifyf@u+3,w
  7919     161A  00F7               	movwf	??___fpclassifyf+3
  7920     161B  3001               	movlw	1
  7921     161C                     u4035:
  7922     161C  35F4               	lslf	??___fpclassifyf,f
  7923     161D  0DF5               	rlf	??___fpclassifyf+1,f
  7924     161E  0DF6               	rlf	??___fpclassifyf+2,f
  7925     161F  0DF7               	rlf	??___fpclassifyf+3,f
  7926     1620                     u4030:
  7927     1620  0B89               	decfsz	9,f
  7928     1621  2E1C               	goto	u4035
  7929     1622  0877               	movf	??___fpclassifyf+3,w
  7930     1623  0476               	iorwf	??___fpclassifyf+2,w
  7931     1624  0475               	iorwf	??___fpclassifyf+1,w
  7932     1625  0474               	iorwf	??___fpclassifyf,w
  7933     1626  1D03               	skipz
  7934     1627  2E29               	goto	u4041
  7935     1628  2E2A               	goto	u4040
  7936     1629                     u4041:
  7937     1629  2E2F               	goto	l3397
  7938     162A                     u4040:
  7939     162A                     l3395:
  7940     162A  3002               	movlw	2
  7941     162B  00F0               	movwf	?___fpclassifyf
  7942     162C  3000               	movlw	0
  7943     162D  00F1               	movwf	?___fpclassifyf+1
  7944     162E  2E5E               	goto	l1063
  7945     162F                     l3397:
  7946     162F  3003               	movlw	3
  7947     1630  00F0               	movwf	?___fpclassifyf
  7948     1631  3000               	movlw	0
  7949     1632  00F1               	movwf	?___fpclassifyf+1
  7950     1633  2E5E               	goto	l1063
  7951     1634                     l3401:
  7952     1634  0A20               	incf	___fpclassifyf@e,w
  7953     1635  0421               	iorwf	___fpclassifyf@e+1,w
  7954     1636  1D03               	btfss	3,2
  7955     1637  2E39               	goto	u4051
  7956     1638  2E3A               	goto	u4050
  7957     1639                     u4051:
  7958     1639  2E5A               	goto	l3407
  7959     163A                     u4050:
  7960     163A                     l3403:
  7961     163A  0822               	movf	___fpclassifyf@u,w
  7962     163B  00F4               	movwf	??___fpclassifyf
  7963     163C  0823               	movf	___fpclassifyf@u+1,w
  7964     163D  00F5               	movwf	??___fpclassifyf+1
  7965     163E  0824               	movf	___fpclassifyf@u+2,w
  7966     163F  00F6               	movwf	??___fpclassifyf+2
  7967     1640  0825               	movf	___fpclassifyf@u+3,w
  7968     1641  00F7               	movwf	??___fpclassifyf+3
  7969     1642  3009               	movlw	9
  7970     1643                     u4065:
  7971     1643  35F4               	lslf	??___fpclassifyf,f
  7972     1644  0DF5               	rlf	??___fpclassifyf+1,f
  7973     1645  0DF6               	rlf	??___fpclassifyf+2,f
  7974     1646  0DF7               	rlf	??___fpclassifyf+3,f
  7975     1647                     u4060:
  7976     1647  0B89               	decfsz	9,f
  7977     1648  2E43               	goto	u4065
  7978     1649  0877               	movf	??___fpclassifyf+3,w
  7979     164A  0476               	iorwf	??___fpclassifyf+2,w
  7980     164B  0475               	iorwf	??___fpclassifyf+1,w
  7981     164C  0474               	iorwf	??___fpclassifyf,w
  7982     164D  1903               	skipnz
  7983     164E  2E50               	goto	u4071
  7984     164F  2E52               	goto	u4070
  7985     1650                     u4071:
  7986     1650  3001               	movlw	1
  7987     1651  2E53               	goto	u4080
  7988     1652                     u4070:
  7989     1652  3000               	movlw	0
  7990     1653                     u4080:
  7991     1653  00F8               	movwf	??___fpclassifyf+4
  7992     1654  01F9               	clrf	??___fpclassifyf+5
  7993     1655  0878               	movf	??___fpclassifyf+4,w
  7994     1656  00F0               	movwf	?___fpclassifyf
  7995     1657  0879               	movf	??___fpclassifyf+5,w
  7996     1658  00F1               	movwf	?___fpclassifyf+1
  7997     1659  2E5E               	goto	l1063
  7998     165A                     l3407:
  7999     165A  3004               	movlw	4
  8000     165B  00F0               	movwf	?___fpclassifyf
  8001     165C  3000               	movlw	0
  8002     165D  00F1               	movwf	?___fpclassifyf+1
  8003     165E                     l1063:
  8004     165E  0008               	return
  8005     165F                     __end_of___fpclassifyf:
  8006                           
  8007                           	psect	text14
  8008     1570                     __ptext14:	
  8009 ;; *************** function ___fltol *****************
  8010 ;; Defined at:
  8011 ;;		line 43 in file "C:\Program Files\Microchip\xc8\v2.40\pic\sources\c99\common\fltol.c"
  8012 ;; Parameters:    Size  Location     Type
  8013 ;;  f1              4    0[COMMON] int 
  8014 ;; Auto vars:     Size  Location     Type
  8015 ;;  exp1            1    9[COMMON] unsigned char 
  8016 ;;  sign1           1    8[COMMON] unsigned char 
  8017 ;; Return value:  Size  Location     Type
  8018 ;;                  4    0[COMMON] long 
  8019 ;; Registers used:
  8020 ;;		wreg, status,2, status,0
  8021 ;; Tracked objects:
  8022 ;;		On entry : 0/0
  8023 ;;		On exit  : 0/0
  8024 ;;		Unchanged: 0/0
  8025 ;; Data sizes:     COMMON   BANK0   BANK1   BANK2   BANK3   BANK4   BANK5   BANK6   BANK7   BANK8   BANK9  BANK10  BANK1
      +1  BANK12  BANK13  BANK14  BANK15  BANK16  BANK17  BANK18  BANK19  BANK20  BANK21  BANK22  BANK23  BANK24  BANK25  BANK2
      +6  BANK27  BANK28  BANK29  BANK30  BANK31  BANK32  BANK33  BANK34  BANK35  BANK36  BANK37  BANK38  BANK39  BANK40  BANK4
      +1  BANK42  BANK43  BANK44  BANK45  BANK46  BANK47  BANK48  BANK49  BANK50
  8026 ;;      Params:         4       0       0       0       0       0       0       0       0       0       0       0       
      +0       0       0       0       0       0       0       0       0       0       0       0       0       0       0       
      +0       0       0       0       0       0       0       0       0       0       0       0       0       0       0       
      +0       0       0       0       0       0       0       0       0       0
  8027 ;;      Locals:         2       0       0       0       0       0       0       0       0       0       0       0       
      +0       0       0       0       0       0       0       0       0       0       0       0       0       0       0       
      +0       0       0       0       0       0       0       0       0       0       0       0       0       0       0       
      +0       0       0       0       0       0       0       0       0       0
  8028 ;;      Temps:          4       0       0       0       0       0       0       0       0       0       0       0       
      +0       0       0       0       0       0       0       0       0       0       0       0       0       0       0       
      +0       0       0       0       0       0       0       0       0       0       0       0       0       0       0       
      +0       0       0       0       0       0       0       0       0       0
  8029 ;;      Totals:        10       0       0       0       0       0       0       0       0       0       0       0       
      +0       0       0       0       0       0       0       0       0       0       0       0       0       0       0       
      +0       0       0       0       0       0       0       0       0       0       0       0       0       0       0       
      +0       0       0       0       0       0       0       0       0       0
  8030 ;;Total ram usage:       10 bytes
  8031 ;; Hardware stack levels used: 1
  8032 ;; This function calls:
  8033 ;;		Nothing
  8034 ;; This function is called by:
  8035 ;;		_efgtoa
  8036 ;; This function uses a non-reentrant model
  8037 ;;
  8038                           
  8039     1570                     ___fltol:	
  8040                           ;psect for function ___fltol
  8041                           
  8042     1570                     l3047:	
  8043                           ;incstack = 0
  8044                           ; Regs used in ___fltol: [wreg+status,2+status,0]
  8045                           
  8046     1570  1003               	clrc
  8047     1571  0D72               	rlf	___fltol@f1+2,w
  8048     1572  0D73               	rlf	___fltol@f1+3,w
  8049     1573  00F9               	movwf	___fltol@exp1
  8050     1574  0879               	movf	___fltol@exp1,w
  8051     1575  1D03               	btfss	3,2
  8052     1576  2D78               	goto	u3321
  8053     1577  2D79               	goto	u3320
  8054     1578                     u3321:
  8055     1578  2D82               	goto	l3053
  8056     1579                     u3320:
  8057     1579                     l3049:
  8058     1579  3000               	movlw	0
  8059     157A  00F3               	movwf	?___fltol+3
  8060     157B  3000               	movlw	0
  8061     157C  00F2               	movwf	?___fltol+2
  8062     157D  3000               	movlw	0
  8063     157E  00F1               	movwf	?___fltol+1
  8064     157F  3000               	movlw	0
  8065     1580  00F0               	movwf	?___fltol
  8066     1581  2DDF               	goto	l650
  8067     1582                     l3053:
  8068     1582  0870               	movf	___fltol@f1,w
  8069     1583  00F4               	movwf	??___fltol
  8070     1584  0871               	movf	___fltol@f1+1,w
  8071     1585  00F5               	movwf	??___fltol+1
  8072     1586  0872               	movf	___fltol@f1+2,w
  8073     1587  00F6               	movwf	??___fltol+2
  8074     1588  0873               	movf	___fltol@f1+3,w
  8075     1589  00F7               	movwf	??___fltol+3
  8076     158A  301F               	movlw	31
  8077     158B                     u3335:
  8078     158B  36F7               	lsrf	??___fltol+3,f
  8079     158C  0CF6               	rrf	??___fltol+2,f
  8080     158D  0CF5               	rrf	??___fltol+1,f
  8081     158E  0CF4               	rrf	??___fltol,f
  8082     158F                     u3330:
  8083     158F  0B89               	decfsz	9,f
  8084     1590  2D8B               	goto	u3335
  8085     1591  0874               	movf	??___fltol,w
  8086     1592  00F8               	movwf	___fltol@sign1
  8087     1593                     l3055:
  8088     1593  17F2               	bsf	___fltol@f1+2,7
  8089     1594                     l3057:
  8090     1594  30FF               	movlw	255
  8091     1595  05F0               	andwf	___fltol@f1,f
  8092     1596  30FF               	movlw	255
  8093     1597  05F1               	andwf	___fltol@f1+1,f
  8094     1598  30FF               	movlw	255
  8095     1599  05F2               	andwf	___fltol@f1+2,f
  8096     159A  3000               	movlw	0
  8097     159B  05F3               	andwf	___fltol@f1+3,f
  8098     159C                     l3059:
  8099     159C  3096               	movlw	150
  8100     159D  02F9               	subwf	___fltol@exp1,f
  8101     159E                     l3061:
  8102     159E  1FF9               	btfss	___fltol@exp1,7
  8103     159F  2DA1               	goto	u3341
  8104     15A0  2DA2               	goto	u3340
  8105     15A1                     u3341:
  8106     15A1  2DBA               	goto	l3071
  8107     15A2                     u3340:
  8108     15A2                     l3063:
  8109     15A2  0879               	movf	___fltol@exp1,w
  8110     15A3  3A80               	xorlw	128
  8111     15A4  3E97               	addlw	151
  8112     15A5  1803               	skipnc
  8113     15A6  2DA8               	goto	u3351
  8114     15A7  2DA9               	goto	u3350
  8115     15A8                     u3351:
  8116     15A8  2DAA               	goto	l3069
  8117     15A9                     u3350:
  8118     15A9  2D79               	goto	l3049
  8119     15AA                     l3069:
  8120     15AA  3001               	movlw	1
  8121     15AB                     u3365:
  8122     15AB  36F3               	lsrf	___fltol@f1+3,f
  8123     15AC  0CF2               	rrf	___fltol@f1+2,f
  8124     15AD  0CF1               	rrf	___fltol@f1+1,f
  8125     15AE  0CF0               	rrf	___fltol@f1,f
  8126     15AF  0B89               	decfsz	9,f
  8127     15B0  2DAB               	goto	u3365
  8128     15B1  3001               	movlw	1
  8129     15B2  00F4               	movwf	??___fltol
  8130     15B3  0874               	movf	??___fltol,w
  8131     15B4  07F9               	addwf	___fltol@exp1,f
  8132     15B5  1D03               	btfss	3,2
  8133     15B6  2DB8               	goto	u3371
  8134     15B7  2DB9               	goto	u3370
  8135     15B8                     u3371:
  8136     15B8  2DAA               	goto	l3069
  8137     15B9                     u3370:
  8138     15B9  2DCF               	goto	l3079
  8139     15BA                     l3071:
  8140     15BA  3020               	movlw	32
  8141     15BB  0279               	subwf	___fltol@exp1,w
  8142     15BC  1C03               	skipc
  8143     15BD  2DBF               	goto	u3381
  8144     15BE  2DC0               	goto	u3380
  8145     15BF                     u3381:
  8146     15BF  2DCA               	goto	l657
  8147     15C0                     u3380:
  8148     15C0  2D79               	goto	l3049
  8149     15C1                     l3077:
  8150     15C1  3001               	movlw	1
  8151     15C2                     u3395:
  8152     15C2  35F0               	lslf	___fltol@f1,f
  8153     15C3  0DF1               	rlf	___fltol@f1+1,f
  8154     15C4  0DF2               	rlf	___fltol@f1+2,f
  8155     15C5  0DF3               	rlf	___fltol@f1+3,f
  8156     15C6  0B89               	decfsz	9,f
  8157     15C7  2DC2               	goto	u3395
  8158     15C8  3001               	movlw	1
  8159     15C9  02F9               	subwf	___fltol@exp1,f
  8160     15CA                     l657:
  8161     15CA  0879               	movf	___fltol@exp1,w
  8162     15CB  1D03               	btfss	3,2
  8163     15CC  2DCE               	goto	u3401
  8164     15CD  2DCF               	goto	u3400
  8165     15CE                     u3401:
  8166     15CE  2DC1               	goto	l3077
  8167     15CF                     u3400:
  8168     15CF                     l3079:
  8169     15CF  0878               	movf	___fltol@sign1,w
  8170     15D0  1903               	btfsc	3,2
  8171     15D1  2DD3               	goto	u3411
  8172     15D2  2DD4               	goto	u3410
  8173     15D3                     u3411:
  8174     15D3  2DDF               	goto	l660
  8175     15D4                     u3410:
  8176     15D4                     l3081:
  8177     15D4  09F0               	comf	___fltol@f1,f
  8178     15D5  09F1               	comf	___fltol@f1+1,f
  8179     15D6  09F2               	comf	___fltol@f1+2,f
  8180     15D7  09F3               	comf	___fltol@f1+3,f
  8181     15D8  0AF0               	incf	___fltol@f1,f
  8182     15D9  1903               	skipnz
  8183     15DA  0AF1               	incf	___fltol@f1+1,f
  8184     15DB  1903               	skipnz
  8185     15DC  0AF2               	incf	___fltol@f1+2,f
  8186     15DD  1903               	skipnz
  8187     15DE  0AF3               	incf	___fltol@f1+3,f
  8188     15DF                     l660:
  8189     15DF                     l650:
  8190     15DF  0008               	return
  8191     15E0                     __end_of___fltol:
  8192                           
  8193                           	psect	text15
  8194     1202                     __ptext15:	
  8195 ;; *************** function ___flsub *****************
  8196 ;; Defined at:
  8197 ;;		line 242 in file "C:\Program Files\Microchip\xc8\v2.40\pic\sources\c99\common\sprcadd.c"
  8198 ;; Parameters:    Size  Location     Type
  8199 ;;  a               4   21[BANK0 ] long 
  8200 ;;  b               4   25[BANK0 ] long 
  8201 ;; Auto vars:     Size  Location     Type
  8202 ;;		None
  8203 ;; Return value:  Size  Location     Type
  8204 ;;                  4   21[BANK0 ] long 
  8205 ;; Registers used:
  8206 ;;		wreg, status,2, status,0, pclath, cstack
  8207 ;; Tracked objects:
  8208 ;;		On entry : 0/0
  8209 ;;		On exit  : 0/0
  8210 ;;		Unchanged: 0/0
  8211 ;; Data sizes:     COMMON   BANK0   BANK1   BANK2   BANK3   BANK4   BANK5   BANK6   BANK7   BANK8   BANK9  BANK10  BANK1
      +1  BANK12  BANK13  BANK14  BANK15  BANK16  BANK17  BANK18  BANK19  BANK20  BANK21  BANK22  BANK23  BANK24  BANK25  BANK2
      +6  BANK27  BANK28  BANK29  BANK30  BANK31  BANK32  BANK33  BANK34  BANK35  BANK36  BANK37  BANK38  BANK39  BANK40  BANK4
      +1  BANK42  BANK43  BANK44  BANK45  BANK46  BANK47  BANK48  BANK49  BANK50
  8212 ;;      Params:         0       8       0       0       0       0       0       0       0       0       0       0       
      +0       0       0       0       0       0       0       0       0       0       0       0       0       0       0       
      +0       0       0       0       0       0       0       0       0       0       0       0       0       0       0       
      +0       0       0       0       0       0       0       0       0       0
  8213 ;;      Locals:         0       0       0       0       0       0       0       0       0       0       0       0       
      +0       0       0       0       0       0       0       0       0       0       0       0       0       0       0       
      +0       0       0       0       0       0       0       0       0       0       0       0       0       0       0       
      +0       0       0       0       0       0       0       0       0       0
  8214 ;;      Temps:          0       0       0       0       0       0       0       0       0       0       0       0       
      +0       0       0       0       0       0       0       0       0       0       0       0       0       0       0       
      +0       0       0       0       0       0       0       0       0       0       0       0       0       0       0       
      +0       0       0       0       0       0       0       0       0       0
  8215 ;;      Totals:         0       8       0       0       0       0       0       0       0       0       0       0       
      +0       0       0       0       0       0       0       0       0       0       0       0       0       0       0       
      +0       0       0       0       0       0       0       0       0       0       0       0       0       0       0       
      +0       0       0       0       0       0       0       0       0       0
  8216 ;;Total ram usage:        8 bytes
  8217 ;; Hardware stack levels used: 1
  8218 ;; Hardware stack levels required when called: 1
  8219 ;; This function calls:
  8220 ;;		___fladd
  8221 ;; This function is called by:
  8222 ;;		_efgtoa
  8223 ;; This function uses a non-reentrant model
  8224 ;;
  8225                           
  8226     1202                     ___flsub:	
  8227                           ;psect for function ___flsub
  8228                           
  8229     1202                     l3083:	
  8230                           ;incstack = 0
  8231                           ; Regs used in ___flsub: [wreg+status,2+status,0+pclath+cstack]
  8232                           
  8233     1202  3080               	movlw	128
  8234     1203  0140               	movlb	0	; select bank0
  8235     1204  06B8               	xorwf	___flsub@a+3,f
  8236     1205                     l3085:
  8237     1205  083C               	movf	___flsub@b+3,w
  8238     1206  00A3               	movwf	___fladd@b+3
  8239     1207  083B               	movf	___flsub@b+2,w
  8240     1208  00A2               	movwf	___fladd@b+2
  8241     1209  083A               	movf	___flsub@b+1,w
  8242     120A  00A1               	movwf	___fladd@b+1
  8243     120B  0839               	movf	___flsub@b,w
  8244     120C  00A0               	movwf	___fladd@b
  8245     120D  0838               	movf	___flsub@a+3,w
  8246     120E  00A7               	movwf	___fladd@a+3
  8247     120F  0837               	movf	___flsub@a+2,w
  8248     1210  00A6               	movwf	___fladd@a+2
  8249     1211  0836               	movf	___flsub@a+1,w
  8250     1212  00A5               	movwf	___fladd@a+1
  8251     1213  0835               	movf	___flsub@a,w
  8252     1214  00A4               	movwf	___fladd@a
  8253     1215  318B  23BD  3192   	fcall	___fladd
  8254     1218  0140               	movlb	0	; select bank0
  8255     1219  0823               	movf	?___fladd+3,w
  8256     121A  00B8               	movwf	?___flsub+3
  8257     121B  0822               	movf	?___fladd+2,w
  8258     121C  00B7               	movwf	?___flsub+2
  8259     121D  0821               	movf	?___fladd+1,w
  8260     121E  00B6               	movwf	?___flsub+1
  8261     121F  0820               	movf	?___fladd,w
  8262     1220  00B5               	movwf	?___flsub
  8263     1221                     l803:
  8264     1221  0008               	return
  8265     1222                     __end_of___flsub:
  8266                           
  8267                           	psect	text16
  8268     10D4                     __ptext16:	
  8269 ;; *************** function ___flneg *****************
  8270 ;; Defined at:
  8271 ;;		line 15 in file "C:\Program Files\Microchip\xc8\v2.40\pic\sources\c99\common\flneg.c"
  8272 ;; Parameters:    Size  Location     Type
  8273 ;;  f1              4    0[COMMON] long 
  8274 ;; Auto vars:     Size  Location     Type
  8275 ;;		None
  8276 ;; Return value:  Size  Location     Type
  8277 ;;                  4    0[COMMON] long 
  8278 ;; Registers used:
  8279 ;;		wreg
  8280 ;; Tracked objects:
  8281 ;;		On entry : 0/0
  8282 ;;		On exit  : 0/0
  8283 ;;		Unchanged: 0/0
  8284 ;; Data sizes:     COMMON   BANK0   BANK1   BANK2   BANK3   BANK4   BANK5   BANK6   BANK7   BANK8   BANK9  BANK10  BANK1
      +1  BANK12  BANK13  BANK14  BANK15  BANK16  BANK17  BANK18  BANK19  BANK20  BANK21  BANK22  BANK23  BANK24  BANK25  BANK2
      +6  BANK27  BANK28  BANK29  BANK30  BANK31  BANK32  BANK33  BANK34  BANK35  BANK36  BANK37  BANK38  BANK39  BANK40  BANK4
      +1  BANK42  BANK43  BANK44  BANK45  BANK46  BANK47  BANK48  BANK49  BANK50
  8285 ;;      Params:         4       0       0       0       0       0       0       0       0       0       0       0       
      +0       0       0       0       0       0       0       0       0       0       0       0       0       0       0       
      +0       0       0       0       0       0       0       0       0       0       0       0       0       0       0       
      +0       0       0       0       0       0       0       0       0       0
  8286 ;;      Locals:         0       0       0       0       0       0       0       0       0       0       0       0       
      +0       0       0       0       0       0       0       0       0       0       0       0       0       0       0       
      +0       0       0       0       0       0       0       0       0       0       0       0       0       0       0       
      +0       0       0       0       0       0       0       0       0       0
  8287 ;;      Temps:          0       0       0       0       0       0       0       0       0       0       0       0       
      +0       0       0       0       0       0       0       0       0       0       0       0       0       0       0       
      +0       0       0       0       0       0       0       0       0       0       0       0       0       0       0       
      +0       0       0       0       0       0       0       0       0       0
  8288 ;;      Totals:         4       0       0       0       0       0       0       0       0       0       0       0       
      +0       0       0       0       0       0       0       0       0       0       0       0       0       0       0       
      +0       0       0       0       0       0       0       0       0       0       0       0       0       0       0       
      +0       0       0       0       0       0       0       0       0       0
  8289 ;;Total ram usage:        4 bytes
  8290 ;; Hardware stack levels used: 1
  8291 ;; This function calls:
  8292 ;;		Nothing
  8293 ;; This function is called by:
  8294 ;;		_efgtoa
  8295 ;; This function uses a non-reentrant model
  8296 ;;
  8297                           
  8298     10D4                     ___flneg:	
  8299                           ;psect for function ___flneg
  8300                           
  8301     10D4                     l3039:	
  8302                           ;incstack = 0
  8303                           ; Regs used in ___flneg: [wreg]
  8304                           
  8305     10D4  0873               	movf	___flneg@f1+3,w
  8306     10D5  0472               	iorwf	___flneg@f1+2,w
  8307     10D6  0471               	iorwf	___flneg@f1+1,w
  8308     10D7  0470               	iorwf	___flneg@f1,w
  8309     10D8  1903               	skipnz
  8310     10D9  28DB               	goto	u3311
  8311     10DA  28DC               	goto	u3310
  8312     10DB                     u3311:
  8313     10DB  28DE               	goto	l3043
  8314     10DC                     u3310:
  8315     10DC                     l3041:
  8316     10DC  3080               	movlw	128
  8317     10DD  06F3               	xorwf	___flneg@f1+3,f
  8318     10DE                     l3043:
  8319     10DE                     l646:
  8320     10DE  0008               	return
  8321     10DF                     __end_of___flneg:
  8322                           
  8323                           	psect	text17
  8324     16E1                     __ptext17:	
  8325 ;; *************** function ___flge *****************
  8326 ;; Defined at:
  8327 ;;		line 4 in file "C:\Program Files\Microchip\xc8\v2.40\pic\sources\c99\common\flge.c"
  8328 ;; Parameters:    Size  Location     Type
  8329 ;;  ff1             4   21[BANK0 ] long 
  8330 ;;  ff2             4   25[BANK0 ] long 
  8331 ;; Auto vars:     Size  Location     Type
  8332 ;;		None
  8333 ;; Return value:  Size  Location     Type
  8334 ;;		None               void
  8335 ;; Registers used:
  8336 ;;		wreg, status,2, status,0
  8337 ;; Tracked objects:
  8338 ;;		On entry : 0/0
  8339 ;;		On exit  : 0/0
  8340 ;;		Unchanged: 0/0
  8341 ;; Data sizes:     COMMON   BANK0   BANK1   BANK2   BANK3   BANK4   BANK5   BANK6   BANK7   BANK8   BANK9  BANK10  BANK1
      +1  BANK12  BANK13  BANK14  BANK15  BANK16  BANK17  BANK18  BANK19  BANK20  BANK21  BANK22  BANK23  BANK24  BANK25  BANK2
      +6  BANK27  BANK28  BANK29  BANK30  BANK31  BANK32  BANK33  BANK34  BANK35  BANK36  BANK37  BANK38  BANK39  BANK40  BANK4
      +1  BANK42  BANK43  BANK44  BANK45  BANK46  BANK47  BANK48  BANK49  BANK50
  8342 ;;      Params:         0       8       0       0       0       0       0       0       0       0       0       0       
      +0       0       0       0       0       0       0       0       0       0       0       0       0       0       0       
      +0       0       0       0       0       0       0       0       0       0       0       0       0       0       0       
      +0       0       0       0       0       0       0       0       0       0
  8343 ;;      Locals:         0       0       0       0       0       0       0       0       0       0       0       0       
      +0       0       0       0       0       0       0       0       0       0       0       0       0       0       0       
      +0       0       0       0       0       0       0       0       0       0       0       0       0       0       0       
      +0       0       0       0       0       0       0       0       0       0
  8344 ;;      Temps:          0       4       0       0       0       0       0       0       0       0       0       0       
      +0       0       0       0       0       0       0       0       0       0       0       0       0       0       0       
      +0       0       0       0       0       0       0       0       0       0       0       0       0       0       0       
      +0       0       0       0       0       0       0       0       0       0
  8345 ;;      Totals:         0      12       0       0       0       0       0       0       0       0       0       0       
      +0       0       0       0       0       0       0       0       0       0       0       0       0       0       0       
      +0       0       0       0       0       0       0       0       0       0       0       0       0       0       0       
      +0       0       0       0       0       0       0       0       0       0
  8346 ;;Total ram usage:       12 bytes
  8347 ;; Hardware stack levels used: 1
  8348 ;; This function calls:
  8349 ;;		Nothing
  8350 ;; This function is called by:
  8351 ;;		_efgtoa
  8352 ;; This function uses a non-reentrant model
  8353 ;;
  8354                           
  8355     16E1                     ___flge:	
  8356                           ;psect for function ___flge
  8357                           
  8358     16E1                     l3019:	
  8359                           ;incstack = 0
  8360                           ; Regs used in ___flge: [wreg+status,2+status,0]
  8361                           
  8362     16E1  3000               	movlw	0
  8363     16E2  0140               	movlb	0	; select bank0
  8364     16E3  0535               	andwf	___flge@ff1,w
  8365     16E4  00BD               	movwf	??___flge
  8366     16E5  3000               	movlw	0
  8367     16E6  0536               	andwf	___flge@ff1+1,w
  8368     16E7  00BE               	movwf	??___flge+1
  8369     16E8  3080               	movlw	128
  8370     16E9  0537               	andwf	___flge@ff1+2,w
  8371     16EA  00BF               	movwf	??___flge+2
  8372     16EB  307F               	movlw	127
  8373     16EC  0538               	andwf	___flge@ff1+3,w
  8374     16ED  00C0               	movwf	??___flge+3
  8375     16EE  0840               	movf	??___flge+3,w
  8376     16EF  043F               	iorwf	??___flge+2,w
  8377     16F0  043E               	iorwf	??___flge+1,w
  8378     16F1  043D               	iorwf	??___flge,w
  8379     16F2  1D03               	skipz
  8380     16F3  2EF5               	goto	u3261
  8381     16F4  2EF6               	goto	u3260
  8382     16F5                     u3261:
  8383     16F5  2EFE               	goto	l634
  8384     16F6                     u3260:
  8385     16F6                     l3021:
  8386     16F6  3000               	movlw	0
  8387     16F7  00B8               	movwf	___flge@ff1+3
  8388     16F8  3000               	movlw	0
  8389     16F9  00B7               	movwf	___flge@ff1+2
  8390     16FA  3000               	movlw	0
  8391     16FB  00B6               	movwf	___flge@ff1+1
  8392     16FC  3000               	movlw	0
  8393     16FD  00B5               	movwf	___flge@ff1
  8394     16FE                     l634:
  8395     16FE  3000               	movlw	0
  8396     16FF  0539               	andwf	___flge@ff2,w
  8397     1700  00BD               	movwf	??___flge
  8398     1701  3000               	movlw	0
  8399     1702  053A               	andwf	___flge@ff2+1,w
  8400     1703  00BE               	movwf	??___flge+1
  8401     1704  3080               	movlw	128
  8402     1705  053B               	andwf	___flge@ff2+2,w
  8403     1706  00BF               	movwf	??___flge+2
  8404     1707  307F               	movlw	127
  8405     1708  053C               	andwf	___flge@ff2+3,w
  8406     1709  00C0               	movwf	??___flge+3
  8407     170A  0840               	movf	??___flge+3,w
  8408     170B  043F               	iorwf	??___flge+2,w
  8409     170C  043E               	iorwf	??___flge+1,w
  8410     170D  043D               	iorwf	??___flge,w
  8411     170E  1D03               	skipz
  8412     170F  2F11               	goto	u3271
  8413     1710  2F12               	goto	u3270
  8414     1711                     u3271:
  8415     1711  2F1A               	goto	l3025
  8416     1712                     u3270:
  8417     1712                     l3023:
  8418     1712  3000               	movlw	0
  8419     1713  00BC               	movwf	___flge@ff2+3
  8420     1714  3000               	movlw	0
  8421     1715  00BB               	movwf	___flge@ff2+2
  8422     1716  3000               	movlw	0
  8423     1717  00BA               	movwf	___flge@ff2+1
  8424     1718  3000               	movlw	0
  8425     1719  00B9               	movwf	___flge@ff2
  8426     171A                     l3025:
  8427     171A  1FB8               	btfss	___flge@ff1+3,7
  8428     171B  2F1D               	goto	u3281
  8429     171C  2F1E               	goto	u3280
  8430     171D                     u3281:
  8431     171D  2F36               	goto	l3029
  8432     171E                     u3280:
  8433     171E                     l3027:
  8434     171E  3000               	movlw	0
  8435     171F  00BD               	movwf	??___flge
  8436     1720  3000               	movlw	0
  8437     1721  00BE               	movwf	??___flge+1
  8438     1722  3000               	movlw	0
  8439     1723  00BF               	movwf	??___flge+2
  8440     1724  3080               	movlw	128
  8441     1725  00C0               	movwf	??___flge+3
  8442     1726  0835               	movf	___flge@ff1,w
  8443     1727  02BD               	subwf	??___flge,f
  8444     1728  0836               	movf	___flge@ff1+1,w
  8445     1729  3BBE               	subwfb	??___flge+1,f
  8446     172A  0837               	movf	___flge@ff1+2,w
  8447     172B  3BBF               	subwfb	??___flge+2,f
  8448     172C  0838               	movf	___flge@ff1+3,w
  8449     172D  3BC0               	subwfb	??___flge+3,f
  8450     172E  0840               	movf	??___flge+3,w
  8451     172F  00B8               	movwf	___flge@ff1+3
  8452     1730  083F               	movf	??___flge+2,w
  8453     1731  00B7               	movwf	___flge@ff1+2
  8454     1732  083E               	movf	??___flge+1,w
  8455     1733  00B6               	movwf	___flge@ff1+1
  8456     1734  083D               	movf	??___flge,w
  8457     1735  00B5               	movwf	___flge@ff1
  8458     1736                     l3029:
  8459     1736  1FBC               	btfss	___flge@ff2+3,7
  8460     1737  2F39               	goto	u3291
  8461     1738  2F3A               	goto	u3290
  8462     1739                     u3291:
  8463     1739  2F52               	goto	l637
  8464     173A                     u3290:
  8465     173A                     l3031:
  8466     173A  3000               	movlw	0
  8467     173B  00BD               	movwf	??___flge
  8468     173C  3000               	movlw	0
  8469     173D  00BE               	movwf	??___flge+1
  8470     173E  3000               	movlw	0
  8471     173F  00BF               	movwf	??___flge+2
  8472     1740  3080               	movlw	128
  8473     1741  00C0               	movwf	??___flge+3
  8474     1742  0839               	movf	___flge@ff2,w
  8475     1743  02BD               	subwf	??___flge,f
  8476     1744  083A               	movf	___flge@ff2+1,w
  8477     1745  3BBE               	subwfb	??___flge+1,f
  8478     1746  083B               	movf	___flge@ff2+2,w
  8479     1747  3BBF               	subwfb	??___flge+2,f
  8480     1748  083C               	movf	___flge@ff2+3,w
  8481     1749  3BC0               	subwfb	??___flge+3,f
  8482     174A  0840               	movf	??___flge+3,w
  8483     174B  00BC               	movwf	___flge@ff2+3
  8484     174C  083F               	movf	??___flge+2,w
  8485     174D  00BB               	movwf	___flge@ff2+2
  8486     174E  083E               	movf	??___flge+1,w
  8487     174F  00BA               	movwf	___flge@ff2+1
  8488     1750  083D               	movf	??___flge,w
  8489     1751  00B9               	movwf	___flge@ff2
  8490     1752                     l637:
  8491     1752  3080               	movlw	128
  8492     1753  06B8               	xorwf	___flge@ff1+3,f
  8493     1754  3080               	movlw	128
  8494     1755  06BC               	xorwf	___flge@ff2+3,f
  8495     1756  083C               	movf	___flge@ff2+3,w
  8496     1757  0238               	subwf	___flge@ff1+3,w
  8497     1758  1D03               	skipz
  8498     1759  2F64               	goto	u3305
  8499     175A  083B               	movf	___flge@ff2+2,w
  8500     175B  0237               	subwf	___flge@ff1+2,w
  8501     175C  1D03               	skipz
  8502     175D  2F64               	goto	u3305
  8503     175E  083A               	movf	___flge@ff2+1,w
  8504     175F  0236               	subwf	___flge@ff1+1,w
  8505     1760  1D03               	skipz
  8506     1761  2F64               	goto	u3305
  8507     1762  0839               	movf	___flge@ff2,w
  8508     1763  0235               	subwf	___flge@ff1,w
  8509     1764                     u3305:
  8510     1764  1803               	skipnc
  8511     1765  2F67               	goto	u3301
  8512     1766  2F68               	goto	u3300
  8513     1767                     u3301:
  8514     1767  2F6A               	goto	l3035
  8515     1768                     u3300:
  8516     1768                     l3033:
  8517     1768  1003               	clrc
  8518     1769  2F6B               	goto	l642
  8519     176A                     l3035:
  8520     176A  1403               	setc
  8521     176B                     l642:
  8522     176B  0008               	return
  8523     176C                     __end_of___flge:
  8524                           
  8525                           	psect	text18
  8526     13CE                     __ptext18:	
  8527 ;; *************** function ___fleq *****************
  8528 ;; Defined at:
  8529 ;;		line 4 in file "C:\Program Files\Microchip\xc8\v2.40\pic\sources\c99\common\fleq.c"
  8530 ;; Parameters:    Size  Location     Type
  8531 ;;  ff1             4    0[COMMON] long 
  8532 ;;  ff2             4    4[COMMON] long 
  8533 ;; Auto vars:     Size  Location     Type
  8534 ;;		None
  8535 ;; Return value:  Size  Location     Type
  8536 ;;		None               void
  8537 ;; Registers used:
  8538 ;;		wreg, status,2, status,0
  8539 ;; Tracked objects:
  8540 ;;		On entry : 0/0
  8541 ;;		On exit  : 0/0
  8542 ;;		Unchanged: 0/0
  8543 ;; Data sizes:     COMMON   BANK0   BANK1   BANK2   BANK3   BANK4   BANK5   BANK6   BANK7   BANK8   BANK9  BANK10  BANK1
      +1  BANK12  BANK13  BANK14  BANK15  BANK16  BANK17  BANK18  BANK19  BANK20  BANK21  BANK22  BANK23  BANK24  BANK25  BANK2
      +6  BANK27  BANK28  BANK29  BANK30  BANK31  BANK32  BANK33  BANK34  BANK35  BANK36  BANK37  BANK38  BANK39  BANK40  BANK4
      +1  BANK42  BANK43  BANK44  BANK45  BANK46  BANK47  BANK48  BANK49  BANK50
  8544 ;;      Params:         8       0       0       0       0       0       0       0       0       0       0       0       
      +0       0       0       0       0       0       0       0       0       0       0       0       0       0       0       
      +0       0       0       0       0       0       0       0       0       0       0       0       0       0       0       
      +0       0       0       0       0       0       0       0       0       0
  8545 ;;      Locals:         0       0       0       0       0       0       0       0       0       0       0       0       
      +0       0       0       0       0       0       0       0       0       0       0       0       0       0       0       
      +0       0       0       0       0       0       0       0       0       0       0       0       0       0       0       
      +0       0       0       0       0       0       0       0       0       0
  8546 ;;      Temps:          4       0       0       0       0       0       0       0       0       0       0       0       
      +0       0       0       0       0       0       0       0       0       0       0       0       0       0       0       
      +0       0       0       0       0       0       0       0       0       0       0       0       0       0       0       
      +0       0       0       0       0       0       0       0       0       0
  8547 ;;      Totals:        12       0       0       0       0       0       0       0       0       0       0       0       
      +0       0       0       0       0       0       0       0       0       0       0       0       0       0       0       
      +0       0       0       0       0       0       0       0       0       0       0       0       0       0       0       
      +0       0       0       0       0       0       0       0       0       0
  8548 ;;Total ram usage:       12 bytes
  8549 ;; Hardware stack levels used: 1
  8550 ;; This function calls:
  8551 ;;		Nothing
  8552 ;; This function is called by:
  8553 ;;		_efgtoa
  8554 ;; This function uses a non-reentrant model
  8555 ;;
  8556                           
  8557     13CE                     ___fleq:	
  8558                           ;psect for function ___fleq
  8559                           
  8560     13CE                     l3007:	
  8561                           ;incstack = 0
  8562                           ; Regs used in ___fleq: [wreg+status,2+status,0]
  8563                           
  8564     13CE  3000               	movlw	0
  8565     13CF  0570               	andwf	___fleq@ff1,w
  8566     13D0  00F8               	movwf	??___fleq
  8567     13D1  3000               	movlw	0
  8568     13D2  0571               	andwf	___fleq@ff1+1,w
  8569     13D3  00F9               	movwf	??___fleq+1
  8570     13D4  3080               	movlw	128
  8571     13D5  0572               	andwf	___fleq@ff1+2,w
  8572     13D6  00FA               	movwf	??___fleq+2
  8573     13D7  307F               	movlw	127
  8574     13D8  0573               	andwf	___fleq@ff1+3,w
  8575     13D9  00FB               	movwf	??___fleq+3
  8576     13DA  087B               	movf	??___fleq+3,w
  8577     13DB  047A               	iorwf	??___fleq+2,w
  8578     13DC  0479               	iorwf	??___fleq+1,w
  8579     13DD  0478               	iorwf	??___fleq,w
  8580     13DE  1D03               	skipz
  8581     13DF  2BE1               	goto	u3231
  8582     13E0  2BE2               	goto	u3230
  8583     13E1                     u3231:
  8584     13E1  2BEA               	goto	l625
  8585     13E2                     u3230:
  8586     13E2                     l3009:
  8587     13E2  3000               	movlw	0
  8588     13E3  00F3               	movwf	___fleq@ff1+3
  8589     13E4  3000               	movlw	0
  8590     13E5  00F2               	movwf	___fleq@ff1+2
  8591     13E6  3000               	movlw	0
  8592     13E7  00F1               	movwf	___fleq@ff1+1
  8593     13E8  3000               	movlw	0
  8594     13E9  00F0               	movwf	___fleq@ff1
  8595     13EA                     l625:
  8596     13EA  3000               	movlw	0
  8597     13EB  0574               	andwf	___fleq@ff2,w
  8598     13EC  00F8               	movwf	??___fleq
  8599     13ED  3000               	movlw	0
  8600     13EE  0575               	andwf	___fleq@ff2+1,w
  8601     13EF  00F9               	movwf	??___fleq+1
  8602     13F0  3080               	movlw	128
  8603     13F1  0576               	andwf	___fleq@ff2+2,w
  8604     13F2  00FA               	movwf	??___fleq+2
  8605     13F3  307F               	movlw	127
  8606     13F4  0577               	andwf	___fleq@ff2+3,w
  8607     13F5  00FB               	movwf	??___fleq+3
  8608     13F6  087B               	movf	??___fleq+3,w
  8609     13F7  047A               	iorwf	??___fleq+2,w
  8610     13F8  0479               	iorwf	??___fleq+1,w
  8611     13F9  0478               	iorwf	??___fleq,w
  8612     13FA  1D03               	skipz
  8613     13FB  2BFD               	goto	u3241
  8614     13FC  2BFE               	goto	u3240
  8615     13FD                     u3241:
  8616     13FD  2C06               	goto	l626
  8617     13FE                     u3240:
  8618     13FE                     l3011:
  8619     13FE  3000               	movlw	0
  8620     13FF  00F7               	movwf	___fleq@ff2+3
  8621     1400  3000               	movlw	0
  8622     1401  00F6               	movwf	___fleq@ff2+2
  8623     1402  3000               	movlw	0
  8624     1403  00F5               	movwf	___fleq@ff2+1
  8625     1404  3000               	movlw	0
  8626     1405  00F4               	movwf	___fleq@ff2
  8627     1406                     l626:
  8628     1406  0877               	movf	___fleq@ff2+3,w
  8629     1407  0673               	xorwf	___fleq@ff1+3,w
  8630     1408  1D03               	skipz
  8631     1409  2C14               	goto	u3255
  8632     140A  0876               	movf	___fleq@ff2+2,w
  8633     140B  0672               	xorwf	___fleq@ff1+2,w
  8634     140C  1D03               	skipz
  8635     140D  2C14               	goto	u3255
  8636     140E  0875               	movf	___fleq@ff2+1,w
  8637     140F  0671               	xorwf	___fleq@ff1+1,w
  8638     1410  1D03               	skipz
  8639     1411  2C14               	goto	u3255
  8640     1412  0874               	movf	___fleq@ff2,w
  8641     1413  0670               	xorwf	___fleq@ff1,w
  8642     1414                     u3255:
  8643     1414  1903               	skipnz
  8644     1415  2C17               	goto	u3251
  8645     1416  2C18               	goto	u3250
  8646     1417                     u3251:
  8647     1417  2C1A               	goto	l3015
  8648     1418                     u3250:
  8649     1418                     l3013:
  8650     1418  1003               	clrc
  8651     1419  2C1B               	goto	l631
  8652     141A                     l3015:
  8653     141A  1403               	setc
  8654     141B                     l631:
  8655     141B  0008               	return
  8656     141C                     __end_of___fleq:
  8657                           
  8658                           	psect	text19
  8659     083F                     __ptext19:	
  8660 ;; *************** function ___fldiv *****************
  8661 ;; Defined at:
  8662 ;;		line 8 in file "C:\Program Files\Microchip\xc8\v2.40\pic\sources\c99\common\sprcdiv.c"
  8663 ;; Parameters:    Size  Location     Type
  8664 ;;  a               4    0[COMMON] long 
  8665 ;;  b               4    4[COMMON] long 
  8666 ;; Auto vars:     Size  Location     Type
  8667 ;;  grs             4    7[BANK0 ] unsigned long 
  8668 ;;  rem             4    0[BANK0 ] unsigned long 
  8669 ;;  new_exp         2    5[BANK0 ] int 
  8670 ;;  aexp            1   12[BANK0 ] unsigned char 
  8671 ;;  bexp            1   11[BANK0 ] unsigned char 
  8672 ;;  sign            1    4[BANK0 ] unsigned char 
  8673 ;; Return value:  Size  Location     Type
  8674 ;;                  4    0[COMMON] unsigned char 
  8675 ;; Registers used:
  8676 ;;		wreg, status,2, status,0
  8677 ;; Tracked objects:
  8678 ;;		On entry : 0/0
  8679 ;;		On exit  : 0/0
  8680 ;;		Unchanged: 0/0
  8681 ;; Data sizes:     COMMON   BANK0   BANK1   BANK2   BANK3   BANK4   BANK5   BANK6   BANK7   BANK8   BANK9  BANK10  BANK1
      +1  BANK12  BANK13  BANK14  BANK15  BANK16  BANK17  BANK18  BANK19  BANK20  BANK21  BANK22  BANK23  BANK24  BANK25  BANK2
      +6  BANK27  BANK28  BANK29  BANK30  BANK31  BANK32  BANK33  BANK34  BANK35  BANK36  BANK37  BANK38  BANK39  BANK40  BANK4
      +1  BANK42  BANK43  BANK44  BANK45  BANK46  BANK47  BANK48  BANK49  BANK50
  8682 ;;      Params:         8       0       0       0       0       0       0       0       0       0       0       0       
      +0       0       0       0       0       0       0       0       0       0       0       0       0       0       0       
      +0       0       0       0       0       0       0       0       0       0       0       0       0       0       0       
      +0       0       0       0       0       0       0       0       0       0
  8683 ;;      Locals:         0      13       0       0       0       0       0       0       0       0       0       0       
      +0       0       0       0       0       0       0       0       0       0       0       0       0       0       0       
      +0       0       0       0       0       0       0       0       0       0       0       0       0       0       0       
      +0       0       0       0       0       0       0       0       0       0
  8684 ;;      Temps:          5       0       0       0       0       0       0       0       0       0       0       0       
      +0       0       0       0       0       0       0       0       0       0       0       0       0       0       0       
      +0       0       0       0       0       0       0       0       0       0       0       0       0       0       0       
      +0       0       0       0       0       0       0       0       0       0
  8685 ;;      Totals:        13      13       0       0       0       0       0       0       0       0       0       0       
      +0       0       0       0       0       0       0       0       0       0       0       0       0       0       0       
      +0       0       0       0       0       0       0       0       0       0       0       0       0       0       0       
      +0       0       0       0       0       0       0       0       0       0
  8686 ;;Total ram usage:       26 bytes
  8687 ;; Hardware stack levels used: 1
  8688 ;; This function calls:
  8689 ;;		Nothing
  8690 ;; This function is called by:
  8691 ;;		_efgtoa
  8692 ;; This function uses a non-reentrant model
  8693 ;;
  8694                           
  8695     083F                     ___fldiv:	
  8696                           ;psect for function ___fldiv
  8697                           
  8698     083F                     l3089:	
  8699                           ;incstack = 0
  8700                           ; Regs used in ___fldiv: [wreg+status,2+status,0]
  8701                           
  8702     083F  0877               	movf	___fldiv@b+3,w
  8703     0840  3980               	andlw	128
  8704     0841  0140               	movlb	0	; select bank0
  8705     0842  00A4               	movwf	___fldiv@sign
  8706     0843                     l3091:
  8707     0843  3577               	lslf	___fldiv@b+3,w
  8708     0844  00AB               	movwf	___fldiv@bexp
  8709     0845                     l3093:
  8710     0845  1FF6               	btfss	___fldiv@b+2,7
  8711     0846  2848               	goto	u3421
  8712     0847  2849               	goto	u3420
  8713     0848                     u3421:
  8714     0848  284A               	goto	l3097
  8715     0849                     u3420:
  8716     0849                     l3095:
  8717     0849  142B               	bsf	___fldiv@bexp,0
  8718     084A                     l3097:
  8719     084A  082B               	movf	___fldiv@bexp,w
  8720     084B  1903               	btfsc	3,2
  8721     084C  284E               	goto	u3431
  8722     084D  284F               	goto	u3430
  8723     084E                     u3431:
  8724     084E  285F               	goto	l3107
  8725     084F                     u3430:
  8726     084F                     l3099:
  8727     084F  0A2B               	incf	___fldiv@bexp,w
  8728     0850  1D03               	btfss	3,2
  8729     0851  2853               	goto	u3441
  8730     0852  2854               	goto	u3440
  8731     0853                     u3441:
  8732     0853  285C               	goto	l3103
  8733     0854                     u3440:
  8734     0854                     l3101:
  8735     0854  3000               	movlw	0
  8736     0855  00F7               	movwf	___fldiv@b+3
  8737     0856  3000               	movlw	0
  8738     0857  00F6               	movwf	___fldiv@b+2
  8739     0858  3000               	movlw	0
  8740     0859  00F5               	movwf	___fldiv@b+1
  8741     085A  3000               	movlw	0
  8742     085B  00F4               	movwf	___fldiv@b
  8743     085C                     l3103:
  8744     085C  17F6               	bsf	___fldiv@b+2,7
  8745     085D                     l3105:
  8746     085D  01F7               	clrf	___fldiv@b+3
  8747     085E  2867               	goto	l3109
  8748     085F                     l3107:
  8749     085F  3000               	movlw	0
  8750     0860  00F7               	movwf	___fldiv@b+3
  8751     0861  3000               	movlw	0
  8752     0862  00F6               	movwf	___fldiv@b+2
  8753     0863  3000               	movlw	0
  8754     0864  00F5               	movwf	___fldiv@b+1
  8755     0865  3000               	movlw	0
  8756     0866  00F4               	movwf	___fldiv@b
  8757     0867                     l3109:
  8758     0867  0873               	movf	___fldiv@a+3,w
  8759     0868  3980               	andlw	128
  8760     0869  00F8               	movwf	??___fldiv
  8761     086A  0878               	movf	??___fldiv,w
  8762     086B  06A4               	xorwf	___fldiv@sign,f
  8763     086C                     l3111:
  8764     086C  3573               	lslf	___fldiv@a+3,w
  8765     086D  00AC               	movwf	___fldiv@aexp
  8766     086E                     l3113:
  8767     086E  1FF2               	btfss	___fldiv@a+2,7
  8768     086F  2871               	goto	u3451
  8769     0870  2872               	goto	u3450
  8770     0871                     u3451:
  8771     0871  2873               	goto	l3117
  8772     0872                     u3450:
  8773     0872                     l3115:
  8774     0872  142C               	bsf	___fldiv@aexp,0
  8775     0873                     l3117:
  8776     0873  082C               	movf	___fldiv@aexp,w
  8777     0874  1903               	btfsc	3,2
  8778     0875  2877               	goto	u3461
  8779     0876  2878               	goto	u3460
  8780     0877                     u3461:
  8781     0877  2888               	goto	l3127
  8782     0878                     u3460:
  8783     0878                     l3119:
  8784     0878  0A2C               	incf	___fldiv@aexp,w
  8785     0879  1D03               	btfss	3,2
  8786     087A  287C               	goto	u3471
  8787     087B  287D               	goto	u3470
  8788     087C                     u3471:
  8789     087C  2885               	goto	l3123
  8790     087D                     u3470:
  8791     087D                     l3121:
  8792     087D  3000               	movlw	0
  8793     087E  00F3               	movwf	___fldiv@a+3
  8794     087F  3000               	movlw	0
  8795     0880  00F2               	movwf	___fldiv@a+2
  8796     0881  3000               	movlw	0
  8797     0882  00F1               	movwf	___fldiv@a+1
  8798     0883  3000               	movlw	0
  8799     0884  00F0               	movwf	___fldiv@a
  8800     0885                     l3123:
  8801     0885  17F2               	bsf	___fldiv@a+2,7
  8802     0886                     l3125:
  8803     0886  01F3               	clrf	___fldiv@a+3
  8804     0887  2890               	goto	l813
  8805     0888                     l3127:
  8806     0888  3000               	movlw	0
  8807     0889  00F3               	movwf	___fldiv@a+3
  8808     088A  3000               	movlw	0
  8809     088B  00F2               	movwf	___fldiv@a+2
  8810     088C  3000               	movlw	0
  8811     088D  00F1               	movwf	___fldiv@a+1
  8812     088E  3000               	movlw	0
  8813     088F  00F0               	movwf	___fldiv@a
  8814     0890                     l813:
  8815     0890  0873               	movf	___fldiv@a+3,w
  8816     0891  0472               	iorwf	___fldiv@a+2,w
  8817     0892  0471               	iorwf	___fldiv@a+1,w
  8818     0893  0470               	iorwf	___fldiv@a,w
  8819     0894  1D03               	skipz
  8820     0895  2897               	goto	u3481
  8821     0896  2898               	goto	u3480
  8822     0897                     u3481:
  8823     0897  28B1               	goto	l3137
  8824     0898                     u3480:
  8825     0898                     l3129:
  8826     0898  3000               	movlw	0
  8827     0899  00F7               	movwf	___fldiv@b+3
  8828     089A  3000               	movlw	0
  8829     089B  00F6               	movwf	___fldiv@b+2
  8830     089C  3000               	movlw	0
  8831     089D  00F5               	movwf	___fldiv@b+1
  8832     089E  3000               	movlw	0
  8833     089F  00F4               	movwf	___fldiv@b
  8834     08A0  3080               	movlw	128
  8835     08A1  04F6               	iorwf	___fldiv@b+2,f
  8836     08A2  307F               	movlw	127
  8837     08A3  04F7               	iorwf	___fldiv@b+3,f
  8838     08A4                     l3131:
  8839     08A4  0824               	movf	___fldiv@sign,w
  8840     08A5  00F8               	movwf	??___fldiv
  8841     08A6  0878               	movf	??___fldiv,w
  8842     08A7  04F7               	iorwf	___fldiv@b+3,f
  8843     08A8                     l3133:
  8844     08A8  0877               	movf	___fldiv@b+3,w
  8845     08A9  00F3               	movwf	?___fldiv+3
  8846     08AA  0876               	movf	___fldiv@b+2,w
  8847     08AB  00F2               	movwf	?___fldiv+2
  8848     08AC  0875               	movf	___fldiv@b+1,w
  8849     08AD  00F1               	movwf	?___fldiv+1
  8850     08AE  0874               	movf	___fldiv@b,w
  8851     08AF  00F0               	movwf	?___fldiv
  8852     08B0  29E8               	goto	l815
  8853     08B1                     l3137:
  8854     08B1  082B               	movf	___fldiv@bexp,w
  8855     08B2  1D03               	btfss	3,2
  8856     08B3  28B5               	goto	u3491
  8857     08B4  28B6               	goto	u3490
  8858     08B5                     u3491:
  8859     08B5  28BF               	goto	l3143
  8860     08B6                     u3490:
  8861     08B6                     l3139:
  8862     08B6  3000               	movlw	0
  8863     08B7  00F3               	movwf	?___fldiv+3
  8864     08B8  3000               	movlw	0
  8865     08B9  00F2               	movwf	?___fldiv+2
  8866     08BA  3000               	movlw	0
  8867     08BB  00F1               	movwf	?___fldiv+1
  8868     08BC  3000               	movlw	0
  8869     08BD  00F0               	movwf	?___fldiv
  8870     08BE  29E8               	goto	l815
  8871     08BF                     l3143:
  8872     08BF  082B               	movf	___fldiv@bexp,w
  8873     08C0  00F8               	movwf	??___fldiv
  8874     08C1  01F9               	clrf	??___fldiv+1
  8875     08C2  0879               	movf	??___fldiv+1,w
  8876     08C3  00FB               	movwf	??___fldiv+3
  8877     08C4  082C               	movf	___fldiv@aexp,w
  8878     08C5  0278               	subwf	??___fldiv,w
  8879     08C6  00FA               	movwf	??___fldiv+2
  8880     08C7  1C03               	skipc
  8881     08C8  03FB               	decf	??___fldiv+3,f
  8882     08C9  087A               	movf	??___fldiv+2,w
  8883     08CA  3E7F               	addlw	127
  8884     08CB  00A5               	movwf	___fldiv@new_exp
  8885     08CC  3000               	movlw	0
  8886     08CD  3D7B               	addwfc	??___fldiv+3,w
  8887     08CE  00A6               	movwf	___fldiv@new_exp+1
  8888     08CF                     l3145:
  8889     08CF  0877               	movf	___fldiv@b+3,w
  8890     08D0  00A3               	movwf	___fldiv@rem+3
  8891     08D1  0876               	movf	___fldiv@b+2,w
  8892     08D2  00A2               	movwf	___fldiv@rem+2
  8893     08D3  0875               	movf	___fldiv@b+1,w
  8894     08D4  00A1               	movwf	___fldiv@rem+1
  8895     08D5  0874               	movf	___fldiv@b,w
  8896     08D6  00A0               	movwf	___fldiv@rem
  8897     08D7                     l3147:
  8898     08D7  3000               	movlw	0
  8899     08D8  00F7               	movwf	___fldiv@b+3
  8900     08D9  3000               	movlw	0
  8901     08DA  00F6               	movwf	___fldiv@b+2
  8902     08DB  3000               	movlw	0
  8903     08DC  00F5               	movwf	___fldiv@b+1
  8904     08DD  3000               	movlw	0
  8905     08DE  00F4               	movwf	___fldiv@b
  8906     08DF                     l3149:
  8907     08DF  3000               	movlw	0
  8908     08E0  00AA               	movwf	___fldiv@grs+3
  8909     08E1  3000               	movlw	0
  8910     08E2  00A9               	movwf	___fldiv@grs+2
  8911     08E3  3000               	movlw	0
  8912     08E4  00A8               	movwf	___fldiv@grs+1
  8913     08E5  3000               	movlw	0
  8914     08E6  00A7               	movwf	___fldiv@grs
  8915     08E7                     l3151:
  8916     08E7  01AC               	clrf	___fldiv@aexp
  8917     08E8  2927               	goto	l3171
  8918     08E9                     l3153:
  8919     08E9  082C               	movf	___fldiv@aexp,w
  8920     08EA  1903               	btfsc	3,2
  8921     08EB  28ED               	goto	u3501
  8922     08EC  28EE               	goto	u3500
  8923     08ED                     u3501:
  8924     08ED  2908               	goto	l3163
  8925     08EE                     u3500:
  8926     08EE                     l3155:
  8927     08EE  3001               	movlw	1
  8928     08EF                     u3515:
  8929     08EF  35A0               	lslf	___fldiv@rem,f
  8930     08F0  0DA1               	rlf	___fldiv@rem+1,f
  8931     08F1  0DA2               	rlf	___fldiv@rem+2,f
  8932     08F2  0DA3               	rlf	___fldiv@rem+3,f
  8933     08F3  0B89               	decfsz	9,f
  8934     08F4  28EF               	goto	u3515
  8935     08F5  3001               	movlw	1
  8936     08F6                     u3525:
  8937     08F6  35F4               	lslf	___fldiv@b,f
  8938     08F7  0DF5               	rlf	___fldiv@b+1,f
  8939     08F8  0DF6               	rlf	___fldiv@b+2,f
  8940     08F9  0DF7               	rlf	___fldiv@b+3,f
  8941     08FA  0B89               	decfsz	9,f
  8942     08FB  28F6               	goto	u3525
  8943     08FC                     l3157:
  8944     08FC  1FAA               	btfss	___fldiv@grs+3,7
  8945     08FD  28FF               	goto	u3531
  8946     08FE  2900               	goto	u3530
  8947     08FF                     u3531:
  8948     08FF  2901               	goto	l3161
  8949     0900                     u3530:
  8950     0900                     l3159:
  8951     0900  1474               	bsf	___fldiv@b,0
  8952     0901                     l3161:
  8953     0901  3001               	movlw	1
  8954     0902                     u3545:
  8955     0902  35A7               	lslf	___fldiv@grs,f
  8956     0903  0DA8               	rlf	___fldiv@grs+1,f
  8957     0904  0DA9               	rlf	___fldiv@grs+2,f
  8958     0905  0DAA               	rlf	___fldiv@grs+3,f
  8959     0906  0B89               	decfsz	9,f
  8960     0907  2902               	goto	u3545
  8961     0908                     l3163:
  8962     0908  0873               	movf	___fldiv@a+3,w
  8963     0909  0223               	subwf	___fldiv@rem+3,w
  8964     090A  1D03               	skipz
  8965     090B  2916               	goto	u3555
  8966     090C  0872               	movf	___fldiv@a+2,w
  8967     090D  0222               	subwf	___fldiv@rem+2,w
  8968     090E  1D03               	skipz
  8969     090F  2916               	goto	u3555
  8970     0910  0871               	movf	___fldiv@a+1,w
  8971     0911  0221               	subwf	___fldiv@rem+1,w
  8972     0912  1D03               	skipz
  8973     0913  2916               	goto	u3555
  8974     0914  0870               	movf	___fldiv@a,w
  8975     0915  0220               	subwf	___fldiv@rem,w
  8976     0916                     u3555:
  8977     0916  1C03               	skipc
  8978     0917  2919               	goto	u3551
  8979     0918  291A               	goto	u3550
  8980     0919                     u3551:
  8981     0919  2923               	goto	l3169
  8982     091A                     u3550:
  8983     091A                     l3165:
  8984     091A  172A               	bsf	___fldiv@grs+3,6
  8985     091B                     l3167:
  8986     091B  0870               	movf	___fldiv@a,w
  8987     091C  02A0               	subwf	___fldiv@rem,f
  8988     091D  0871               	movf	___fldiv@a+1,w
  8989     091E  3BA1               	subwfb	___fldiv@rem+1,f
  8990     091F  0872               	movf	___fldiv@a+2,w
  8991     0920  3BA2               	subwfb	___fldiv@rem+2,f
  8992     0921  0873               	movf	___fldiv@a+3,w
  8993     0922  3BA3               	subwfb	___fldiv@rem+3,f
  8994     0923                     l3169:
  8995     0923  3001               	movlw	1
  8996     0924  00F8               	movwf	??___fldiv
  8997     0925  0878               	movf	??___fldiv,w
  8998     0926  07AC               	addwf	___fldiv@aexp,f
  8999     0927                     l3171:
  9000     0927  301A               	movlw	26
  9001     0928  022C               	subwf	___fldiv@aexp,w
  9002     0929  1C03               	skipc
  9003     092A  292C               	goto	u3561
  9004     092B  292D               	goto	u3560
  9005     092C                     u3561:
  9006     092C  28E9               	goto	l3153
  9007     092D                     u3560:
  9008     092D                     l3173:
  9009     092D  0823               	movf	___fldiv@rem+3,w
  9010     092E  0422               	iorwf	___fldiv@rem+2,w
  9011     092F  0421               	iorwf	___fldiv@rem+1,w
  9012     0930  0420               	iorwf	___fldiv@rem,w
  9013     0931  1903               	skipnz
  9014     0932  2934               	goto	u3571
  9015     0933  2935               	goto	u3570
  9016     0934                     u3571:
  9017     0934  294E               	goto	l3187
  9018     0935                     u3570:
  9019     0935                     l3175:
  9020     0935  1427               	bsf	___fldiv@grs,0
  9021     0936  294E               	goto	l3187
  9022     0937                     l3177:
  9023     0937  3001               	movlw	1
  9024     0938                     u3585:
  9025     0938  35F4               	lslf	___fldiv@b,f
  9026     0939  0DF5               	rlf	___fldiv@b+1,f
  9027     093A  0DF6               	rlf	___fldiv@b+2,f
  9028     093B  0DF7               	rlf	___fldiv@b+3,f
  9029     093C  0B89               	decfsz	9,f
  9030     093D  2938               	goto	u3585
  9031     093E                     l3179:
  9032     093E  1FAA               	btfss	___fldiv@grs+3,7
  9033     093F  2941               	goto	u3591
  9034     0940  2942               	goto	u3590
  9035     0941                     u3591:
  9036     0941  2943               	goto	l3183
  9037     0942                     u3590:
  9038     0942                     l3181:
  9039     0942  1474               	bsf	___fldiv@b,0
  9040     0943                     l3183:
  9041     0943  3001               	movlw	1
  9042     0944                     u3605:
  9043     0944  35A7               	lslf	___fldiv@grs,f
  9044     0945  0DA8               	rlf	___fldiv@grs+1,f
  9045     0946  0DA9               	rlf	___fldiv@grs+2,f
  9046     0947  0DAA               	rlf	___fldiv@grs+3,f
  9047     0948  0B89               	decfsz	9,f
  9048     0949  2944               	goto	u3605
  9049     094A                     l3185:
  9050     094A  30FF               	movlw	255
  9051     094B  07A5               	addwf	___fldiv@new_exp,f
  9052     094C  30FF               	movlw	255
  9053     094D  3DA6               	addwfc	___fldiv@new_exp+1,f
  9054     094E                     l3187:
  9055     094E  1FF6               	btfss	___fldiv@b+2,7
  9056     094F  2951               	goto	u3611
  9057     0950  2952               	goto	u3610
  9058     0951                     u3611:
  9059     0951  2937               	goto	l3177
  9060     0952                     u3610:
  9061     0952                     l3189:
  9062     0952  01AC               	clrf	___fldiv@aexp
  9063     0953                     l3191:
  9064     0953  1FAA               	btfss	___fldiv@grs+3,7
  9065     0954  2956               	goto	u3621
  9066     0955  2957               	goto	u3620
  9067     0956                     u3621:
  9068     0956  2973               	goto	l3199
  9069     0957                     u3620:
  9070     0957                     l3193:
  9071     0957  30FF               	movlw	255
  9072     0958  0527               	andwf	___fldiv@grs,w
  9073     0959  00F8               	movwf	??___fldiv
  9074     095A  30FF               	movlw	255
  9075     095B  0528               	andwf	___fldiv@grs+1,w
  9076     095C  00F9               	movwf	??___fldiv+1
  9077     095D  30FF               	movlw	255
  9078     095E  0529               	andwf	___fldiv@grs+2,w
  9079     095F  00FA               	movwf	??___fldiv+2
  9080     0960  307F               	movlw	127
  9081     0961  052A               	andwf	___fldiv@grs+3,w
  9082     0962  00FB               	movwf	??___fldiv+3
  9083     0963  087B               	movf	??___fldiv+3,w
  9084     0964  047A               	iorwf	??___fldiv+2,w
  9085     0965  0479               	iorwf	??___fldiv+1,w
  9086     0966  0478               	iorwf	??___fldiv,w
  9087     0967  1903               	skipnz
  9088     0968  296A               	goto	u3631
  9089     0969  296B               	goto	u3630
  9090     096A                     u3631:
  9091     096A  296E               	goto	l829
  9092     096B                     u3630:
  9093     096B                     l3195:
  9094     096B  01AC               	clrf	___fldiv@aexp
  9095     096C  0AAC               	incf	___fldiv@aexp,f
  9096     096D  2973               	goto	l3199
  9097     096E                     l829:
  9098     096E  1C74               	btfss	___fldiv@b,0
  9099     096F  2971               	goto	u3641
  9100     0970  2972               	goto	u3640
  9101     0971                     u3641:
  9102     0971  2973               	goto	l3199
  9103     0972                     u3640:
  9104     0972  296B               	goto	l3195
  9105     0973                     l3199:
  9106     0973  082C               	movf	___fldiv@aexp,w
  9107     0974  1903               	btfsc	3,2
  9108     0975  2977               	goto	u3651
  9109     0976  2978               	goto	u3650
  9110     0977                     u3651:
  9111     0977  29A0               	goto	l3209
  9112     0978                     u3650:
  9113     0978                     l3201:
  9114     0978  3001               	movlw	1
  9115     0979  07F4               	addwf	___fldiv@b,f
  9116     097A  3000               	movlw	0
  9117     097B  3DF5               	addwfc	___fldiv@b+1,f
  9118     097C  3000               	movlw	0
  9119     097D  3DF6               	addwfc	___fldiv@b+2,f
  9120     097E  3000               	movlw	0
  9121     097F  3DF7               	addwfc	___fldiv@b+3,f
  9122     0980                     l3203:
  9123     0980  1C77               	btfss	___fldiv@b+3,0
  9124     0981  2983               	goto	u3661
  9125     0982  2984               	goto	u3660
  9126     0983                     u3661:
  9127     0983  29A0               	goto	l3209
  9128     0984                     u3660:
  9129     0984                     l3205:
  9130     0984  0874               	movf	___fldiv@b,w
  9131     0985  00F8               	movwf	??___fldiv
  9132     0986  0875               	movf	___fldiv@b+1,w
  9133     0987  00F9               	movwf	??___fldiv+1
  9134     0988  0876               	movf	___fldiv@b+2,w
  9135     0989  00FA               	movwf	??___fldiv+2
  9136     098A  0877               	movf	___fldiv@b+3,w
  9137     098B  00FB               	movwf	??___fldiv+3
  9138     098C  3001               	movlw	1
  9139     098D  00FC               	movwf	??___fldiv+4
  9140     098E                     u3675:
  9141     098E  37FB               	asrf	??___fldiv+3,f
  9142     098F  0CFA               	rrf	??___fldiv+2,f
  9143     0990  0CF9               	rrf	??___fldiv+1,f
  9144     0991  0CF8               	rrf	??___fldiv,f
  9145     0992                     u3670:
  9146     0992  0BFC               	decfsz	??___fldiv+4,f
  9147     0993  298E               	goto	u3675
  9148     0994  087B               	movf	??___fldiv+3,w
  9149     0995  00F7               	movwf	___fldiv@b+3
  9150     0996  087A               	movf	??___fldiv+2,w
  9151     0997  00F6               	movwf	___fldiv@b+2
  9152     0998  0879               	movf	??___fldiv+1,w
  9153     0999  00F5               	movwf	___fldiv@b+1
  9154     099A  0878               	movf	??___fldiv,w
  9155     099B  00F4               	movwf	___fldiv@b
  9156     099C                     l3207:
  9157     099C  3001               	movlw	1
  9158     099D  07A5               	addwf	___fldiv@new_exp,f
  9159     099E  3000               	movlw	0
  9160     099F  3DA6               	addwfc	___fldiv@new_exp+1,f
  9161     09A0                     l3209:
  9162     09A0  0826               	movf	___fldiv@new_exp+1,w
  9163     09A1  3A80               	xorlw	128
  9164     09A2  00F8               	movwf	??___fldiv
  9165     09A3  3080               	movlw	128
  9166     09A4  0278               	subwf	??___fldiv,w
  9167     09A5  1D03               	skipz
  9168     09A6  29A9               	goto	u3685
  9169     09A7  30FF               	movlw	255
  9170     09A8  0225               	subwf	___fldiv@new_exp,w
  9171     09A9                     u3685:
  9172     09A9  1C03               	skipc
  9173     09AA  29AC               	goto	u3681
  9174     09AB  29AD               	goto	u3680
  9175     09AC                     u3681:
  9176     09AC  29BA               	goto	l834
  9177     09AD                     u3680:
  9178     09AD                     l3211:
  9179     09AD  30FF               	movlw	255
  9180     09AE  0140               	movlb	0	; select bank0
  9181     09AF  00A5               	movwf	___fldiv@new_exp
  9182     09B0  3000               	movlw	0
  9183     09B1  00A6               	movwf	___fldiv@new_exp+1
  9184     09B2  3000               	movlw	0
  9185     09B3  00F7               	movwf	___fldiv@b+3
  9186     09B4  3000               	movlw	0
  9187     09B5  00F6               	movwf	___fldiv@b+2
  9188     09B6  3000               	movlw	0
  9189     09B7  00F5               	movwf	___fldiv@b+1
  9190     09B8  3000               	movlw	0
  9191     09B9  00F4               	movwf	___fldiv@b
  9192     09BA                     l834:
  9193     09BA  0140               	movlb	0	; select bank0
  9194     09BB  0826               	movf	___fldiv@new_exp+1,w
  9195     09BC  3A80               	xorlw	128
  9196     09BD  00F8               	movwf	??___fldiv
  9197     09BE  3080               	movlw	128
  9198     09BF  0278               	subwf	??___fldiv,w
  9199     09C0  1D03               	skipz
  9200     09C1  29C4               	goto	u3695
  9201     09C2  3001               	movlw	1
  9202     09C3  0225               	subwf	___fldiv@new_exp,w
  9203     09C4                     u3695:
  9204     09C4  1803               	skipnc
  9205     09C5  29C7               	goto	u3691
  9206     09C6  29C8               	goto	u3690
  9207     09C7                     u3691:
  9208     09C7  29D4               	goto	l835
  9209     09C8                     u3690:
  9210     09C8                     l3213:
  9211     09C8  0140               	movlb	0	; select bank0
  9212     09C9  01A5               	clrf	___fldiv@new_exp
  9213     09CA  01A6               	clrf	___fldiv@new_exp+1
  9214     09CB                     l3215:
  9215     09CB  3000               	movlw	0
  9216     09CC  00F7               	movwf	___fldiv@b+3
  9217     09CD  3000               	movlw	0
  9218     09CE  00F6               	movwf	___fldiv@b+2
  9219     09CF  3000               	movlw	0
  9220     09D0  00F5               	movwf	___fldiv@b+1
  9221     09D1  3000               	movlw	0
  9222     09D2  00F4               	movwf	___fldiv@b
  9223     09D3                     l3217:
  9224     09D3  01A4               	clrf	___fldiv@sign
  9225     09D4                     l835:
  9226     09D4  0140               	movlb	0	; select bank0
  9227     09D5  0825               	movf	___fldiv@new_exp,w
  9228     09D6  00AB               	movwf	___fldiv@bexp
  9229     09D7                     l3219:
  9230     09D7  1C2B               	btfss	___fldiv@bexp,0
  9231     09D8  29DA               	goto	u3701
  9232     09D9  29DB               	goto	u3700
  9233     09DA                     u3701:
  9234     09DA  29DD               	goto	l3223
  9235     09DB                     u3700:
  9236     09DB                     l3221:
  9237     09DB  17F6               	bsf	___fldiv@b+2,7
  9238     09DC  29E1               	goto	l837
  9239     09DD                     l3223:
  9240     09DD  307F               	movlw	127
  9241     09DE  00F8               	movwf	??___fldiv
  9242     09DF  0878               	movf	??___fldiv,w
  9243     09E0  05F6               	andwf	___fldiv@b+2,f
  9244     09E1                     l837:
  9245     09E1  362B               	lsrf	___fldiv@bexp,w
  9246     09E2  00F7               	movwf	___fldiv@b+3
  9247     09E3  0824               	movf	___fldiv@sign,w
  9248     09E4  00F8               	movwf	??___fldiv
  9249     09E5  0878               	movf	??___fldiv,w
  9250     09E6  04F7               	iorwf	___fldiv@b+3,f
  9251     09E7  28A8               	goto	l3133
  9252     09E8                     l815:
  9253     09E8  0008               	return
  9254     09E9                     __end_of___fldiv:
  9255                           
  9256                           	psect	text20
  9257     176C                     __ptext20:	
  9258 ;; *************** function _atoi *****************
  9259 ;; Defined at:
  9260 ;;		line 4 in file "C:\Program Files\Microchip\xc8\v2.40\pic\sources\c99\common\atoi.c"
  9261 ;; Parameters:    Size  Location     Type
  9262 ;;  s               2    6[COMMON] PTR const unsigned char 
  9263 ;;		 -> STR_1(11), 
  9264 ;; Auto vars:     Size  Location     Type
  9265 ;;  n               2    2[BANK0 ] int 
  9266 ;;  neg             2    0[BANK0 ] int 
  9267 ;; Return value:  Size  Location     Type
  9268 ;;                  2    6[COMMON] int 
  9269 ;; Registers used:
  9270 ;;		wreg, fsr0l, fsr0h, status,2, status,0, pclath, cstack
  9271 ;; Tracked objects:
  9272 ;;		On entry : 0/0
  9273 ;;		On exit  : 0/0
  9274 ;;		Unchanged: 0/0
  9275 ;; Data sizes:     COMMON   BANK0   BANK1   BANK2   BANK3   BANK4   BANK5   BANK6   BANK7   BANK8   BANK9  BANK10  BANK1
      +1  BANK12  BANK13  BANK14  BANK15  BANK16  BANK17  BANK18  BANK19  BANK20  BANK21  BANK22  BANK23  BANK24  BANK25  BANK2
      +6  BANK27  BANK28  BANK29  BANK30  BANK31  BANK32  BANK33  BANK34  BANK35  BANK36  BANK37  BANK38  BANK39  BANK40  BANK4
      +1  BANK42  BANK43  BANK44  BANK45  BANK46  BANK47  BANK48  BANK49  BANK50
  9276 ;;      Params:         2       0       0       0       0       0       0       0       0       0       0       0       
      +0       0       0       0       0       0       0       0       0       0       0       0       0       0       0       
      +0       0       0       0       0       0       0       0       0       0       0       0       0       0       0       
      +0       0       0       0       0       0       0       0       0       0
  9277 ;;      Locals:         0       4       0       0       0       0       0       0       0       0       0       0       
      +0       0       0       0       0       0       0       0       0       0       0       0       0       0       0       
      +0       0       0       0       0       0       0       0       0       0       0       0       0       0       0       
      +0       0       0       0       0       0       0       0       0       0
  9278 ;;      Temps:          3       0       0       0       0       0       0       0       0       0       0       0       
      +0       0       0       0       0       0       0       0       0       0       0       0       0       0       0       
      +0       0       0       0       0       0       0       0       0       0       0       0       0       0       0       
      +0       0       0       0       0       0       0       0       0       0
  9279 ;;      Totals:         5       4       0       0       0       0       0       0       0       0       0       0       
      +0       0       0       0       0       0       0       0       0       0       0       0       0       0       0       
      +0       0       0       0       0       0       0       0       0       0       0       0       0       0       0       
      +0       0       0       0       0       0       0       0       0       0
  9280 ;;Total ram usage:        9 bytes
  9281 ;; Hardware stack levels used: 1
  9282 ;; Hardware stack levels required when called: 1
  9283 ;; This function calls:
  9284 ;;		___wmul
  9285 ;;		_isdigit
  9286 ;;		_isspace
  9287 ;; This function is called by:
  9288 ;;		_vfpfcnvrt
  9289 ;; This function uses a non-reentrant model
  9290 ;;
  9291                           
  9292     176C                     _atoi:	
  9293                           ;psect for function _atoi
  9294                           
  9295     176C                     l3675:	
  9296                           ;incstack = 0
  9297                           ; Regs used in _atoi: [wreg-fsr0h+status,2+status,0+pclath+cstack]
  9298                           
  9299     176C  0140               	movlb	0	; select bank0
  9300     176D  01A2               	clrf	atoi@n
  9301     176E  01A3               	clrf	atoi@n+1
  9302     176F  01A0               	clrf	atoi@neg
  9303     1770  01A1               	clrf	atoi@neg+1
  9304     1771  2F76               	goto	l3681
  9305     1772                     l3677:
  9306     1772  3001               	movlw	1
  9307     1773  07F6               	addwf	atoi@s,f
  9308     1774  3000               	movlw	0
  9309     1775  3DF7               	addwfc	atoi@s+1,f
  9310     1776                     l3681:
  9311     1776  0876               	movf	atoi@s,w
  9312     1777  0084               	movwf	4
  9313     1778  0877               	movf	atoi@s+1,w
  9314     1779  0085               	movwf	5
  9315     177A  0012               	moviw fsr0++
  9316     177B  3A20               	xorlw	32
  9317     177C  1903               	btfsc	3,2
  9318     177D  2F7F               	goto	u4591
  9319     177E  2F80               	goto	u4590
  9320     177F                     u4591:
  9321     177F  2F72               	goto	l3677
  9322     1780                     u4590:
  9323     1780                     l3683:
  9324     1780  0876               	movf	atoi@s,w
  9325     1781  0084               	movwf	4
  9326     1782  0877               	movf	atoi@s+1,w
  9327     1783  0085               	movwf	5
  9328     1784  0800               	movf	0,w	;code access
  9329     1785  3EF7               	addlw	247
  9330     1786  00F8               	movwf	??_atoi
  9331     1787  30FF               	movlw	255
  9332     1788  1803               	skipnc
  9333     1789  3000               	movlw	0
  9334     178A  00F9               	movwf	??_atoi+1
  9335     178B  3000               	movlw	0
  9336     178C  0279               	subwf	??_atoi+1,w
  9337     178D  3005               	movlw	5
  9338     178E  1903               	skipnz
  9339     178F  0278               	subwf	??_atoi,w
  9340     1790  1C03               	skipc
  9341     1791  2F93               	goto	u4601
  9342     1792  2F94               	goto	u4600
  9343     1793                     u4601:
  9344     1793  2F72               	goto	l3677
  9345     1794                     u4600:
  9346     1794  2F9F               	goto	l3687
  9347     1795                     l3685:
  9348     1795  3001               	movlw	1
  9349     1796  0140               	movlb	0	; select bank0
  9350     1797  00A0               	movwf	atoi@neg
  9351     1798  3000               	movlw	0
  9352     1799  00A1               	movwf	atoi@neg+1
  9353     179A                     l1078:
  9354     179A  3001               	movlw	1
  9355     179B  07F6               	addwf	atoi@s,f
  9356     179C  3000               	movlw	0
  9357     179D  3DF7               	addwfc	atoi@s+1,f
  9358     179E  2FD4               	goto	l3695
  9359     179F                     l3687:
  9360     179F  0876               	movf	atoi@s,w
  9361     17A0  0084               	movwf	4
  9362     17A1  0877               	movf	atoi@s+1,w
  9363     17A2  0085               	movwf	5
  9364     17A3  0800               	movf	0,w	;code access
  9365     17A4  00F8               	movwf	??_atoi
  9366     17A5  01F9               	clrf	??_atoi+1
  9367                           
  9368                           ; Switch on 2 bytes has been partitioned into a top level switch of size 1, and 1 sub-sw
      +                          itches
  9369                           ; Switch size 1, requested type "simple"
  9370                           ; Number of cases is 1, Range of values is 0 to 0
  9371                           ; switch strategies available:
  9372                           ; Name         Instructions Cycles
  9373                           ; simple_byte            4     3 (average)
  9374                           ; direct_byte            8     6 (fixed)
  9375                           ; jumptable            260     6 (fixed)
  9376                           ;	Chosen strategy is simple_byte
  9377     17A6  0879               	movf	??_atoi+1,w
  9378     17A7  3A00               	xorlw	0	; case 0
  9379     17A8  1903               	skipnz
  9380     17A9  2FAB               	goto	l4299
  9381     17AA  2FD4               	goto	l3695
  9382     17AB                     l4299:
  9383                           
  9384                           ; Switch size 1, requested type "simple"
  9385                           ; Number of cases is 2, Range of values is 43 to 45
  9386                           ; switch strategies available:
  9387                           ; Name         Instructions Cycles
  9388                           ; simple_byte            7     4 (average)
  9389                           ; direct_byte           15     9 (fixed)
  9390                           ; jumptable            263     9 (fixed)
  9391                           ;	Chosen strategy is simple_byte
  9392     17AB  0878               	movf	??_atoi,w
  9393     17AC  3A2B               	xorlw	43	; case 43
  9394     17AD  1903               	skipnz
  9395     17AE  2F9A               	goto	l1078
  9396     17AF  3A06               	xorlw	6	; case 45
  9397     17B0  1903               	skipnz
  9398     17B1  2F95               	goto	l3685
  9399     17B2  2FD4               	goto	l3695
  9400     17B3                     l3689:
  9401     17B3  0876               	movf	atoi@s,w
  9402     17B4  0084               	movwf	4
  9403     17B5  0877               	movf	atoi@s+1,w
  9404     17B6  0085               	movwf	5
  9405     17B7  0800               	movf	0,w	;code access
  9406     17B8  00F8               	movwf	??_atoi
  9407     17B9  0140               	movlb	0	; select bank0
  9408     17BA  0823               	movf	atoi@n+1,w
  9409     17BB  00F1               	movwf	___wmul@multiplier+1
  9410     17BC  0822               	movf	atoi@n,w
  9411     17BD  00F0               	movwf	___wmul@multiplier
  9412     17BE  300A               	movlw	10
  9413     17BF  00F2               	movwf	___wmul@multiplicand
  9414     17C0  3000               	movlw	0
  9415     17C1  00F3               	movwf	___wmul@multiplicand+1
  9416     17C2  3191  21C4  3197   	fcall	___wmul
  9417     17C5  0871               	movf	?___wmul+1,w
  9418     17C6  00FA               	movwf	??_atoi+2
  9419     17C7  0878               	movf	??_atoi,w
  9420     17C8  0270               	subwf	?___wmul,w
  9421     17C9  00F9               	movwf	??_atoi+1
  9422     17CA  1C03               	skipc
  9423     17CB  03FA               	decf	??_atoi+2,f
  9424     17CC  0879               	movf	??_atoi+1,w
  9425     17CD  3E30               	addlw	48
  9426     17CE  0140               	movlb	0	; select bank0
  9427     17CF  00A2               	movwf	atoi@n
  9428     17D0  3000               	movlw	0
  9429     17D1  3D7A               	addwfc	??_atoi+2,w
  9430     17D2  00A3               	movwf	atoi@n+1
  9431     17D3  2F9A               	goto	l1078
  9432     17D4                     l3695:
  9433     17D4  0876               	movf	atoi@s,w
  9434     17D5  0084               	movwf	4
  9435     17D6  0877               	movf	atoi@s+1,w
  9436     17D7  0085               	movwf	5
  9437     17D8  0800               	movf	0,w	;code access
  9438     17D9  3ED0               	addlw	208
  9439     17DA  00F8               	movwf	??_atoi
  9440     17DB  30FF               	movlw	255
  9441     17DC  1803               	skipnc
  9442     17DD  3000               	movlw	0
  9443     17DE  00F9               	movwf	??_atoi+1
  9444     17DF  3000               	movlw	0
  9445     17E0  0279               	subwf	??_atoi+1,w
  9446     17E1  300A               	movlw	10
  9447     17E2  1903               	skipnz
  9448     17E3  0278               	subwf	??_atoi,w
  9449     17E4  1C03               	skipc
  9450     17E5  2FE7               	goto	u4611
  9451     17E6  2FE8               	goto	u4610
  9452     17E7                     u4611:
  9453     17E7  2FB3               	goto	l3689
  9454     17E8                     u4610:
  9455     17E8                     l3697:
  9456     17E8  0140               	movlb	0	; select bank0
  9457     17E9  0820               	movf	atoi@neg,w
  9458     17EA  0421               	iorwf	atoi@neg+1,w
  9459     17EB  1D03               	btfss	3,2
  9460     17EC  2FEE               	goto	u4621
  9461     17ED  2FEF               	goto	u4620
  9462     17EE                     u4621:
  9463     17EE  2FFB               	goto	l3701
  9464     17EF                     u4620:
  9465     17EF                     l3699:
  9466     17EF  0922               	comf	atoi@n,w
  9467     17F0  00F8               	movwf	??_atoi
  9468     17F1  0923               	comf	atoi@n+1,w
  9469     17F2  00F9               	movwf	??_atoi+1
  9470     17F3  0AF8               	incf	??_atoi,f
  9471     17F4  1903               	skipnz
  9472     17F5  0AF9               	incf	??_atoi+1,f
  9473     17F6  0878               	movf	??_atoi,w
  9474     17F7  00F6               	movwf	?_atoi
  9475     17F8  0879               	movf	??_atoi+1,w
  9476     17F9  00F7               	movwf	?_atoi+1
  9477     17FA  2FFF               	goto	l1089
  9478     17FB                     l3701:
  9479     17FB  0823               	movf	atoi@n+1,w
  9480     17FC  00F7               	movwf	?_atoi+1
  9481     17FD  0822               	movf	atoi@n,w
  9482     17FE  00F6               	movwf	?_atoi
  9483     17FF                     l1089:
  9484     17FF  0008               	return
  9485     1800                     __end_of_atoi:
  9486                           
  9487                           	psect	text21
  9488     1222                     __ptext21:	
  9489 ;; *************** function _isspace *****************
  9490 ;; Defined at:
  9491 ;;		line 5 in file "C:\Program Files\Microchip\xc8\v2.40\pic\sources\c99\common\isspace.c"
  9492 ;; Parameters:    Size  Location     Type
  9493 ;;  c               2    0[COMMON] int 
  9494 ;; Auto vars:     Size  Location     Type
  9495 ;;		None
  9496 ;; Return value:  Size  Location     Type
  9497 ;;                  2    0[COMMON] int 
  9498 ;; Registers used:
  9499 ;;		wreg, status,2, status,0
  9500 ;; Tracked objects:
  9501 ;;		On entry : 0/0
  9502 ;;		On exit  : 0/0
  9503 ;;		Unchanged: 0/0
  9504 ;; Data sizes:     COMMON   BANK0   BANK1   BANK2   BANK3   BANK4   BANK5   BANK6   BANK7   BANK8   BANK9  BANK10  BANK1
      +1  BANK12  BANK13  BANK14  BANK15  BANK16  BANK17  BANK18  BANK19  BANK20  BANK21  BANK22  BANK23  BANK24  BANK25  BANK2
      +6  BANK27  BANK28  BANK29  BANK30  BANK31  BANK32  BANK33  BANK34  BANK35  BANK36  BANK37  BANK38  BANK39  BANK40  BANK4
      +1  BANK42  BANK43  BANK44  BANK45  BANK46  BANK47  BANK48  BANK49  BANK50
  9505 ;;      Params:         2       0       0       0       0       0       0       0       0       0       0       0       
      +0       0       0       0       0       0       0       0       0       0       0       0       0       0       0       
      +0       0       0       0       0       0       0       0       0       0       0       0       0       0       0       
      +0       0       0       0       0       0       0       0       0       0
  9506 ;;      Locals:         1       0       0       0       0       0       0       0       0       0       0       0       
      +0       0       0       0       0       0       0       0       0       0       0       0       0       0       0       
      +0       0       0       0       0       0       0       0       0       0       0       0       0       0       0       
      +0       0       0       0       0       0       0       0       0       0
  9507 ;;      Temps:          2       0       0       0       0       0       0       0       0       0       0       0       
      +0       0       0       0       0       0       0       0       0       0       0       0       0       0       0       
      +0       0       0       0       0       0       0       0       0       0       0       0       0       0       0       
      +0       0       0       0       0       0       0       0       0       0
  9508 ;;      Totals:         5       0       0       0       0       0       0       0       0       0       0       0       
      +0       0       0       0       0       0       0       0       0       0       0       0       0       0       0       
      +0       0       0       0       0       0       0       0       0       0       0       0       0       0       0       
      +0       0       0       0       0       0       0       0       0       0
  9509 ;;Total ram usage:        5 bytes
  9510 ;; Hardware stack levels used: 1
  9511 ;; This function calls:
  9512 ;;		Nothing
  9513 ;; This function is called by:
  9514 ;;		_atoi
  9515 ;; This function uses a non-reentrant model
  9516 ;;
  9517                           
  9518     1222                     _isspace:	
  9519                           ;psect for function _isspace
  9520                           
  9521     1222                     l3461:	
  9522                           ;incstack = 0
  9523                           ; Regs used in _isspace: [wreg+status,2+status,0]
  9524                           
  9525     1222  01F4               	clrf	_isspace$1110
  9526     1223  0AF4               	incf	_isspace$1110,f
  9527     1224                     l3463:
  9528     1224  3020               	movlw	32
  9529     1225  0670               	xorwf	isspace@c,w
  9530     1226  0471               	iorwf	isspace@c+1,w
  9531     1227  1903               	btfsc	3,2
  9532     1228  2A2A               	goto	u4251
  9533     1229  2A2B               	goto	u4250
  9534     122A                     u4251:
  9535     122A  2A3B               	goto	l3469
  9536     122B                     u4250:
  9537     122B                     l3465:
  9538     122B  0870               	movf	isspace@c,w
  9539     122C  3EF7               	addlw	247
  9540     122D  00F2               	movwf	??_isspace
  9541     122E  30FF               	movlw	255
  9542     122F  3D71               	addwfc	isspace@c+1,w
  9543     1230  00F3               	movwf	??_isspace+1
  9544     1231  3000               	movlw	0
  9545     1232  0273               	subwf	??_isspace+1,w
  9546     1233  3005               	movlw	5
  9547     1234  1903               	skipnz
  9548     1235  0272               	subwf	??_isspace,w
  9549     1236  1C03               	skipc
  9550     1237  2A39               	goto	u4261
  9551     1238  2A3A               	goto	u4260
  9552     1239                     u4261:
  9553     1239  2A3B               	goto	l3469
  9554     123A                     u4260:
  9555     123A                     l3467:
  9556     123A  01F4               	clrf	_isspace$1110
  9557     123B                     l3469:
  9558     123B  0874               	movf	_isspace$1110,w
  9559     123C  00F2               	movwf	??_isspace
  9560     123D  01F3               	clrf	??_isspace+1
  9561     123E  0872               	movf	??_isspace,w
  9562     123F  00F0               	movwf	?_isspace
  9563     1240  0873               	movf	??_isspace+1,w
  9564     1241  00F1               	movwf	?_isspace+1
  9565     1242                     l1113:
  9566     1242  0008               	return
  9567     1243                     __end_of_isspace:
  9568                           
  9569                           	psect	text22
  9570     1136                     __ptext22:	
  9571 ;; *************** function _isdigit *****************
  9572 ;; Defined at:
  9573 ;;		line 5 in file "C:\Program Files\Microchip\xc8\v2.40\pic\sources\c99\common\isdigit.c"
  9574 ;; Parameters:    Size  Location     Type
  9575 ;;  c               2    0[COMMON] int 
  9576 ;; Auto vars:     Size  Location     Type
  9577 ;;		None
  9578 ;; Return value:  Size  Location     Type
  9579 ;;                  2    0[COMMON] int 
  9580 ;; Registers used:
  9581 ;;		wreg, status,2, status,0
  9582 ;; Tracked objects:
  9583 ;;		On entry : 0/0
  9584 ;;		On exit  : 0/0
  9585 ;;		Unchanged: 0/0
  9586 ;; Data sizes:     COMMON   BANK0   BANK1   BANK2   BANK3   BANK4   BANK5   BANK6   BANK7   BANK8   BANK9  BANK10  BANK1
      +1  BANK12  BANK13  BANK14  BANK15  BANK16  BANK17  BANK18  BANK19  BANK20  BANK21  BANK22  BANK23  BANK24  BANK25  BANK2
      +6  BANK27  BANK28  BANK29  BANK30  BANK31  BANK32  BANK33  BANK34  BANK35  BANK36  BANK37  BANK38  BANK39  BANK40  BANK4
      +1  BANK42  BANK43  BANK44  BANK45  BANK46  BANK47  BANK48  BANK49  BANK50
  9587 ;;      Params:         2       0       0       0       0       0       0       0       0       0       0       0       
      +0       0       0       0       0       0       0       0       0       0       0       0       0       0       0       
      +0       0       0       0       0       0       0       0       0       0       0       0       0       0       0       
      +0       0       0       0       0       0       0       0       0       0
  9588 ;;      Locals:         0       0       0       0       0       0       0       0       0       0       0       0       
      +0       0       0       0       0       0       0       0       0       0       0       0       0       0       0       
      +0       0       0       0       0       0       0       0       0       0       0       0       0       0       0       
      +0       0       0       0       0       0       0       0       0       0
  9589 ;;      Temps:          4       0       0       0       0       0       0       0       0       0       0       0       
      +0       0       0       0       0       0       0       0       0       0       0       0       0       0       0       
      +0       0       0       0       0       0       0       0       0       0       0       0       0       0       0       
      +0       0       0       0       0       0       0       0       0       0
  9590 ;;      Totals:         6       0       0       0       0       0       0       0       0       0       0       0       
      +0       0       0       0       0       0       0       0       0       0       0       0       0       0       0       
      +0       0       0       0       0       0       0       0       0       0       0       0       0       0       0       
      +0       0       0       0       0       0       0       0       0       0
  9591 ;;Total ram usage:        6 bytes
  9592 ;; Hardware stack levels used: 1
  9593 ;; This function calls:
  9594 ;;		Nothing
  9595 ;; This function is called by:
  9596 ;;		_vfpfcnvrt
  9597 ;;		_atoi
  9598 ;; This function uses a non-reentrant model
  9599 ;;
  9600                           
  9601     1136                     _isdigit:	
  9602                           ;psect for function _isdigit
  9603                           
  9604     1136                     l3457:	
  9605                           ;incstack = 0
  9606                           ; Regs used in _isdigit: [wreg+status,2+status,0]
  9607                           
  9608     1136  0870               	movf	isdigit@c,w
  9609     1137  3ED0               	addlw	208
  9610     1138  00F2               	movwf	??_isdigit
  9611     1139  30FF               	movlw	255
  9612     113A  3D71               	addwfc	isdigit@c+1,w
  9613     113B  00F3               	movwf	??_isdigit+1
  9614     113C  3000               	movlw	0
  9615     113D  0273               	subwf	??_isdigit+1,w
  9616     113E  300A               	movlw	10
  9617     113F  1903               	skipnz
  9618     1140  0272               	subwf	??_isdigit,w
  9619     1141  1C03               	skipc
  9620     1142  2944               	goto	u4231
  9621     1143  2946               	goto	u4230
  9622     1144                     u4231:
  9623     1144  3001               	movlw	1
  9624     1145  2947               	goto	u4240
  9625     1146                     u4230:
  9626     1146  3000               	movlw	0
  9627     1147                     u4240:
  9628     1147  00F4               	movwf	??_isdigit+2
  9629     1148  01F5               	clrf	??_isdigit+3
  9630     1149  0874               	movf	??_isdigit+2,w
  9631     114A  00F0               	movwf	?_isdigit
  9632     114B  0875               	movf	??_isdigit+3,w
  9633     114C  00F1               	movwf	?_isdigit+1
  9634     114D                     l1105:
  9635     114D  0008               	return
  9636     114E                     __end_of_isdigit:
  9637                           
  9638                           	psect	text23
  9639     11C4                     __ptext23:	
  9640 ;; *************** function ___wmul *****************
  9641 ;; Defined at:
  9642 ;;		line 15 in file "C:\Program Files\Microchip\xc8\v2.40\pic\sources\c99\common\Umul16.c"
  9643 ;; Parameters:    Size  Location     Type
  9644 ;;  multiplier      2    0[COMMON] unsigned int 
  9645 ;;  multiplicand    2    2[COMMON] unsigned int 
  9646 ;; Auto vars:     Size  Location     Type
  9647 ;;  product         2    4[COMMON] unsigned int 
  9648 ;; Return value:  Size  Location     Type
  9649 ;;                  2    0[COMMON] unsigned int 
  9650 ;; Registers used:
  9651 ;;		wreg, status,2, status,0
  9652 ;; Tracked objects:
  9653 ;;		On entry : 0/0
  9654 ;;		On exit  : 0/0
  9655 ;;		Unchanged: 0/0
  9656 ;; Data sizes:     COMMON   BANK0   BANK1   BANK2   BANK3   BANK4   BANK5   BANK6   BANK7   BANK8   BANK9  BANK10  BANK1
      +1  BANK12  BANK13  BANK14  BANK15  BANK16  BANK17  BANK18  BANK19  BANK20  BANK21  BANK22  BANK23  BANK24  BANK25  BANK2
      +6  BANK27  BANK28  BANK29  BANK30  BANK31  BANK32  BANK33  BANK34  BANK35  BANK36  BANK37  BANK38  BANK39  BANK40  BANK4
      +1  BANK42  BANK43  BANK44  BANK45  BANK46  BANK47  BANK48  BANK49  BANK50
  9657 ;;      Params:         4       0       0       0       0       0       0       0       0       0       0       0       
      +0       0       0       0       0       0       0       0       0       0       0       0       0       0       0       
      +0       0       0       0       0       0       0       0       0       0       0       0       0       0       0       
      +0       0       0       0       0       0       0       0       0       0
  9658 ;;      Locals:         2       0       0       0       0       0       0       0       0       0       0       0       
      +0       0       0       0       0       0       0       0       0       0       0       0       0       0       0       
      +0       0       0       0       0       0       0       0       0       0       0       0       0       0       0       
      +0       0       0       0       0       0       0       0       0       0
  9659 ;;      Temps:          0       0       0       0       0       0       0       0       0       0       0       0       
      +0       0       0       0       0       0       0       0       0       0       0       0       0       0       0       
      +0       0       0       0       0       0       0       0       0       0       0       0       0       0       0       
      +0       0       0       0       0       0       0       0       0       0
  9660 ;;      Totals:         6       0       0       0       0       0       0       0       0       0       0       0       
      +0       0       0       0       0       0       0       0       0       0       0       0       0       0       0       
      +0       0       0       0       0       0       0       0       0       0       0       0       0       0       0       
      +0       0       0       0       0       0       0       0       0       0
  9661 ;;Total ram usage:        6 bytes
  9662 ;; Hardware stack levels used: 1
  9663 ;; This function calls:
  9664 ;;		Nothing
  9665 ;; This function is called by:
  9666 ;;		_atoi
  9667 ;; This function uses a non-reentrant model
  9668 ;;
  9669                           
  9670     11C4                     ___wmul:	
  9671                           ;psect for function ___wmul
  9672                           
  9673     11C4                     l2993:	
  9674                           ;incstack = 0
  9675                           ; Regs used in ___wmul: [wreg+status,2+status,0]
  9676                           
  9677     11C4  01F4               	clrf	___wmul@product
  9678     11C5  01F5               	clrf	___wmul@product+1
  9679     11C6                     l2995:
  9680     11C6  1C70               	btfss	___wmul@multiplier,0
  9681     11C7  29C9               	goto	u3191
  9682     11C8  29CA               	goto	u3190
  9683     11C9                     u3191:
  9684     11C9  29CE               	goto	l456
  9685     11CA                     u3190:
  9686     11CA                     l2997:
  9687     11CA  0872               	movf	___wmul@multiplicand,w
  9688     11CB  07F4               	addwf	___wmul@product,f
  9689     11CC  0873               	movf	___wmul@multiplicand+1,w
  9690     11CD  3DF5               	addwfc	___wmul@product+1,f
  9691     11CE                     l456:
  9692     11CE  3001               	movlw	1
  9693     11CF                     u3205:
  9694     11CF  35F2               	lslf	___wmul@multiplicand,f
  9695     11D0  0DF3               	rlf	___wmul@multiplicand+1,f
  9696     11D1  0B89               	decfsz	9,f
  9697     11D2  29CF               	goto	u3205
  9698     11D3                     l2999:
  9699     11D3  3001               	movlw	1
  9700     11D4                     u3215:
  9701     11D4  36F1               	lsrf	___wmul@multiplier+1,f
  9702     11D5  0CF0               	rrf	___wmul@multiplier,f
  9703     11D6  0B89               	decfsz	9,f
  9704     11D7  29D4               	goto	u3215
  9705     11D8                     l3001:
  9706     11D8  0870               	movf	___wmul@multiplier,w
  9707     11D9  0471               	iorwf	___wmul@multiplier+1,w
  9708     11DA  1D03               	btfss	3,2
  9709     11DB  29DD               	goto	u3221
  9710     11DC  29DE               	goto	u3220
  9711     11DD                     u3221:
  9712     11DD  29C6               	goto	l2995
  9713     11DE                     u3220:
  9714     11DE                     l3003:
  9715     11DE  0875               	movf	___wmul@product+1,w
  9716     11DF  00F1               	movwf	?___wmul+1
  9717     11E0  0874               	movf	___wmul@product,w
  9718     11E1  00F0               	movwf	?___wmul
  9719     11E2                     l458:
  9720     11E2  0008               	return
  9721     11E3                     __end_of___wmul:
  9722                           
  9723                           	psect	text24
  9724     1188                     __ptext24:	
  9725 ;; *************** function _enviar_hora *****************
  9726 ;; Defined at:
  9727 ;;		line 26 in file "DS3231.c"
  9728 ;; Parameters:    Size  Location     Type
  9729 ;;		None
  9730 ;; Auto vars:     Size  Location     Type
  9731 ;;		None
  9732 ;; Return value:  Size  Location     Type
  9733 ;;                  1    wreg      void 
  9734 ;; Registers used:
  9735 ;;		wreg, status,2, status,0, pclath, cstack
  9736 ;; Tracked objects:
  9737 ;;		On entry : 0/0
  9738 ;;		On exit  : 0/0
  9739 ;;		Unchanged: 0/0
  9740 ;; Data sizes:     COMMON   BANK0   BANK1   BANK2   BANK3   BANK4   BANK5   BANK6   BANK7   BANK8   BANK9  BANK10  BANK1
      +1  BANK12  BANK13  BANK14  BANK15  BANK16  BANK17  BANK18  BANK19  BANK20  BANK21  BANK22  BANK23  BANK24  BANK25  BANK2
      +6  BANK27  BANK28  BANK29  BANK30  BANK31  BANK32  BANK33  BANK34  BANK35  BANK36  BANK37  BANK38  BANK39  BANK40  BANK4
      +1  BANK42  BANK43  BANK44  BANK45  BANK46  BANK47  BANK48  BANK49  BANK50
  9741 ;;      Params:         0       0       0       0       0       0       0       0       0       0       0       0       
      +0       0       0       0       0       0       0       0       0       0       0       0       0       0       0       
      +0       0       0       0       0       0       0       0       0       0       0       0       0       0       0       
      +0       0       0       0       0       0       0       0       0       0
  9742 ;;      Locals:         0       0       0       0       0       0       0       0       0       0       0       0       
      +0       0       0       0       0       0       0       0       0       0       0       0       0       0       0       
      +0       0       0       0       0       0       0       0       0       0       0       0       0       0       0       
      +0       0       0       0       0       0       0       0       0       0
  9743 ;;      Temps:          0       0       0       0       0       0       0       0       0       0       0       0       
      +0       0       0       0       0       0       0       0       0       0       0       0       0       0       0       
      +0       0       0       0       0       0       0       0       0       0       0       0       0       0       0       
      +0       0       0       0       0       0       0       0       0       0
  9744 ;;      Totals:         0       0       0       0       0       0       0       0       0       0       0       0       
      +0       0       0       0       0       0       0       0       0       0       0       0       0       0       0       
      +0       0       0       0       0       0       0       0       0       0       0       0       0       0       0       
      +0       0       0       0       0       0       0       0       0       0
  9745 ;;Total ram usage:        0 bytes
  9746 ;; Hardware stack levels used: 1
  9747 ;; Hardware stack levels required when called: 1
  9748 ;; This function calls:
  9749 ;;		_I2C_start
  9750 ;;		_I2C_stop
  9751 ;;		_I2C_write
  9752 ;; This function is called by:
  9753 ;;		_main
  9754 ;; This function uses a non-reentrant model
  9755 ;;
  9756                           
  9757     1188                     _enviar_hora:	
  9758                           ;psect for function _enviar_hora
  9759                           
  9760     1188                     l3977:	
  9761                           ;incstack = 0
  9762                           ; Regs used in _enviar_hora: [wreg+status,2+status,0+pclath+cstack]
  9763                           
  9764                           
  9765                           ;DS3231.c: 28:     I2C_start();
  9766     1188  3190  20B6  3191   	fcall	_I2C_start
  9767     118B                     l3979:
  9768                           
  9769                           ;DS3231.c: 29:     I2C_write(0xD0);
  9770     118B  30D0               	movlw	208
  9771     118C  3190  20EB  3191   	fcall	_I2C_write
  9772     118F                     l3981:
  9773                           
  9774                           ;DS3231.c: 30:     I2C_write(0x00);
  9775     118F  3000               	movlw	0
  9776     1190  3190  20EB  3191   	fcall	_I2C_write
  9777     1193                     l3983:
  9778                           
  9779                           ;DS3231.c: 31:     I2C_write(sec);
  9780     1193  0140               	movlb	0	; select bank0
  9781     1194  086F               	movf	_sec,w
  9782     1195  3190  20EB  3191   	fcall	_I2C_write
  9783     1198                     l3985:
  9784                           
  9785                           ;DS3231.c: 32:     I2C_write(min);
  9786     1198  0140               	movlb	0	; select bank0
  9787     1199  086E               	movf	_min,w
  9788     119A  3190  20EB  3191   	fcall	_I2C_write
  9789     119D                     l3987:
  9790                           
  9791                           ;DS3231.c: 33:     I2C_write(hora);
  9792     119D  0140               	movlb	0	; select bank0
  9793     119E  086D               	movf	_hora,w
  9794     119F  3190  20EB  3191   	fcall	_I2C_write
  9795     11A2                     l3989:
  9796                           
  9797                           ;DS3231.c: 34:     I2C_stop();
  9798     11A2  3190  20BD  3191   	fcall	_I2C_stop
  9799     11A5                     l283:
  9800     11A5  0008               	return
  9801     11A6                     __end_of_enviar_hora:
  9802                           
  9803                           	psect	text25
  9804     116A                     __ptext25:	
  9805 ;; *************** function _enviar_fecha *****************
  9806 ;; Defined at:
  9807 ;;		line 53 in file "DS3231.c"
  9808 ;; Parameters:    Size  Location     Type
  9809 ;;		None
  9810 ;; Auto vars:     Size  Location     Type
  9811 ;;		None
  9812 ;; Return value:  Size  Location     Type
  9813 ;;                  1    wreg      void 
  9814 ;; Registers used:
  9815 ;;		wreg, status,2, status,0, pclath, cstack
  9816 ;; Tracked objects:
  9817 ;;		On entry : 0/0
  9818 ;;		On exit  : 0/0
  9819 ;;		Unchanged: 0/0
  9820 ;; Data sizes:     COMMON   BANK0   BANK1   BANK2   BANK3   BANK4   BANK5   BANK6   BANK7   BANK8   BANK9  BANK10  BANK1
      +1  BANK12  BANK13  BANK14  BANK15  BANK16  BANK17  BANK18  BANK19  BANK20  BANK21  BANK22  BANK23  BANK24  BANK25  BANK2
      +6  BANK27  BANK28  BANK29  BANK30  BANK31  BANK32  BANK33  BANK34  BANK35  BANK36  BANK37  BANK38  BANK39  BANK40  BANK4
      +1  BANK42  BANK43  BANK44  BANK45  BANK46  BANK47  BANK48  BANK49  BANK50
  9821 ;;      Params:         0       0       0       0       0       0       0       0       0       0       0       0       
      +0       0       0       0       0       0       0       0       0       0       0       0       0       0       0       
      +0       0       0       0       0       0       0       0       0       0       0       0       0       0       0       
      +0       0       0       0       0       0       0       0       0       0
  9822 ;;      Locals:         0       0       0       0       0       0       0       0       0       0       0       0       
      +0       0       0       0       0       0       0       0       0       0       0       0       0       0       0       
      +0       0       0       0       0       0       0       0       0       0       0       0       0       0       0       
      +0       0       0       0       0       0       0       0       0       0
  9823 ;;      Temps:          0       0       0       0       0       0       0       0       0       0       0       0       
      +0       0       0       0       0       0       0       0       0       0       0       0       0       0       0       
      +0       0       0       0       0       0       0       0       0       0       0       0       0       0       0       
      +0       0       0       0       0       0       0       0       0       0
  9824 ;;      Totals:         0       0       0       0       0       0       0       0       0       0       0       0       
      +0       0       0       0       0       0       0       0       0       0       0       0       0       0       0       
      +0       0       0       0       0       0       0       0       0       0       0       0       0       0       0       
      +0       0       0       0       0       0       0       0       0       0
  9825 ;;Total ram usage:        0 bytes
  9826 ;; Hardware stack levels used: 1
  9827 ;; Hardware stack levels required when called: 1
  9828 ;; This function calls:
  9829 ;;		_I2C_start
  9830 ;;		_I2C_stop
  9831 ;;		_I2C_write
  9832 ;; This function is called by:
  9833 ;;		_main
  9834 ;; This function uses a non-reentrant model
  9835 ;;
  9836                           
  9837     116A                     _enviar_fecha:	
  9838                           ;psect for function _enviar_fecha
  9839                           
  9840     116A                     l4005:	
  9841                           ;incstack = 0
  9842                           ; Regs used in _enviar_fecha: [wreg+status,2+status,0+pclath+cstack]
  9843                           
  9844                           
  9845                           ;DS3231.c: 55:     I2C_start();
  9846     116A  3190  20B6  3191   	fcall	_I2C_start
  9847     116D                     l4007:
  9848                           
  9849                           ;DS3231.c: 56:     I2C_write(0xD0);
  9850     116D  30D0               	movlw	208
  9851     116E  3190  20EB  3191   	fcall	_I2C_write
  9852     1171                     l4009:
  9853                           
  9854                           ;DS3231.c: 57:     I2C_write(0x04);
  9855     1171  3004               	movlw	4
  9856     1172  3190  20EB  3191   	fcall	_I2C_write
  9857     1175                     l4011:
  9858                           
  9859                           ;DS3231.c: 58:     I2C_write(dia);
  9860     1175  0140               	movlb	0	; select bank0
  9861     1176  086C               	movf	_dia,w
  9862     1177  3190  20EB  3191   	fcall	_I2C_write
  9863     117A                     l4013:
  9864                           
  9865                           ;DS3231.c: 59:     I2C_write(mes);
  9866     117A  0141               	movlb	1	; select bank1
  9867     117B  086C               	movf	_mes^(0+128),w
  9868     117C  3190  20EB  3191   	fcall	_I2C_write
  9869     117F                     l4015:
  9870                           
  9871                           ;DS3231.c: 60:     I2C_write(anio);
  9872     117F  0141               	movlb	1	; select bank1
  9873     1180  086B               	movf	_anio^(0+128),w
  9874     1181  3190  20EB  3191   	fcall	_I2C_write
  9875     1184                     l4017:
  9876                           
  9877                           ;DS3231.c: 61:     I2C_stop();
  9878     1184  3190  20BD  3191   	fcall	_I2C_stop
  9879     1187                     l289:
  9880     1187  0008               	return
  9881     1188                     __end_of_enviar_fecha:
  9882                           
  9883                           	psect	text26
  9884     0806                     __ptext26:	
  9885 ;; *************** function _convertirHora *****************
  9886 ;; Defined at:
  9887 ;;		line 4 in file "DS3231.c"
  9888 ;; Parameters:    Size  Location     Type
  9889 ;;		None
  9890 ;; Auto vars:     Size  Location     Type
  9891 ;;  i               1    1[COMMON] unsigned char 
  9892 ;; Return value:  Size  Location     Type
  9893 ;;                  1    wreg      void 
  9894 ;; Registers used:
  9895 ;;		wreg, fsr1l, fsr1h, status,2, status,0
  9896 ;; Tracked objects:
  9897 ;;		On entry : 0/0
  9898 ;;		On exit  : 0/0
  9899 ;;		Unchanged: 0/0
  9900 ;; Data sizes:     COMMON   BANK0   BANK1   BANK2   BANK3   BANK4   BANK5   BANK6   BANK7   BANK8   BANK9  BANK10  BANK1
      +1  BANK12  BANK13  BANK14  BANK15  BANK16  BANK17  BANK18  BANK19  BANK20  BANK21  BANK22  BANK23  BANK24  BANK25  BANK2
      +6  BANK27  BANK28  BANK29  BANK30  BANK31  BANK32  BANK33  BANK34  BANK35  BANK36  BANK37  BANK38  BANK39  BANK40  BANK4
      +1  BANK42  BANK43  BANK44  BANK45  BANK46  BANK47  BANK48  BANK49  BANK50
  9901 ;;      Params:         0       0       0       0       0       0       0       0       0       0       0       0       
      +0       0       0       0       0       0       0       0       0       0       0       0       0       0       0       
      +0       0       0       0       0       0       0       0       0       0       0       0       0       0       0       
      +0       0       0       0       0       0       0       0       0       0
  9902 ;;      Locals:         1       0       0       0       0       0       0       0       0       0       0       0       
      +0       0       0       0       0       0       0       0       0       0       0       0       0       0       0       
      +0       0       0       0       0       0       0       0       0       0       0       0       0       0       0       
      +0       0       0       0       0       0       0       0       0       0
  9903 ;;      Temps:          1       0       0       0       0       0       0       0       0       0       0       0       
      +0       0       0       0       0       0       0       0       0       0       0       0       0       0       0       
      +0       0       0       0       0       0       0       0       0       0       0       0       0       0       0       
      +0       0       0       0       0       0       0       0       0       0
  9904 ;;      Totals:         2       0       0       0       0       0       0       0       0       0       0       0       
      +0       0       0       0       0       0       0       0       0       0       0       0       0       0       0       
      +0       0       0       0       0       0       0       0       0       0       0       0       0       0       0       
      +0       0       0       0       0       0       0       0       0       0
  9905 ;;Total ram usage:        2 bytes
  9906 ;; Hardware stack levels used: 1
  9907 ;; This function calls:
  9908 ;;		Nothing
  9909 ;; This function is called by:
  9910 ;;		_main
  9911 ;; This function uses a non-reentrant model
  9912 ;;
  9913                           
  9914     0806                     _convertirHora:	
  9915                           ;psect for function _convertirHora
  9916                           
  9917     0806                     l3963:	
  9918                           ;incstack = 0
  9919                           ; Regs used in _convertirHora: [wreg+fsr1l+fsr1h+status,2+status,0]
  9920                           
  9921                           
  9922                           ;DS3231.c: 6:     for(uint8_t i=0; i<7; i++){
  9923     0806  01F1               	clrf	convertirHora@i
  9924     0807                     l3969:
  9925                           
  9926                           ;DS3231.c: 7:         Hora[i] &= 0x0F;
  9927     0807  300F               	movlw	15
  9928     0808  00F0               	movwf	??_convertirHora
  9929     0809  0871               	movf	convertirHora@i,w
  9930     080A  3E37               	addlw	(low (_Hora| (0+256)))& (0+255)
  9931     080B  0086               	movwf	6
  9932     080C  3001               	movlw	1	; select bank2/3
  9933     080D  0087               	movwf	7
  9934     080E  0870               	movf	??_convertirHora,w
  9935     080F  0581               	andwf	1,f
  9936     0810                     l3971:
  9937                           
  9938                           ;DS3231.c: 8:     }
  9939     0810  3001               	movlw	1
  9940     0811  00F0               	movwf	??_convertirHora
  9941     0812  0870               	movf	??_convertirHora,w
  9942     0813  07F1               	addwf	convertirHora@i,f
  9943     0814                     l3973:
  9944     0814  3007               	movlw	7
  9945     0815  0271               	subwf	convertirHora@i,w
  9946     0816  1C03               	skipc
  9947     0817  2819               	goto	u4951
  9948     0818  281A               	goto	u4950
  9949     0819                     u4951:
  9950     0819  2807               	goto	l3969
  9951     081A                     u4950:
  9952     081A                     l3975:
  9953                           
  9954                           ;DS3231.c: 10:     hora = ((Hora[0]<<4)+ Hora[1]);
  9955     081A  0142               	movlb	2	; select bank2
  9956     081B  0837               	movf	_Hora^(0+256),w
  9957     081C  00F0               	movwf	??_convertirHora
  9958     081D  3003               	movlw	3
  9959     081E                     u4965:
  9960     081E  35F0               	lslf	??_convertirHora,f
  9961     081F  3EFF               	addlw	-1
  9962     0820  1D03               	skipz
  9963     0821  281E               	goto	u4965
  9964     0822  3570               	lslf	??_convertirHora,w
  9965     0823  0738               	addwf	(_Hora^(0+256)+1),w
  9966     0824  0140               	movlb	0	; select bank0
  9967     0825  00ED               	movwf	_hora
  9968                           
  9969                           ;DS3231.c: 11:     min = ((Hora[2]<<4)+ Hora[3]);
  9970     0826  0142               	movlb	2	; select bank2
  9971     0827  0839               	movf	(_Hora^(0+256)+2),w
  9972     0828  00F0               	movwf	??_convertirHora
  9973     0829  3003               	movlw	3
  9974     082A                     u4975:
  9975     082A  35F0               	lslf	??_convertirHora,f
  9976     082B  3EFF               	addlw	-1
  9977     082C  1D03               	skipz
  9978     082D  282A               	goto	u4975
  9979     082E  3570               	lslf	??_convertirHora,w
  9980     082F  073A               	addwf	(_Hora^(0+256)+3),w
  9981     0830  0140               	movlb	0	; select bank0
  9982     0831  00EE               	movwf	_min
  9983                           
  9984                           ;DS3231.c: 12:     sec = ((Hora[4]<<4)+ Hora[5]);
  9985     0832  0142               	movlb	2	; select bank2
  9986     0833  083B               	movf	(_Hora^(0+256)+4),w
  9987     0834  00F0               	movwf	??_convertirHora
  9988     0835  3003               	movlw	3
  9989     0836                     u4985:
  9990     0836  35F0               	lslf	??_convertirHora,f
  9991     0837  3EFF               	addlw	-1
  9992     0838  1D03               	skipz
  9993     0839  2836               	goto	u4985
  9994     083A  3570               	lslf	??_convertirHora,w
  9995     083B  073C               	addwf	(_Hora^(0+256)+5),w
  9996     083C  0140               	movlb	0	; select bank0
  9997     083D  00EF               	movwf	_sec
  9998     083E                     l275:
  9999     083E  0008               	return
 10000     083F                     __end_of_convertirHora:
 10001                           
 10002                           	psect	text27
 10003     134E                     __ptext27:	
 10004 ;; *************** function _convertirFecha *****************
 10005 ;; Defined at:
 10006 ;;		line 15 in file "DS3231.c"
 10007 ;; Parameters:    Size  Location     Type
 10008 ;;		None
 10009 ;; Auto vars:     Size  Location     Type
 10010 ;;  i               1    1[COMMON] unsigned char 
 10011 ;; Return value:  Size  Location     Type
 10012 ;;                  1    wreg      void 
 10013 ;; Registers used:
 10014 ;;		wreg, fsr1l, fsr1h, status,2, status,0
 10015 ;; Tracked objects:
 10016 ;;		On entry : 0/0
 10017 ;;		On exit  : 0/0
 10018 ;;		Unchanged: 0/0
 10019 ;; Data sizes:     COMMON   BANK0   BANK1   BANK2   BANK3   BANK4   BANK5   BANK6   BANK7   BANK8   BANK9  BANK10  BANK1
      +1  BANK12  BANK13  BANK14  BANK15  BANK16  BANK17  BANK18  BANK19  BANK20  BANK21  BANK22  BANK23  BANK24  BANK25  BANK2
      +6  BANK27  BANK28  BANK29  BANK30  BANK31  BANK32  BANK33  BANK34  BANK35  BANK36  BANK37  BANK38  BANK39  BANK40  BANK4
      +1  BANK42  BANK43  BANK44  BANK45  BANK46  BANK47  BANK48  BANK49  BANK50
 10020 ;;      Params:         0       0       0       0       0       0       0       0       0       0       0       0       
      +0       0       0       0       0       0       0       0       0       0       0       0       0       0       0       
      +0       0       0       0       0       0       0       0       0       0       0       0       0       0       0       
      +0       0       0       0       0       0       0       0       0       0
 10021 ;;      Locals:         1       0       0       0       0       0       0       0       0       0       0       0       
      +0       0       0       0       0       0       0       0       0       0       0       0       0       0       0       
      +0       0       0       0       0       0       0       0       0       0       0       0       0       0       0       
      +0       0       0       0       0       0       0       0       0       0
 10022 ;;      Temps:          1       0       0       0       0       0       0       0       0       0       0       0       
      +0       0       0       0       0       0       0       0       0       0       0       0       0       0       0       
      +0       0       0       0       0       0       0       0       0       0       0       0       0       0       0       
      +0       0       0       0       0       0       0       0       0       0
 10023 ;;      Totals:         2       0       0       0       0       0       0       0       0       0       0       0       
      +0       0       0       0       0       0       0       0       0       0       0       0       0       0       0       
      +0       0       0       0       0       0       0       0       0       0       0       0       0       0       0       
      +0       0       0       0       0       0       0       0       0       0
 10024 ;;Total ram usage:        2 bytes
 10025 ;; Hardware stack levels used: 1
 10026 ;; This function calls:
 10027 ;;		Nothing
 10028 ;; This function is called by:
 10029 ;;		_main
 10030 ;; This function uses a non-reentrant model
 10031 ;;
 10032                           
 10033     134E                     _convertirFecha:	
 10034                           ;psect for function _convertirFecha
 10035                           
 10036     134E                     l3991:	
 10037                           ;incstack = 0
 10038                           ; Regs used in _convertirFecha: [wreg+fsr1l+fsr1h+status,2+status,0]
 10039                           
 10040                           
 10041                           ;DS3231.c: 17:     for(uint8_t i=0; i<7; i++){
 10042     134E  01F1               	clrf	convertirFecha@i
 10043     134F                     l3997:
 10044                           
 10045                           ;DS3231.c: 18:         Fecha[i] &= 0x0F;
 10046     134F  300F               	movlw	15
 10047     1350  00F0               	movwf	??_convertirFecha
 10048     1351  0871               	movf	convertirFecha@i,w
 10049     1352  3E30               	addlw	(low (_Fecha| (0+256)))& (0+255)
 10050     1353  0086               	movwf	6
 10051     1354  3001               	movlw	1	; select bank2/3
 10052     1355  0087               	movwf	7
 10053     1356  0870               	movf	??_convertirFecha,w
 10054     1357  0581               	andwf	1,f
 10055     1358                     l3999:
 10056                           
 10057                           ;DS3231.c: 19:     }
 10058     1358  3001               	movlw	1
 10059     1359  00F0               	movwf	??_convertirFecha
 10060     135A  0870               	movf	??_convertirFecha,w
 10061     135B  07F1               	addwf	convertirFecha@i,f
 10062     135C                     l4001:
 10063     135C  3007               	movlw	7
 10064     135D  0271               	subwf	convertirFecha@i,w
 10065     135E  1C03               	skipc
 10066     135F  2B61               	goto	u4991
 10067     1360  2B62               	goto	u4990
 10068     1361                     u4991:
 10069     1361  2B4F               	goto	l3997
 10070     1362                     u4990:
 10071     1362                     l4003:
 10072                           
 10073                           ;DS3231.c: 21:     dia = ((Fecha[0]<<4)+ Fecha[1]);
 10074     1362  0142               	movlb	2	; select bank2
 10075     1363  0830               	movf	_Fecha^(0+256),w
 10076     1364  00F0               	movwf	??_convertirFecha
 10077     1365  3003               	movlw	3
 10078     1366                     u5005:
 10079     1366  35F0               	lslf	??_convertirFecha,f
 10080     1367  3EFF               	addlw	-1
 10081     1368  1D03               	skipz
 10082     1369  2B66               	goto	u5005
 10083     136A  3570               	lslf	??_convertirFecha,w
 10084     136B  0731               	addwf	(_Fecha^(0+256)+1),w
 10085     136C  0140               	movlb	0	; select bank0
 10086     136D  00EC               	movwf	_dia
 10087                           
 10088                           ;DS3231.c: 22:     mes = ((Fecha[2]<<4)+ Fecha[3]);
 10089     136E  0142               	movlb	2	; select bank2
 10090     136F  0832               	movf	(_Fecha^(0+256)+2),w
 10091     1370  00F0               	movwf	??_convertirFecha
 10092     1371  3003               	movlw	3
 10093     1372                     u5015:
 10094     1372  35F0               	lslf	??_convertirFecha,f
 10095     1373  3EFF               	addlw	-1
 10096     1374  1D03               	skipz
 10097     1375  2B72               	goto	u5015
 10098     1376  3570               	lslf	??_convertirFecha,w
 10099     1377  0733               	addwf	(_Fecha^(0+256)+3),w
 10100     1378  0141               	movlb	1	; select bank1
 10101     1379  00EC               	movwf	_mes^(0+128)
 10102                           
 10103                           ;DS3231.c: 23:     anio = ((Fecha[4]<<4)+ Fecha[5]);
 10104     137A  0142               	movlb	2	; select bank2
 10105     137B  0834               	movf	(_Fecha^(0+256)+4),w
 10106     137C  00F0               	movwf	??_convertirFecha
 10107     137D  3003               	movlw	3
 10108     137E                     u5025:
 10109     137E  35F0               	lslf	??_convertirFecha,f
 10110     137F  3EFF               	addlw	-1
 10111     1380  1D03               	skipz
 10112     1381  2B7E               	goto	u5025
 10113     1382  3570               	lslf	??_convertirFecha,w
 10114     1383  0735               	addwf	(_Fecha^(0+256)+5),w
 10115     1384  0141               	movlb	1	; select bank1
 10116     1385  00EB               	movwf	_anio^(0+128)
 10117     1386                     l280:
 10118     1386  0008               	return
 10119     1387                     __end_of_convertirFecha:
 10120                           
 10121                           	psect	text28
 10122     1111                     __ptext28:	
 10123 ;; *************** function _PIN_MANAGER_init *****************
 10124 ;; Defined at:
 10125 ;;		line 59 in file "main.c"
 10126 ;; Parameters:    Size  Location     Type
 10127 ;;		None
 10128 ;; Auto vars:     Size  Location     Type
 10129 ;;		None
 10130 ;; Return value:  Size  Location     Type
 10131 ;;                  1    wreg      void 
 10132 ;; Registers used:
 10133 ;;		wreg
 10134 ;; Tracked objects:
 10135 ;;		On entry : 0/0
 10136 ;;		On exit  : 0/0
 10137 ;;		Unchanged: 0/0
 10138 ;; Data sizes:     COMMON   BANK0   BANK1   BANK2   BANK3   BANK4   BANK5   BANK6   BANK7   BANK8   BANK9  BANK10  BANK1
      +1  BANK12  BANK13  BANK14  BANK15  BANK16  BANK17  BANK18  BANK19  BANK20  BANK21  BANK22  BANK23  BANK24  BANK25  BANK2
      +6  BANK27  BANK28  BANK29  BANK30  BANK31  BANK32  BANK33  BANK34  BANK35  BANK36  BANK37  BANK38  BANK39  BANK40  BANK4
      +1  BANK42  BANK43  BANK44  BANK45  BANK46  BANK47  BANK48  BANK49  BANK50
 10139 ;;      Params:         0       0       0       0       0       0       0       0       0       0       0       0       
      +0       0       0       0       0       0       0       0       0       0       0       0       0       0       0       
      +0       0       0       0       0       0       0       0       0       0       0       0       0       0       0       
      +0       0       0       0       0       0       0       0       0       0
 10140 ;;      Locals:         0       0       0       0       0       0       0       0       0       0       0       0       
      +0       0       0       0       0       0       0       0       0       0       0       0       0       0       0       
      +0       0       0       0       0       0       0       0       0       0       0       0       0       0       0       
      +0       0       0       0       0       0       0       0       0       0
 10141 ;;      Temps:          0       0       0       0       0       0       0       0       0       0       0       0       
      +0       0       0       0       0       0       0       0       0       0       0       0       0       0       0       
      +0       0       0       0       0       0       0       0       0       0       0       0       0       0       0       
      +0       0       0       0       0       0       0       0       0       0
 10142 ;;      Totals:         0       0       0       0       0       0       0       0       0       0       0       0       
      +0       0       0       0       0       0       0       0       0       0       0       0       0       0       0       
      +0       0       0       0       0       0       0       0       0       0       0       0       0       0       0       
      +0       0       0       0       0       0       0       0       0       0
 10143 ;;Total ram usage:        0 bytes
 10144 ;; Hardware stack levels used: 1
 10145 ;; This function calls:
 10146 ;;		Nothing
 10147 ;; This function is called by:
 10148 ;;		_main
 10149 ;; This function uses a non-reentrant model
 10150 ;;
 10151                           
 10152     1111                     _PIN_MANAGER_init:	
 10153                           ;psect for function _PIN_MANAGER_init
 10154                           
 10155     1111                     l3927:	
 10156                           ;incstack = 0
 10157                           ; Regs used in _PIN_MANAGER_init: [wreg]
 10158                           
 10159                           
 10160                           ;main.c: 61:  TRISC = 0b11111111;
 10161     1111  30FF               	movlw	255
 10162     1112  0140               	movlb	0	; select bank0
 10163     1113  0093               	movwf	19	;volatile
 10164                           
 10165                           ;main.c: 62:  TRISD = 0b00001111;
 10166     1114  300F               	movlw	15
 10167     1115  0094               	movwf	20	;volatile
 10168                           
 10169                           ;main.c: 63:  TRISE = 0b11111111;
 10170     1116  30FF               	movlw	255
 10171     1117  0095               	movwf	21	;volatile
 10172                           
 10173                           ;main.c: 65:  ANSELC = 0b11100111;
 10174     1118  30E7               	movlw	231
 10175     1119  017E               	movlb	62	; select bank62
 10176     111A  00CE               	movwf	78	;volatile
 10177                           
 10178                           ;main.c: 66:  ANSELD = 0b00001111;
 10179     111B  300F               	movlw	15
 10180     111C  00D9               	movwf	89	;volatile
 10181                           
 10182                           ;main.c: 67:  ANSELE = 0b11111001;
 10183     111D  30F9               	movlw	249
 10184     111E  00E4               	movwf	100	;volatile
 10185     111F                     l60:
 10186     111F  0008               	return
 10187     1120                     __end_of_PIN_MANAGER_init:
 10188                           
 10189                           	psect	text29
 10190     10F7                     __ptext29:	
 10191 ;; *************** function _OSC_init *****************
 10192 ;; Defined at:
 10193 ;;		line 52 in file "main.c"
 10194 ;; Parameters:    Size  Location     Type
 10195 ;;		None
 10196 ;; Auto vars:     Size  Location     Type
 10197 ;;		None
 10198 ;; Return value:  Size  Location     Type
 10199 ;;                  1    wreg      void 
 10200 ;; Registers used:
 10201 ;;		wreg, status,2, status,0
 10202 ;; Tracked objects:
 10203 ;;		On entry : 0/0
 10204 ;;		On exit  : 0/0
 10205 ;;		Unchanged: 0/0
 10206 ;; Data sizes:     COMMON   BANK0   BANK1   BANK2   BANK3   BANK4   BANK5   BANK6   BANK7   BANK8   BANK9  BANK10  BANK1
      +1  BANK12  BANK13  BANK14  BANK15  BANK16  BANK17  BANK18  BANK19  BANK20  BANK21  BANK22  BANK23  BANK24  BANK25  BANK2
      +6  BANK27  BANK28  BANK29  BANK30  BANK31  BANK32  BANK33  BANK34  BANK35  BANK36  BANK37  BANK38  BANK39  BANK40  BANK4
      +1  BANK42  BANK43  BANK44  BANK45  BANK46  BANK47  BANK48  BANK49  BANK50
 10207 ;;      Params:         0       0       0       0       0       0       0       0       0       0       0       0       
      +0       0       0       0       0       0       0       0       0       0       0       0       0       0       0       
      +0       0       0       0       0       0       0       0       0       0       0       0       0       0       0       
      +0       0       0       0       0       0       0       0       0       0
 10208 ;;      Locals:         0       0       0       0       0       0       0       0       0       0       0       0       
      +0       0       0       0       0       0       0       0       0       0       0       0       0       0       0       
      +0       0       0       0       0       0       0       0       0       0       0       0       0       0       0       
      +0       0       0       0       0       0       0       0       0       0
 10209 ;;      Temps:          0       0       0       0       0       0       0       0       0       0       0       0       
      +0       0       0       0       0       0       0       0       0       0       0       0       0       0       0       
      +0       0       0       0       0       0       0       0       0       0       0       0       0       0       0       
      +0       0       0       0       0       0       0       0       0       0
 10210 ;;      Totals:         0       0       0       0       0       0       0       0       0       0       0       0       
      +0       0       0       0       0       0       0       0       0       0       0       0       0       0       0       
      +0       0       0       0       0       0       0       0       0       0       0       0       0       0       0       
      +0       0       0       0       0       0       0       0       0       0
 10211 ;;Total ram usage:        0 bytes
 10212 ;; Hardware stack levels used: 1
 10213 ;; This function calls:
 10214 ;;		Nothing
 10215 ;; This function is called by:
 10216 ;;		_main
 10217 ;; This function uses a non-reentrant model
 10218 ;;
 10219                           
 10220     10F7                     _OSC_init:	
 10221                           ;psect for function _OSC_init
 10222                           
 10223     10F7                     l3925:	
 10224                           ;incstack = 0
 10225                           ; Regs used in _OSC_init: [wreg+status,2+status,0]
 10226                           
 10227                           
 10228                           ;main.c: 54:     OSCCON1bits.NOSC = 0b110;
 10229     10F7  0151               	movlb	17	; select bank17
 10230     10F8  080D               	movf	13,w	;volatile
 10231     10F9  398F               	andlw	-113
 10232     10FA  3860               	iorlw	96
 10233     10FB  008D               	movwf	13	;volatile
 10234                           
 10235                           ;main.c: 55:     OSCCON1bits.NDIV = 0b0000;
 10236     10FC  30F0               	movlw	-16
 10237     10FD  058D               	andwf	13,f	;volatile
 10238                           
 10239                           ;main.c: 56:     OSCFRQbits.HFFRQ = 0b010;
 10240     10FE  0813               	movf	19,w	;volatile
 10241     10FF  39F8               	andlw	-8
 10242     1100  3802               	iorlw	2
 10243     1101  0093               	movwf	19	;volatile
 10244     1102                     l57:
 10245     1102  0008               	return
 10246     1103                     __end_of_OSC_init:
 10247                           
 10248                           	psect	text30
 10249     1120                     __ptext30:	
 10250 ;; *************** function _LCD_printf *****************
 10251 ;; Defined at:
 10252 ;;		line 96 in file "LCD.c"
 10253 ;; Parameters:    Size  Location     Type
 10254 ;;  dato            1    wreg     PTR unsigned char 
 10255 ;;		 -> LCD_integer@st(8), main@buffer(10), 
 10256 ;; Auto vars:     Size  Location     Type
 10257 ;;  dato            1    4[COMMON] PTR unsigned char 
 10258 ;;		 -> LCD_integer@st(8), main@buffer(10), 
 10259 ;; Return value:  Size  Location     Type
 10260 ;;                  1    wreg      void 
 10261 ;; Registers used:
 10262 ;;		wreg, fsr1l, fsr1h, status,2, status,0, pclath, cstack
 10263 ;; Tracked objects:
 10264 ;;		On entry : 0/0
 10265 ;;		On exit  : 0/0
 10266 ;;		Unchanged: 0/0
 10267 ;; Data sizes:     COMMON   BANK0   BANK1   BANK2   BANK3   BANK4   BANK5   BANK6   BANK7   BANK8   BANK9  BANK10  BANK1
      +1  BANK12  BANK13  BANK14  BANK15  BANK16  BANK17  BANK18  BANK19  BANK20  BANK21  BANK22  BANK23  BANK24  BANK25  BANK2
      +6  BANK27  BANK28  BANK29  BANK30  BANK31  BANK32  BANK33  BANK34  BANK35  BANK36  BANK37  BANK38  BANK39  BANK40  BANK4
      +1  BANK42  BANK43  BANK44  BANK45  BANK46  BANK47  BANK48  BANK49  BANK50
 10268 ;;      Params:         0       0       0       0       0       0       0       0       0       0       0       0       
      +0       0       0       0       0       0       0       0       0       0       0       0       0       0       0       
      +0       0       0       0       0       0       0       0       0       0       0       0       0       0       0       
      +0       0       0       0       0       0       0       0       0       0
 10269 ;;      Locals:         1       0       0       0       0       0       0       0       0       0       0       0       
      +0       0       0       0       0       0       0       0       0       0       0       0       0       0       0       
      +0       0       0       0       0       0       0       0       0       0       0       0       0       0       0       
      +0       0       0       0       0       0       0       0       0       0
 10270 ;;      Temps:          1       0       0       0       0       0       0       0       0       0       0       0       
      +0       0       0       0       0       0       0       0       0       0       0       0       0       0       0       
      +0       0       0       0       0       0       0       0       0       0       0       0       0       0       0       
      +0       0       0       0       0       0       0       0       0       0
 10271 ;;      Totals:         2       0       0       0       0       0       0       0       0       0       0       0       
      +0       0       0       0       0       0       0       0       0       0       0       0       0       0       0       
      +0       0       0       0       0       0       0       0       0       0       0       0       0       0       0       
      +0       0       0       0       0       0       0       0       0       0
 10272 ;;Total ram usage:        2 bytes
 10273 ;; Hardware stack levels used: 1
 10274 ;; Hardware stack levels required when called: 2
 10275 ;; This function calls:
 10276 ;;		_LCD_dato
 10277 ;; This function is called by:
 10278 ;;		_main
 10279 ;;		_LCD_integer
 10280 ;; This function uses a non-reentrant model
 10281 ;;
 10282                           
 10283     1120                     _LCD_printf:	
 10284                           ;psect for function _LCD_printf
 10285                           
 10286                           
 10287                           ;incstack = 0
 10288                           ; Regs used in _LCD_printf: [wreg+fsr1l+fsr1h+status,2+status,0+pclath+cstack]
 10289                           ;LCD_printf@dato stored from wreg
 10290     1120  00F4               	movwf	LCD_printf@dato
 10291     1121                     l4075:
 10292                           
 10293                           ;LCD.c: 97:     while (*dato){
 10294     1121  292D               	goto	l4081
 10295     1122                     l4077:
 10296                           
 10297                           ;LCD.c: 98:         LCD_dato(*dato);
 10298     1122  0874               	movf	LCD_printf@dato,w
 10299     1123  0086               	movwf	6
 10300     1124  0187               	clrf	7
 10301     1125  0801               	movf	1,w
 10302     1126  3190  20CC  3191   	fcall	_LCD_dato
 10303     1129                     l4079:
 10304                           
 10305                           ;LCD.c: 99:         dato++;
 10306     1129  3001               	movlw	1
 10307     112A  00F3               	movwf	??_LCD_printf
 10308     112B  0873               	movf	??_LCD_printf,w
 10309     112C  07F4               	addwf	LCD_printf@dato,f
 10310     112D                     l4081:
 10311                           
 10312                           ;LCD.c: 97:     while (*dato){
 10313     112D  0874               	movf	LCD_printf@dato,w
 10314     112E  0086               	movwf	6
 10315     112F  0187               	clrf	7
 10316     1130  0801               	movf	1,w
 10317     1131  1D03               	btfss	3,2
 10318     1132  2934               	goto	u5031
 10319     1133  2935               	goto	u5030
 10320     1134                     u5031:
 10321     1134  2922               	goto	l4077
 10322     1135                     u5030:
 10323     1135                     l125:
 10324     1135  0008               	return
 10325     1136                     __end_of_LCD_printf:
 10326                           
 10327                           	psect	text31
 10328     10CC                     __ptext31:	
 10329 ;; *************** function _LCD_dato *****************
 10330 ;; Defined at:
 10331 ;;		line 84 in file "LCD.c"
 10332 ;; Parameters:    Size  Location     Type
 10333 ;;  dato            1    wreg     unsigned char 
 10334 ;; Auto vars:     Size  Location     Type
 10335 ;;  dato            1    2[COMMON] unsigned char 
 10336 ;; Return value:  Size  Location     Type
 10337 ;;                  1    wreg      void 
 10338 ;; Registers used:
 10339 ;;		wreg, status,2, status,0, pclath, cstack
 10340 ;; Tracked objects:
 10341 ;;		On entry : 0/0
 10342 ;;		On exit  : 0/0
 10343 ;;		Unchanged: 0/0
 10344 ;; Data sizes:     COMMON   BANK0   BANK1   BANK2   BANK3   BANK4   BANK5   BANK6   BANK7   BANK8   BANK9  BANK10  BANK1
      +1  BANK12  BANK13  BANK14  BANK15  BANK16  BANK17  BANK18  BANK19  BANK20  BANK21  BANK22  BANK23  BANK24  BANK25  BANK2
      +6  BANK27  BANK28  BANK29  BANK30  BANK31  BANK32  BANK33  BANK34  BANK35  BANK36  BANK37  BANK38  BANK39  BANK40  BANK4
      +1  BANK42  BANK43  BANK44  BANK45  BANK46  BANK47  BANK48  BANK49  BANK50
 10345 ;;      Params:         0       0       0       0       0       0       0       0       0       0       0       0       
      +0       0       0       0       0       0       0       0       0       0       0       0       0       0       0       
      +0       0       0       0       0       0       0       0       0       0       0       0       0       0       0       
      +0       0       0       0       0       0       0       0       0       0
 10346 ;;      Locals:         1       0       0       0       0       0       0       0       0       0       0       0       
      +0       0       0       0       0       0       0       0       0       0       0       0       0       0       0       
      +0       0       0       0       0       0       0       0       0       0       0       0       0       0       0       
      +0       0       0       0       0       0       0       0       0       0
 10347 ;;      Temps:          0       0       0       0       0       0       0       0       0       0       0       0       
      +0       0       0       0       0       0       0       0       0       0       0       0       0       0       0       
      +0       0       0       0       0       0       0       0       0       0       0       0       0       0       0       
      +0       0       0       0       0       0       0       0       0       0
 10348 ;;      Totals:         1       0       0       0       0       0       0       0       0       0       0       0       
      +0       0       0       0       0       0       0       0       0       0       0       0       0       0       0       
      +0       0       0       0       0       0       0       0       0       0       0       0       0       0       0       
      +0       0       0       0       0       0       0       0       0       0
 10349 ;;Total ram usage:        1 bytes
 10350 ;; Hardware stack levels used: 1
 10351 ;; Hardware stack levels required when called: 1
 10352 ;; This function calls:
 10353 ;;		_LCD_write
 10354 ;; This function is called by:
 10355 ;;		_putch
 10356 ;;		_LCD_printf
 10357 ;;		_LCD_custom_char
 10358 ;;		_mostrar_hora
 10359 ;;		_mostrar_fecha
 10360 ;; This function uses a non-reentrant model
 10361 ;;
 10362                           
 10363     10CC                     _LCD_dato:	
 10364                           ;psect for function _LCD_dato
 10365                           
 10366                           
 10367                           ;incstack = 0
 10368                           ; Regs used in _LCD_dato: [wreg+status,2+status,0+pclath+cstack]
 10369                           ;LCD_dato@dato stored from wreg
 10370     10CC  00F2               	movwf	LCD_dato@dato
 10371     10CD                     l2755:
 10372                           
 10373                           ;LCD.c: 87:      LATEbits.LATE1 = 1;
 10374     10CD  0140               	movlb	0	; select bank0
 10375     10CE  149A               	bsf	26,1	;volatile
 10376     10CF                     l2757:
 10377                           
 10378                           ;LCD.c: 88:      LCD_write(dato);
 10379     10CF  0872               	movf	LCD_dato@dato,w
 10380     10D0  3194  246C  3190   	fcall	_LCD_write
 10381     10D3                     l119:
 10382     10D3  0008               	return
 10383     10D4                     __end_of_LCD_dato:
 10384                           
 10385                           	psect	text32
 10386     150E                     __ptext32:	
 10387 ;; *************** function _LCD_init *****************
 10388 ;; Defined at:
 10389 ;;		line 4 in file "LCD.c"
 10390 ;; Parameters:    Size  Location     Type
 10391 ;;		None
 10392 ;; Auto vars:     Size  Location     Type
 10393 ;;		None
 10394 ;; Return value:  Size  Location     Type
 10395 ;;                  1    wreg      void 
 10396 ;; Registers used:
 10397 ;;		wreg, status,2, status,0, pclath, cstack
 10398 ;; Tracked objects:
 10399 ;;		On entry : 0/0
 10400 ;;		On exit  : 0/0
 10401 ;;		Unchanged: 0/0
 10402 ;; Data sizes:     COMMON   BANK0   BANK1   BANK2   BANK3   BANK4   BANK5   BANK6   BANK7   BANK8   BANK9  BANK10  BANK1
      +1  BANK12  BANK13  BANK14  BANK15  BANK16  BANK17  BANK18  BANK19  BANK20  BANK21  BANK22  BANK23  BANK24  BANK25  BANK2
      +6  BANK27  BANK28  BANK29  BANK30  BANK31  BANK32  BANK33  BANK34  BANK35  BANK36  BANK37  BANK38  BANK39  BANK40  BANK4
      +1  BANK42  BANK43  BANK44  BANK45  BANK46  BANK47  BANK48  BANK49  BANK50
 10403 ;;      Params:         0       0       0       0       0       0       0       0       0       0       0       0       
      +0       0       0       0       0       0       0       0       0       0       0       0       0       0       0       
      +0       0       0       0       0       0       0       0       0       0       0       0       0       0       0       
      +0       0       0       0       0       0       0       0       0       0
 10404 ;;      Locals:         0       0       0       0       0       0       0       0       0       0       0       0       
      +0       0       0       0       0       0       0       0       0       0       0       0       0       0       0       
      +0       0       0       0       0       0       0       0       0       0       0       0       0       0       0       
      +0       0       0       0       0       0       0       0       0       0
 10405 ;;      Temps:          2       0       0       0       0       0       0       0       0       0       0       0       
      +0       0       0       0       0       0       0       0       0       0       0       0       0       0       0       
      +0       0       0       0       0       0       0       0       0       0       0       0       0       0       0       
      +0       0       0       0       0       0       0       0       0       0
 10406 ;;      Totals:         2       0       0       0       0       0       0       0       0       0       0       0       
      +0       0       0       0       0       0       0       0       0       0       0       0       0       0       0       
      +0       0       0       0       0       0       0       0       0       0       0       0       0       0       0       
      +0       0       0       0       0       0       0       0       0       0
 10407 ;;Total ram usage:        2 bytes
 10408 ;; Hardware stack levels used: 1
 10409 ;; Hardware stack levels required when called: 2
 10410 ;; This function calls:
 10411 ;;		_LCD_cmd
 10412 ;;		_LCD_write_nible
 10413 ;; This function is called by:
 10414 ;;		_main
 10415 ;; This function uses a non-reentrant model
 10416 ;;
 10417                           
 10418     150E                     _LCD_init:	
 10419                           ;psect for function _LCD_init
 10420                           
 10421     150E                     l3929:	
 10422                           ;incstack = 0
 10423                           ; Regs used in _LCD_init: [wreg+status,2+status,0+pclath+cstack]
 10424                           
 10425                           
 10426                           ;LCD.c: 6:     TRISDbits.TRISD7 = 0;
 10427     150E  0140               	movlb	0	; select bank0
 10428     150F  1394               	bcf	20,7	;volatile
 10429                           
 10430                           ;LCD.c: 7:     TRISDbits.TRISD6 = 0;
 10431     1510  1314               	bcf	20,6	;volatile
 10432                           
 10433                           ;LCD.c: 8:     TRISDbits.TRISD5 = 0;
 10434     1511  1294               	bcf	20,5	;volatile
 10435                           
 10436                           ;LCD.c: 9:     TRISDbits.TRISD4 = 0;
 10437     1512  1214               	bcf	20,4	;volatile
 10438                           
 10439                           ;LCD.c: 11:     TRISEbits.TRISE1 = 0;
 10440     1513  1095               	bcf	21,1	;volatile
 10441                           
 10442                           ;LCD.c: 12:     TRISEbits.TRISE2 = 0;
 10443     1514  1115               	bcf	21,2	;volatile
 10444                           
 10445                           ;LCD.c: 13:     LATEbits.LATE1 = 0;
 10446     1515  109A               	bcf	26,1	;volatile
 10447                           
 10448                           ;LCD.c: 14:     LATEbits.LATE2 = 0;
 10449     1516  111A               	bcf	26,2	;volatile
 10450                           
 10451                           ;LCD.c: 16:     LATDbits.LATD7 = 0;
 10452     1517  1399               	bcf	25,7	;volatile
 10453                           
 10454                           ;LCD.c: 17:     LATDbits.LATD6 = 0;
 10455     1518  1319               	bcf	25,6	;volatile
 10456                           
 10457                           ;LCD.c: 18:     LATDbits.LATD5 = 0;
 10458     1519  1299               	bcf	25,5	;volatile
 10459                           
 10460                           ;LCD.c: 19:     LATDbits.LATD4 = 0;
 10461     151A  1219               	bcf	25,4	;volatile
 10462     151B                     l3931:
 10463                           
 10464                           ;LCD.c: 21:      _delay((unsigned long)((20)*(4000000/4000.0)));
 10465     151B  301A               	movlw	26
 10466     151C  00F3               	movwf	??_LCD_init
 10467     151D  30F8               	movlw	248
 10468     151E                     u5187:
 10469     151E  0B89               	decfsz	9,f
 10470     151F  2D1E               	goto	u5187
 10471     1520  0BF3               	decfsz	??_LCD_init,f
 10472     1521  2D1E               	goto	u5187
 10473     1522  3200               	nop2
 10474     1523                     l3933:
 10475                           
 10476                           ;LCD.c: 22:     LCD_write_nible(0x03);
 10477     1523  3003               	movlw	3
 10478     1524  3192  22F7  3195   	fcall	_LCD_write_nible
 10479     1527                     l3935:
 10480                           
 10481                           ;LCD.c: 23:     _delay((unsigned long)((5)*(4000000/4000.0)));
 10482     1527  3007               	movlw	7
 10483     1528  00F3               	movwf	??_LCD_init
 10484     1529  307D               	movlw	125
 10485     152A                     u5197:
 10486     152A  0B89               	decfsz	9,f
 10487     152B  2D2A               	goto	u5197
 10488     152C  0BF3               	decfsz	??_LCD_init,f
 10489     152D  2D2A               	goto	u5197
 10490     152E  0000               	nop
 10491                           
 10492                           ;LCD.c: 24:     LCD_write_nible(0x03);
 10493     152F  3003               	movlw	3
 10494     1530  3192  22F7  3195   	fcall	_LCD_write_nible
 10495     1533                     l3937:
 10496                           
 10497                           ;LCD.c: 25:     _delay((unsigned long)((100)*(4000000/4000000.0)));
 10498     1533  3021               	movlw	33
 10499     1534                     u5207:
 10500     1534  0B89               	decfsz	9,f
 10501     1535  2D34               	goto	u5207
 10502     1536  0000               	nop
 10503     1537                     l3939:
 10504                           
 10505                           ;LCD.c: 26:     LCD_write_nible(0x03);
 10506     1537  3003               	movlw	3
 10507     1538  3192  22F7  3195   	fcall	_LCD_write_nible
 10508                           
 10509                           ;LCD.c: 27:     _delay((unsigned long)((100)*(4000000/4000000.0)));
 10510     153B  3021               	movlw	33
 10511     153C                     u5217:
 10512     153C  0B89               	decfsz	9,f
 10513     153D  2D3C               	goto	u5217
 10514     153E  0000               	nop
 10515     153F                     l3941:
 10516                           
 10517                           ;LCD.c: 28:     LCD_write_nible(0x02);
 10518     153F  3002               	movlw	2
 10519     1540  3192  22F7  3195   	fcall	_LCD_write_nible
 10520     1543                     l3943:
 10521                           
 10522                           ;LCD.c: 29:     _delay((unsigned long)((100)*(4000000/4000000.0)));
 10523     1543  3021               	movlw	33
 10524     1544                     u5227:
 10525     1544  0B89               	decfsz	9,f
 10526     1545  2D44               	goto	u5227
 10527     1546  0000               	nop
 10528     1547                     l3945:
 10529                           
 10530                           ;LCD.c: 30:     _delay((unsigned long)((50)*(4000000/4000.0)));
 10531     1547  3041               	movlw	65
 10532     1548  00F3               	movwf	??_LCD_init
 10533     1549  30EE               	movlw	238
 10534     154A                     u5237:
 10535     154A  0B89               	decfsz	9,f
 10536     154B  2D4A               	goto	u5237
 10537     154C  0BF3               	decfsz	??_LCD_init,f
 10538     154D  2D4A               	goto	u5237
 10539     154E  3200               	nop2
 10540     154F                     l3947:
 10541                           
 10542                           ;LCD.c: 31:     LCD_cmd(0x02);
 10543     154F  3002               	movlw	2
 10544     1550  3190  20C4  3195   	fcall	_LCD_cmd
 10545     1553                     l3949:
 10546                           
 10547                           ;LCD.c: 32:     LCD_cmd(0x28);
 10548     1553  3028               	movlw	40
 10549     1554  3190  20C4  3195   	fcall	_LCD_cmd
 10550     1557                     l3951:
 10551                           
 10552                           ;LCD.c: 33:     LCD_cmd(0x0C);
 10553     1557  300C               	movlw	12
 10554     1558  3190  20C4  3195   	fcall	_LCD_cmd
 10555     155B                     l3953:
 10556                           
 10557                           ;LCD.c: 34:     LCD_cmd(0x06);
 10558     155B  3006               	movlw	6
 10559     155C  3190  20C4  3195   	fcall	_LCD_cmd
 10560     155F                     l3955:
 10561                           
 10562                           ;LCD.c: 35:     LCD_cmd(0X01);
 10563     155F  3001               	movlw	1
 10564     1560  3190  20C4  3195   	fcall	_LCD_cmd
 10565                           
 10566                           ;LCD.c: 37:     _delay((unsigned long)((300)*(4000000/4000.0)));
 10567     1563  3002               	movlw	2
 10568     1564  00F4               	movwf	??_LCD_init+1
 10569     1565  3086               	movlw	134
 10570     1566  00F3               	movwf	??_LCD_init
 10571     1567  3099               	movlw	153
 10572     1568                     u5247:
 10573     1568  0B89               	decfsz	9,f
 10574     1569  2D68               	goto	u5247
 10575     156A  0BF3               	decfsz	??_LCD_init,f
 10576     156B  2D68               	goto	u5247
 10577     156C  0BF4               	decfsz	??_LCD_init+1,f
 10578     156D  2D68               	goto	u5247
 10579     156E  0000               	nop
 10580     156F                     l91:
 10581     156F  0008               	return
 10582     1570                     __end_of_LCD_init:
 10583                           
 10584                           	psect	text33
 10585     12F7                     __ptext33:	
 10586 ;; *************** function _LCD_write_nible *****************
 10587 ;; Defined at:
 10588 ;;		line 181 in file "LCD.c"
 10589 ;; Parameters:    Size  Location     Type
 10590 ;;  dato            1    wreg     unsigned char 
 10591 ;; Auto vars:     Size  Location     Type
 10592 ;;  dato            1    0[COMMON] unsigned char 
 10593 ;; Return value:  Size  Location     Type
 10594 ;;                  1    wreg      void 
 10595 ;; Registers used:
 10596 ;;		wreg
 10597 ;; Tracked objects:
 10598 ;;		On entry : 0/0
 10599 ;;		On exit  : 0/0
 10600 ;;		Unchanged: 0/0
 10601 ;; Data sizes:     COMMON   BANK0   BANK1   BANK2   BANK3   BANK4   BANK5   BANK6   BANK7   BANK8   BANK9  BANK10  BANK1
      +1  BANK12  BANK13  BANK14  BANK15  BANK16  BANK17  BANK18  BANK19  BANK20  BANK21  BANK22  BANK23  BANK24  BANK25  BANK2
      +6  BANK27  BANK28  BANK29  BANK30  BANK31  BANK32  BANK33  BANK34  BANK35  BANK36  BANK37  BANK38  BANK39  BANK40  BANK4
      +1  BANK42  BANK43  BANK44  BANK45  BANK46  BANK47  BANK48  BANK49  BANK50
 10602 ;;      Params:         0       0       0       0       0       0       0       0       0       0       0       0       
      +0       0       0       0       0       0       0       0       0       0       0       0       0       0       0       
      +0       0       0       0       0       0       0       0       0       0       0       0       0       0       0       
      +0       0       0       0       0       0       0       0       0       0
 10603 ;;      Locals:         1       0       0       0       0       0       0       0       0       0       0       0       
      +0       0       0       0       0       0       0       0       0       0       0       0       0       0       0       
      +0       0       0       0       0       0       0       0       0       0       0       0       0       0       0       
      +0       0       0       0       0       0       0       0       0       0
 10604 ;;      Temps:          0       0       0       0       0       0       0       0       0       0       0       0       
      +0       0       0       0       0       0       0       0       0       0       0       0       0       0       0       
      +0       0       0       0       0       0       0       0       0       0       0       0       0       0       0       
      +0       0       0       0       0       0       0       0       0       0
 10605 ;;      Totals:         1       0       0       0       0       0       0       0       0       0       0       0       
      +0       0       0       0       0       0       0       0       0       0       0       0       0       0       0       
      +0       0       0       0       0       0       0       0       0       0       0       0       0       0       0       
      +0       0       0       0       0       0       0       0       0       0
 10606 ;;Total ram usage:        1 bytes
 10607 ;; Hardware stack levels used: 1
 10608 ;; This function calls:
 10609 ;;		Nothing
 10610 ;; This function is called by:
 10611 ;;		_LCD_init
 10612 ;; This function uses a non-reentrant model
 10613 ;;
 10614                           
 10615     12F7                     _LCD_write_nible:	
 10616                           ;psect for function _LCD_write_nible
 10617                           
 10618                           
 10619                           ;incstack = 0
 10620                           ; Regs used in _LCD_write_nible: [wreg]
 10621                           ;LCD_write_nible@dato stored from wreg
 10622     12F7  00F0               	movwf	LCD_write_nible@dato
 10623     12F8                     l3829:
 10624                           
 10625                           ;LCD.c: 183:     if (dato & (1<<4)) LATDbits.LATD7 = 1; else LATDbits.LATD7 = 0;
 10626     12F8  1E70               	btfss	LCD_write_nible@dato,4
 10627     12F9  2AFB               	goto	u4761
 10628     12FA  2AFC               	goto	u4760
 10629     12FB                     u4761:
 10630     12FB  2AFF               	goto	l163
 10631     12FC                     u4760:
 10632     12FC                     l3831:
 10633     12FC  0140               	movlb	0	; select bank0
 10634     12FD  1799               	bsf	25,7	;volatile
 10635     12FE  2B01               	goto	l3833
 10636     12FF                     l163:
 10637     12FF  0140               	movlb	0	; select bank0
 10638     1300  1399               	bcf	25,7	;volatile
 10639     1301                     l3833:
 10640                           
 10641                           ;LCD.c: 184:     if (dato & (1<<5)) LATDbits.LATD6 = 1; else LATDbits.LATD6 = 0;
 10642     1301  1EF0               	btfss	LCD_write_nible@dato,5
 10643     1302  2B04               	goto	u4771
 10644     1303  2B05               	goto	u4770
 10645     1304                     u4771:
 10646     1304  2B07               	goto	l165
 10647     1305                     u4770:
 10648     1305                     l3835:
 10649     1305  1719               	bsf	25,6	;volatile
 10650     1306  2B08               	goto	l3837
 10651     1307                     l165:
 10652     1307  1319               	bcf	25,6	;volatile
 10653     1308                     l3837:
 10654                           
 10655                           ;LCD.c: 185:     if (dato & (1<<6)) LATDbits.LATD5 = 1; else LATDbits.LATD5 = 0;
 10656     1308  1F70               	btfss	LCD_write_nible@dato,6
 10657     1309  2B0B               	goto	u4781
 10658     130A  2B0C               	goto	u4780
 10659     130B                     u4781:
 10660     130B  2B0E               	goto	l167
 10661     130C                     u4780:
 10662     130C                     l3839:
 10663     130C  1699               	bsf	25,5	;volatile
 10664     130D  2B0F               	goto	l3841
 10665     130E                     l167:
 10666     130E  1299               	bcf	25,5	;volatile
 10667     130F                     l3841:
 10668                           
 10669                           ;LCD.c: 186:     if (dato & (1<<7)) LATDbits.LATD4 = 1; else LATDbits.LATD4 = 0;
 10670     130F  1FF0               	btfss	LCD_write_nible@dato,7
 10671     1310  2B12               	goto	u4791
 10672     1311  2B13               	goto	u4790
 10673     1312                     u4791:
 10674     1312  2B15               	goto	l169
 10675     1313                     u4790:
 10676     1313                     l3843:
 10677     1313  1619               	bsf	25,4	;volatile
 10678     1314  2B16               	goto	l170
 10679     1315                     l169:
 10680     1315  1219               	bcf	25,4	;volatile
 10681     1316                     l170:
 10682                           
 10683                           ;LCD.c: 187:     LATEbits.LATE2 = 1;
 10684     1316  151A               	bsf	26,2	;volatile
 10685                           
 10686                           ;LCD.c: 188:     __nop();
 10687     1317  0000               	nop
 10688                           
 10689                           ;LCD.c: 189:     __nop();
 10690     1318  0000               	nop
 10691                           
 10692                           ;LCD.c: 190:     LATEbits.LATE2 = 0;
 10693     1319  0140               	movlb	0	; select bank0
 10694     131A  111A               	bcf	26,2	;volatile
 10695     131B                     l3845:
 10696                           
 10697                           ;LCD.c: 192:     _delay((unsigned long)((50)*(4000000/4000000.0)));
 10698     131B  3010               	movlw	16
 10699     131C                     u5257:
 10700     131C  0B89               	decfsz	9,f
 10701     131D  2B1C               	goto	u5257
 10702     131E  3200               	nop2
 10703     131F                     l171:
 10704     131F  0008               	return
 10705     1320                     __end_of_LCD_write_nible:
 10706                           
 10707                           	psect	text34
 10708     1320                     __ptext34:	
 10709 ;; *************** function _LCD_goto *****************
 10710 ;; Defined at:
 10711 ;;		line 118 in file "LCD.c"
 10712 ;; Parameters:    Size  Location     Type
 10713 ;;  x               1    wreg     unsigned char 
 10714 ;;  y               1    3[COMMON] unsigned char 
 10715 ;; Auto vars:     Size  Location     Type
 10716 ;;  x               1    7[COMMON] unsigned char 
 10717 ;;  posicion        1    6[COMMON] unsigned char 
 10718 ;; Return value:  Size  Location     Type
 10719 ;;                  1    wreg      void 
 10720 ;; Registers used:
 10721 ;;		wreg, fsr0l, fsr0h, status,2, status,0, pclath, cstack
 10722 ;; Tracked objects:
 10723 ;;		On entry : 0/0
 10724 ;;		On exit  : 0/0
 10725 ;;		Unchanged: 0/0
 10726 ;; Data sizes:     COMMON   BANK0   BANK1   BANK2   BANK3   BANK4   BANK5   BANK6   BANK7   BANK8   BANK9  BANK10  BANK1
      +1  BANK12  BANK13  BANK14  BANK15  BANK16  BANK17  BANK18  BANK19  BANK20  BANK21  BANK22  BANK23  BANK24  BANK25  BANK2
      +6  BANK27  BANK28  BANK29  BANK30  BANK31  BANK32  BANK33  BANK34  BANK35  BANK36  BANK37  BANK38  BANK39  BANK40  BANK4
      +1  BANK42  BANK43  BANK44  BANK45  BANK46  BANK47  BANK48  BANK49  BANK50
 10727 ;;      Params:         1       0       0       0       0       0       0       0       0       0       0       0       
      +0       0       0       0       0       0       0       0       0       0       0       0       0       0       0       
      +0       0       0       0       0       0       0       0       0       0       0       0       0       0       0       
      +0       0       0       0       0       0       0       0       0       0
 10728 ;;      Locals:         2       0       0       0       0       0       0       0       0       0       0       0       
      +0       0       0       0       0       0       0       0       0       0       0       0       0       0       0       
      +0       0       0       0       0       0       0       0       0       0       0       0       0       0       0       
      +0       0       0       0       0       0       0       0       0       0
 10729 ;;      Temps:          2       0       0       0       0       0       0       0       0       0       0       0       
      +0       0       0       0       0       0       0       0       0       0       0       0       0       0       0       
      +0       0       0       0       0       0       0       0       0       0       0       0       0       0       0       
      +0       0       0       0       0       0       0       0       0       0
 10730 ;;      Totals:         5       0       0       0       0       0       0       0       0       0       0       0       
      +0       0       0       0       0       0       0       0       0       0       0       0       0       0       0       
      +0       0       0       0       0       0       0       0       0       0       0       0       0       0       0       
      +0       0       0       0       0       0       0       0       0       0
 10731 ;;Total ram usage:        5 bytes
 10732 ;; Hardware stack levels used: 1
 10733 ;; Hardware stack levels required when called: 2
 10734 ;; This function calls:
 10735 ;;		_LCD_cmd
 10736 ;; This function is called by:
 10737 ;;		_main
 10738 ;; This function uses a non-reentrant model
 10739 ;;
 10740                           
 10741     1320                     _LCD_goto:	
 10742                           ;psect for function _LCD_goto
 10743                           
 10744                           
 10745                           ;incstack = 0
 10746                           ; Regs used in _LCD_goto: [wreg-fsr0h+status,2+status,0+pclath+cstack]
 10747                           ;LCD_goto@x stored from wreg
 10748     1320  00F7               	movwf	LCD_goto@x
 10749     1321                     l4019:
 10750                           
 10751                           ;LCD.c: 119:     uint8_t posicion;;LCD.c: 120:     switch (y) {
 10752     1321  2B32               	goto	l4033
 10753     1322                     l4021:
 10754     1322  0877               	movf	LCD_goto@x,w
 10755     1323  3EFF               	addlw	255
 10756     1324  00F6               	movwf	LCD_goto@posicion
 10757     1325  2B48               	goto	l4035
 10758     1326                     l4023:
 10759     1326  0877               	movf	LCD_goto@x,w
 10760     1327  3E3F               	addlw	63
 10761     1328  00F6               	movwf	LCD_goto@posicion
 10762     1329  2B48               	goto	l4035
 10763     132A                     l4025:
 10764     132A  0877               	movf	LCD_goto@x,w
 10765     132B  3E13               	addlw	19
 10766     132C  00F6               	movwf	LCD_goto@posicion
 10767     132D  2B48               	goto	l4035
 10768     132E                     l4027:
 10769     132E  0877               	movf	LCD_goto@x,w
 10770     132F  3E53               	addlw	83
 10771     1330  00F6               	movwf	LCD_goto@posicion
 10772     1331  2B48               	goto	l4035
 10773     1332                     l4033:
 10774     1332  0873               	movf	LCD_goto@y,w
 10775     1333  00F4               	movwf	??_LCD_goto
 10776     1334  01F5               	clrf	??_LCD_goto+1
 10777                           
 10778                           ; Switch on 2 bytes has been partitioned into a top level switch of size 1, and 1 sub-sw
      +                          itches
 10779                           ; Switch size 1, requested type "simple"
 10780                           ; Number of cases is 1, Range of values is 0 to 0
 10781                           ; switch strategies available:
 10782                           ; Name         Instructions Cycles
 10783                           ; simple_byte            4     3 (average)
 10784                           ; direct_byte            8     6 (fixed)
 10785                           ; jumptable            260     6 (fixed)
 10786                           ;	Chosen strategy is simple_byte
 10787     1335  0875               	movf	??_LCD_goto+1,w
 10788     1336  3A00               	xorlw	0	; case 0
 10789     1337  1903               	skipnz
 10790     1338  2B3A               	goto	l4301
 10791     1339  2B22               	goto	l4021
 10792     133A                     l4301:
 10793                           
 10794                           ; Switch size 1, requested type "simple"
 10795                           ; Number of cases is 4, Range of values is 1 to 4
 10796                           ; switch strategies available:
 10797                           ; Name         Instructions Cycles
 10798                           ; simple_byte           13     7 (average)
 10799                           ; direct_byte           17     9 (fixed)
 10800                           ; jumptable            263     9 (fixed)
 10801                           ;	Chosen strategy is simple_byte
 10802     133A  0874               	movf	??_LCD_goto,w
 10803     133B  3A01               	xorlw	1	; case 1
 10804     133C  1903               	skipnz
 10805     133D  2B22               	goto	l4021
 10806     133E  3A03               	xorlw	3	; case 2
 10807     133F  1903               	skipnz
 10808     1340  2B26               	goto	l4023
 10809     1341  3A01               	xorlw	1	; case 3
 10810     1342  1903               	skipnz
 10811     1343  2B2A               	goto	l4025
 10812     1344  3A07               	xorlw	7	; case 4
 10813     1345  1903               	skipnz
 10814     1346  2B2E               	goto	l4027
 10815     1347  2B22               	goto	l4021
 10816     1348                     l4035:
 10817                           
 10818                           ;LCD.c: 127:     LCD_cmd(0x80 | posicion);
 10819     1348  0876               	movf	LCD_goto@posicion,w
 10820     1349  3880               	iorlw	128
 10821     134A  3190  20C4  3193   	fcall	_LCD_cmd
 10822     134D                     l140:
 10823     134D  0008               	return
 10824     134E                     __end_of_LCD_goto:
 10825                           
 10826                           	psect	text35
 10827     10C4                     __ptext35:	
 10828 ;; *************** function _LCD_cmd *****************
 10829 ;; Defined at:
 10830 ;;		line 68 in file "LCD.c"
 10831 ;; Parameters:    Size  Location     Type
 10832 ;;  dato            1    wreg     unsigned char 
 10833 ;; Auto vars:     Size  Location     Type
 10834 ;;  dato            1    2[COMMON] unsigned char 
 10835 ;; Return value:  Size  Location     Type
 10836 ;;                  1    wreg      void 
 10837 ;; Registers used:
 10838 ;;		wreg, status,2, status,0, pclath, cstack
 10839 ;; Tracked objects:
 10840 ;;		On entry : 0/0
 10841 ;;		On exit  : 0/0
 10842 ;;		Unchanged: 0/0
 10843 ;; Data sizes:     COMMON   BANK0   BANK1   BANK2   BANK3   BANK4   BANK5   BANK6   BANK7   BANK8   BANK9  BANK10  BANK1
      +1  BANK12  BANK13  BANK14  BANK15  BANK16  BANK17  BANK18  BANK19  BANK20  BANK21  BANK22  BANK23  BANK24  BANK25  BANK2
      +6  BANK27  BANK28  BANK29  BANK30  BANK31  BANK32  BANK33  BANK34  BANK35  BANK36  BANK37  BANK38  BANK39  BANK40  BANK4
      +1  BANK42  BANK43  BANK44  BANK45  BANK46  BANK47  BANK48  BANK49  BANK50
 10844 ;;      Params:         0       0       0       0       0       0       0       0       0       0       0       0       
      +0       0       0       0       0       0       0       0       0       0       0       0       0       0       0       
      +0       0       0       0       0       0       0       0       0       0       0       0       0       0       0       
      +0       0       0       0       0       0       0       0       0       0
 10845 ;;      Locals:         1       0       0       0       0       0       0       0       0       0       0       0       
      +0       0       0       0       0       0       0       0       0       0       0       0       0       0       0       
      +0       0       0       0       0       0       0       0       0       0       0       0       0       0       0       
      +0       0       0       0       0       0       0       0       0       0
 10846 ;;      Temps:          0       0       0       0       0       0       0       0       0       0       0       0       
      +0       0       0       0       0       0       0       0       0       0       0       0       0       0       0       
      +0       0       0       0       0       0       0       0       0       0       0       0       0       0       0       
      +0       0       0       0       0       0       0       0       0       0
 10847 ;;      Totals:         1       0       0       0       0       0       0       0       0       0       0       0       
      +0       0       0       0       0       0       0       0       0       0       0       0       0       0       0       
      +0       0       0       0       0       0       0       0       0       0       0       0       0       0       0       
      +0       0       0       0       0       0       0       0       0       0
 10848 ;;Total ram usage:        1 bytes
 10849 ;; Hardware stack levels used: 1
 10850 ;; Hardware stack levels required when called: 1
 10851 ;; This function calls:
 10852 ;;		_LCD_write
 10853 ;; This function is called by:
 10854 ;;		_LCD_init
 10855 ;;		_LCD_goto
 10856 ;;		_LCD_cursor
 10857 ;;		_LCD_segunda_linea
 10858 ;;		_LCD_clear
 10859 ;;		_LCD_home
 10860 ;;		_LCD_custom_char
 10861 ;; This function uses a non-reentrant model
 10862 ;;
 10863                           
 10864     10C4                     _LCD_cmd:	
 10865                           ;psect for function _LCD_cmd
 10866                           
 10867                           
 10868                           ;incstack = 0
 10869                           ; Regs used in _LCD_cmd: [wreg+status,2+status,0+pclath+cstack]
 10870                           ;LCD_cmd@dato stored from wreg
 10871     10C4  00F2               	movwf	LCD_cmd@dato
 10872     10C5                     l3847:
 10873                           
 10874                           ;LCD.c: 71:     LATEbits.LATE1 = 0;
 10875     10C5  0140               	movlb	0	; select bank0
 10876     10C6  109A               	bcf	26,1	;volatile
 10877     10C7                     l3849:
 10878                           
 10879                           ;LCD.c: 72:     LCD_write(dato);
 10880     10C7  0872               	movf	LCD_cmd@dato,w
 10881     10C8  3194  246C  3190   	fcall	_LCD_write
 10882     10CB                     l113:
 10883     10CB  0008               	return
 10884     10CC                     __end_of_LCD_cmd:
 10885                           
 10886                           	psect	text36
 10887     146C                     __ptext36:	
 10888 ;; *************** function _LCD_write *****************
 10889 ;; Defined at:
 10890 ;;		line 44 in file "LCD.c"
 10891 ;; Parameters:    Size  Location     Type
 10892 ;;  dato            1    wreg     unsigned char 
 10893 ;; Auto vars:     Size  Location     Type
 10894 ;;  dato            1    1[COMMON] unsigned char 
 10895 ;; Return value:  Size  Location     Type
 10896 ;;                  1    wreg      void 
 10897 ;; Registers used:
 10898 ;;		wreg, status,2, status,0
 10899 ;; Tracked objects:
 10900 ;;		On entry : 0/0
 10901 ;;		On exit  : 0/0
 10902 ;;		Unchanged: 0/0
 10903 ;; Data sizes:     COMMON   BANK0   BANK1   BANK2   BANK3   BANK4   BANK5   BANK6   BANK7   BANK8   BANK9  BANK10  BANK1
      +1  BANK12  BANK13  BANK14  BANK15  BANK16  BANK17  BANK18  BANK19  BANK20  BANK21  BANK22  BANK23  BANK24  BANK25  BANK2
      +6  BANK27  BANK28  BANK29  BANK30  BANK31  BANK32  BANK33  BANK34  BANK35  BANK36  BANK37  BANK38  BANK39  BANK40  BANK4
      +1  BANK42  BANK43  BANK44  BANK45  BANK46  BANK47  BANK48  BANK49  BANK50
 10904 ;;      Params:         0       0       0       0       0       0       0       0       0       0       0       0       
      +0       0       0       0       0       0       0       0       0       0       0       0       0       0       0       
      +0       0       0       0       0       0       0       0       0       0       0       0       0       0       0       
      +0       0       0       0       0       0       0       0       0       0
 10905 ;;      Locals:         1       0       0       0       0       0       0       0       0       0       0       0       
      +0       0       0       0       0       0       0       0       0       0       0       0       0       0       0       
      +0       0       0       0       0       0       0       0       0       0       0       0       0       0       0       
      +0       0       0       0       0       0       0       0       0       0
 10906 ;;      Temps:          1       0       0       0       0       0       0       0       0       0       0       0       
      +0       0       0       0       0       0       0       0       0       0       0       0       0       0       0       
      +0       0       0       0       0       0       0       0       0       0       0       0       0       0       0       
      +0       0       0       0       0       0       0       0       0       0
 10907 ;;      Totals:         2       0       0       0       0       0       0       0       0       0       0       0       
      +0       0       0       0       0       0       0       0       0       0       0       0       0       0       0       
      +0       0       0       0       0       0       0       0       0       0       0       0       0       0       0       
      +0       0       0       0       0       0       0       0       0       0
 10908 ;;Total ram usage:        2 bytes
 10909 ;; Hardware stack levels used: 1
 10910 ;; This function calls:
 10911 ;;		Nothing
 10912 ;; This function is called by:
 10913 ;;		_LCD_cmd
 10914 ;;		_LCD_dato
 10915 ;; This function uses a non-reentrant model
 10916 ;;
 10917                           
 10918     146C                     _LCD_write:	
 10919                           ;psect for function _LCD_write
 10920                           
 10921                           
 10922                           ;incstack = 0
 10923                           ; Regs used in _LCD_write: [wreg+status,2+status,0]
 10924                           ;LCD_write@dato stored from wreg
 10925     146C  00F1               	movwf	LCD_write@dato
 10926     146D                     l2725:
 10927                           
 10928                           ;LCD.c: 46:     if (dato & (1<<4)) LATDbits.LATD7 = 1; else LATDbits.LATD7 = 0;
 10929     146D  1E71               	btfss	LCD_write@dato,4
 10930     146E  2C70               	goto	u2591
 10931     146F  2C71               	goto	u2590
 10932     1470                     u2591:
 10933     1470  2C74               	goto	l94
 10934     1471                     u2590:
 10935     1471                     l2727:
 10936     1471  0140               	movlb	0	; select bank0
 10937     1472  1799               	bsf	25,7	;volatile
 10938     1473  2C76               	goto	l2729
 10939     1474                     l94:
 10940     1474  0140               	movlb	0	; select bank0
 10941     1475  1399               	bcf	25,7	;volatile
 10942     1476                     l2729:
 10943                           
 10944                           ;LCD.c: 47:     if (dato & (1<<5)) LATDbits.LATD6 = 1; else LATDbits.LATD6 = 0;
 10945     1476  1EF1               	btfss	LCD_write@dato,5
 10946     1477  2C79               	goto	u2601
 10947     1478  2C7A               	goto	u2600
 10948     1479                     u2601:
 10949     1479  2C7C               	goto	l96
 10950     147A                     u2600:
 10951     147A                     l2731:
 10952     147A  1719               	bsf	25,6	;volatile
 10953     147B  2C7D               	goto	l2733
 10954     147C                     l96:
 10955     147C  1319               	bcf	25,6	;volatile
 10956     147D                     l2733:
 10957                           
 10958                           ;LCD.c: 48:     if (dato & (1<<6)) LATDbits.LATD5 = 1; else LATDbits.LATD5 = 0;
 10959     147D  1F71               	btfss	LCD_write@dato,6
 10960     147E  2C80               	goto	u2611
 10961     147F  2C81               	goto	u2610
 10962     1480                     u2611:
 10963     1480  2C83               	goto	l98
 10964     1481                     u2610:
 10965     1481                     l2735:
 10966     1481  1699               	bsf	25,5	;volatile
 10967     1482  2C84               	goto	l2737
 10968     1483                     l98:
 10969     1483  1299               	bcf	25,5	;volatile
 10970     1484                     l2737:
 10971                           
 10972                           ;LCD.c: 49:     if (dato & (1<<7)) LATDbits.LATD4 = 1; else LATDbits.LATD4 = 0;
 10973     1484  1FF1               	btfss	LCD_write@dato,7
 10974     1485  2C87               	goto	u2621
 10975     1486  2C88               	goto	u2620
 10976     1487                     u2621:
 10977     1487  2C8A               	goto	l100
 10978     1488                     u2620:
 10979     1488                     l2739:
 10980     1488  1619               	bsf	25,4	;volatile
 10981     1489  2C8B               	goto	l101
 10982     148A                     l100:
 10983     148A  1219               	bcf	25,4	;volatile
 10984     148B                     l101:
 10985                           
 10986                           ;LCD.c: 50:     LATEbits.LATE2 = 1;
 10987     148B  151A               	bsf	26,2	;volatile
 10988                           
 10989                           ;LCD.c: 51:     __nop();
 10990     148C  0000               	nop
 10991                           
 10992                           ;LCD.c: 52:     LATEbits.LATE2 = 0;
 10993     148D  0140               	movlb	0	; select bank0
 10994     148E  111A               	bcf	26,2	;volatile
 10995     148F                     l2741:
 10996                           
 10997                           ;LCD.c: 54:     dato = (dato << 4);
 10998     148F  0871               	movf	LCD_write@dato,w
 10999     1490  00F0               	movwf	??_LCD_write
 11000     1491  3003               	movlw	3
 11001     1492                     u2635:
 11002     1492  35F0               	lslf	??_LCD_write,f
 11003     1493  3EFF               	addlw	-1
 11004     1494  1D03               	skipz
 11005     1495  2C92               	goto	u2635
 11006     1496  3570               	lslf	??_LCD_write,w
 11007     1497  00F1               	movwf	LCD_write@dato
 11008     1498                     l2743:
 11009                           
 11010                           ;LCD.c: 55:     if (dato & (1<<4)) LATDbits.LATD7 = 1; else LATDbits.LATD7 = 0;
 11011     1498  1E71               	btfss	LCD_write@dato,4
 11012     1499  2C9B               	goto	u2641
 11013     149A  2C9C               	goto	u2640
 11014     149B                     u2641:
 11015     149B  2C9E               	goto	l102
 11016     149C                     u2640:
 11017     149C                     l2745:
 11018     149C  1799               	bsf	25,7	;volatile
 11019     149D  2C9F               	goto	l103
 11020     149E                     l102:
 11021     149E  1399               	bcf	25,7	;volatile
 11022     149F                     l103:
 11023                           
 11024                           ;LCD.c: 56:     if (dato & (1<<5)) LATDbits.LATD6 = 1; else LATDbits.LATD6 = 0;
 11025     149F  1EF1               	btfss	LCD_write@dato,5
 11026     14A0  2CA2               	goto	u2651
 11027     14A1  2CA3               	goto	u2650
 11028     14A2                     u2651:
 11029     14A2  2CA5               	goto	l104
 11030     14A3                     u2650:
 11031     14A3                     l2747:
 11032     14A3  1719               	bsf	25,6	;volatile
 11033     14A4  2CA6               	goto	l105
 11034     14A5                     l104:
 11035     14A5  1319               	bcf	25,6	;volatile
 11036     14A6                     l105:
 11037                           
 11038                           ;LCD.c: 57:     if (dato & (1<<6)) LATDbits.LATD5 = 1; else LATDbits.LATD5 = 0;
 11039     14A6  1F71               	btfss	LCD_write@dato,6
 11040     14A7  2CA9               	goto	u2661
 11041     14A8  2CAA               	goto	u2660
 11042     14A9                     u2661:
 11043     14A9  2CAC               	goto	l106
 11044     14AA                     u2660:
 11045     14AA                     l2749:
 11046     14AA  1699               	bsf	25,5	;volatile
 11047     14AB  2CAD               	goto	l107
 11048     14AC                     l106:
 11049     14AC  1299               	bcf	25,5	;volatile
 11050     14AD                     l107:
 11051                           
 11052                           ;LCD.c: 58:     if (dato & (1<<7)) LATDbits.LATD4 = 1; else LATDbits.LATD4 = 0;
 11053     14AD  1FF1               	btfss	LCD_write@dato,7
 11054     14AE  2CB0               	goto	u2671
 11055     14AF  2CB1               	goto	u2670
 11056     14B0                     u2671:
 11057     14B0  2CB3               	goto	l108
 11058     14B1                     u2670:
 11059     14B1                     l2751:
 11060     14B1  1619               	bsf	25,4	;volatile
 11061     14B2  2CB4               	goto	l109
 11062     14B3                     l108:
 11063     14B3  1219               	bcf	25,4	;volatile
 11064     14B4                     l109:
 11065                           
 11066                           ;LCD.c: 59:     LATEbits.LATE2 = 1;
 11067     14B4  151A               	bsf	26,2	;volatile
 11068                           
 11069                           ;LCD.c: 60:     __nop();
 11070     14B5  0000               	nop
 11071                           
 11072                           ;LCD.c: 61:     LATEbits.LATE2 = 0;
 11073     14B6  0140               	movlb	0	; select bank0
 11074     14B7  111A               	bcf	26,2	;volatile
 11075     14B8                     l2753:
 11076                           
 11077                           ;LCD.c: 62:     _delay((unsigned long)((50)*(4000000/4000000.0)));
 11078     14B8  3010               	movlw	16
 11079     14B9                     u5267:
 11080     14B9  0B89               	decfsz	9,f
 11081     14BA  2CB9               	goto	u5267
 11082     14BB  3200               	nop2
 11083     14BC                     l110:
 11084     14BC  0008               	return
 11085     14BD                     __end_of_LCD_write:
 11086                           
 11087                           	psect	text37
 11088     0004                     __ptext37:	
 11089 ;; *************** function _I2C_init *****************
 11090 ;; Defined at:
 11091 ;;		line 5 in file "I2C.c"
 11092 ;; Parameters:    Size  Location     Type
 11093 ;;		None
 11094 ;; Auto vars:     Size  Location     Type
 11095 ;;		None
 11096 ;; Return value:  Size  Location     Type
 11097 ;;                  1    wreg      void 
 11098 ;; Registers used:
 11099 ;;		wreg, status,2
 11100 ;; Tracked objects:
 11101 ;;		On entry : 0/0
 11102 ;;		On exit  : 0/0
 11103 ;;		Unchanged: 0/0
 11104 ;; Data sizes:     COMMON   BANK0   BANK1   BANK2   BANK3   BANK4   BANK5   BANK6   BANK7   BANK8   BANK9  BANK10  BANK1
      +1  BANK12  BANK13  BANK14  BANK15  BANK16  BANK17  BANK18  BANK19  BANK20  BANK21  BANK22  BANK23  BANK24  BANK25  BANK2
      +6  BANK27  BANK28  BANK29  BANK30  BANK31  BANK32  BANK33  BANK34  BANK35  BANK36  BANK37  BANK38  BANK39  BANK40  BANK4
      +1  BANK42  BANK43  BANK44  BANK45  BANK46  BANK47  BANK48  BANK49  BANK50
 11105 ;;      Params:         0       0       0       0       0       0       0       0       0       0       0       0       
      +0       0       0       0       0       0       0       0       0       0       0       0       0       0       0       
      +0       0       0       0       0       0       0       0       0       0       0       0       0       0       0       
      +0       0       0       0       0       0       0       0       0       0
 11106 ;;      Locals:         0       0       0       0       0       0       0       0       0       0       0       0       
      +0       0       0       0       0       0       0       0       0       0       0       0       0       0       0       
      +0       0       0       0       0       0       0       0       0       0       0       0       0       0       0       
      +0       0       0       0       0       0       0       0       0       0
 11107 ;;      Temps:          0       0       0       0       0       0       0       0       0       0       0       0       
      +0       0       0       0       0       0       0       0       0       0       0       0       0       0       0       
      +0       0       0       0       0       0       0       0       0       0       0       0       0       0       0       
      +0       0       0       0       0       0       0       0       0       0
 11108 ;;      Totals:         0       0       0       0       0       0       0       0       0       0       0       0       
      +0       0       0       0       0       0       0       0       0       0       0       0       0       0       0       
      +0       0       0       0       0       0       0       0       0       0       0       0       0       0       0       
      +0       0       0       0       0       0       0       0       0       0
 11109 ;;Total ram usage:        0 bytes
 11110 ;; Hardware stack levels used: 1
 11111 ;; This function calls:
 11112 ;;		Nothing
 11113 ;; This function is called by:
 11114 ;;		_main
 11115 ;; This function uses a non-reentrant model
 11116 ;;
 11117                           
 11118     0004                     _I2C_init:	
 11119                           ;psect for function _I2C_init
 11120                           
 11121     0004                     l3957:	
 11122                           ;incstack = 0
 11123                           ; Regs used in _I2C_init: [wreg+status,2]
 11124                           
 11125                           
 11126                           ;I2C.c: 7:     SSP1CLKPPS = 0x14;
 11127     0004  3014               	movlw	20
 11128     0005  017D               	movlb	61	; select bank61
 11129     0006  00C5               	movwf	69	;volatile
 11130                           
 11131                           ;I2C.c: 8:     RC3PPS = 0x15;
 11132     0007  3015               	movlw	21
 11133     0008  017E               	movlb	62	; select bank62
 11134     0009  00A3               	movwf	35	;volatile
 11135                           
 11136                           ;I2C.c: 9:     RC4PPS = 0x14;
 11137     000A  3014               	movlw	20
 11138     000B  00A4               	movwf	36	;volatile
 11139                           
 11140                           ;I2C.c: 10:     SSP1DATPPS = 0x13;
 11141     000C  3013               	movlw	19
 11142     000D  017D               	movlb	61	; select bank61
 11143     000E  00C6               	movwf	70	;volatile
 11144                           
 11145                           ;I2C.c: 12:     SSP1STAT = 0b10000000;
 11146     000F  3080               	movlw	128
 11147     0010  0143               	movlb	3	; select bank3
 11148     0011  008F               	movwf	15	;volatile
 11149                           
 11150                           ;I2C.c: 13:  SSP1CON1 = 0b00101000;
 11151     0012  3028               	movlw	40
 11152     0013  0090               	movwf	16	;volatile
 11153     0014                     l3959:
 11154                           
 11155                           ;I2C.c: 14:  SSP1CON3 = 0x00;
 11156     0014  0192               	clrf	18	;volatile
 11157     0015                     l3961:
 11158                           
 11159                           ;I2C.c: 15:  SSP1ADD = ((4000000/(4UL*100000UL))-1);
 11160     0015  3009               	movlw	9
 11161     0016  008D               	movwf	13	;volatile
 11162     0017                     l196:
 11163     0017  0008               	return
 11164     0018                     __end_of_I2C_init:
 11165                           
 11166                           	psect	text38
 11167     165F                     __ptext38:	
 11168 ;; *************** function _DS3231_read_temp *****************
 11169 ;; Defined at:
 11170 ;;		line 119 in file "DS3231.c"
 11171 ;; Parameters:    Size  Location     Type
 11172 ;;		None
 11173 ;; Auto vars:     Size  Location     Type
 11174 ;;  temp            4   31[BANK0 ] float 
 11175 ;;  lowByte         1   30[BANK0 ] unsigned char 
 11176 ;;  highByte        1   29[BANK0 ] unsigned char 
 11177 ;; Return value:  Size  Location     Type
 11178 ;;                  4   21[BANK0 ] float 
 11179 ;; Registers used:
 11180 ;;		wreg, status,2, status,0, pclath, cstack
 11181 ;; Tracked objects:
 11182 ;;		On entry : 0/0
 11183 ;;		On exit  : 0/0
 11184 ;;		Unchanged: 0/0
 11185 ;; Data sizes:     COMMON   BANK0   BANK1   BANK2   BANK3   BANK4   BANK5   BANK6   BANK7   BANK8   BANK9  BANK10  BANK1
      +1  BANK12  BANK13  BANK14  BANK15  BANK16  BANK17  BANK18  BANK19  BANK20  BANK21  BANK22  BANK23  BANK24  BANK25  BANK2
      +6  BANK27  BANK28  BANK29  BANK30  BANK31  BANK32  BANK33  BANK34  BANK35  BANK36  BANK37  BANK38  BANK39  BANK40  BANK4
      +1  BANK42  BANK43  BANK44  BANK45  BANK46  BANK47  BANK48  BANK49  BANK50
 11186 ;;      Params:         0       4       0       0       0       0       0       0       0       0       0       0       
      +0       0       0       0       0       0       0       0       0       0       0       0       0       0       0       
      +0       0       0       0       0       0       0       0       0       0       0       0       0       0       0       
      +0       0       0       0       0       0       0       0       0       0
 11187 ;;      Locals:         0       6       0       0       0       0       0       0       0       0       0       0       
      +0       0       0       0       0       0       0       0       0       0       0       0       0       0       0       
      +0       0       0       0       0       0       0       0       0       0       0       0       0       0       0       
      +0       0       0       0       0       0       0       0       0       0
 11188 ;;      Temps:          0       4       0       0       0       0       0       0       0       0       0       0       
      +0       0       0       0       0       0       0       0       0       0       0       0       0       0       0       
      +0       0       0       0       0       0       0       0       0       0       0       0       0       0       0       
      +0       0       0       0       0       0       0       0       0       0
 11189 ;;      Totals:         0      14       0       0       0       0       0       0       0       0       0       0       
      +0       0       0       0       0       0       0       0       0       0       0       0       0       0       0       
      +0       0       0       0       0       0       0       0       0       0       0       0       0       0       0       
      +0       0       0       0       0       0       0       0       0       0
 11190 ;;Total ram usage:       14 bytes
 11191 ;; Hardware stack levels used: 1
 11192 ;; Hardware stack levels required when called: 2
 11193 ;; This function calls:
 11194 ;;		_DS3231_read
 11195 ;;		___fladd
 11196 ;;		___flmul
 11197 ;;		___xxtofl
 11198 ;; This function is called by:
 11199 ;;		_main
 11200 ;; This function uses a non-reentrant model
 11201 ;;
 11202                           
 11203     165F                     _DS3231_read_temp:	
 11204                           ;psect for function _DS3231_read_temp
 11205                           
 11206     165F                     l4041:	
 11207                           ;incstack = 0
 11208                           ; Regs used in _DS3231_read_temp: [wreg+status,2+status,0+pclath+cstack]
 11209                           
 11210     165F                     l4043:
 11211     165F                     l4045:
 11212     165F                     l4047:
 11213                           
 11214                           ;DS3231.c: 125:     highByte = DS3231_read(0x11);
 11215     165F  3011               	movlw	17
 11216     1660  3191  214E  3196   	fcall	_DS3231_read
 11217     1663  0140               	movlb	0	; select bank0
 11218     1664  00BD               	movwf	DS3231_read_temp@highByte
 11219     1665                     l4049:
 11220                           
 11221                           ;DS3231.c: 126:     lowByte = DS3231_read(0x12);
 11222     1665  3012               	movlw	18
 11223     1666  3191  214E  3196   	fcall	_DS3231_read
 11224     1669  0140               	movlb	0	; select bank0
 11225     166A  00BE               	movwf	DS3231_read_temp@lowByte
 11226                           
 11227                           ;DS3231.c: 128:     lowByte >>= 6;
 11228     166B  0EBE               	swapf	DS3231_read_temp@lowByte,f
 11229     166C  0CBE               	rrf	DS3231_read_temp@lowByte,f
 11230     166D  0CBE               	rrf	DS3231_read_temp@lowByte,f
 11231     166E  3003               	movlw	3
 11232     166F  05BE               	andwf	DS3231_read_temp@lowByte,f
 11233     1670                     l4051:
 11234                           
 11235                           ;DS3231.c: 129:     lowByte &= 0x03;
 11236     1670  3003               	movlw	3
 11237     1671  00B9               	movwf	??_DS3231_read_temp
 11238     1672  0839               	movf	??_DS3231_read_temp,w
 11239     1673  05BE               	andwf	DS3231_read_temp@lowByte,f
 11240     1674                     l4053:
 11241                           
 11242                           ;DS3231.c: 130:     temp = ((float)lowByte);
 11243     1674  083E               	movf	DS3231_read_temp@lowByte,w
 11244     1675  00B9               	movwf	??_DS3231_read_temp
 11245     1676  01BA               	clrf	??_DS3231_read_temp+1
 11246     1677  01BB               	clrf	??_DS3231_read_temp+2
 11247     1678  01BC               	clrf	??_DS3231_read_temp+3
 11248     1679  083C               	movf	??_DS3231_read_temp+3,w
 11249     167A  00F3               	movwf	___xxtofl@val+3
 11250     167B  083B               	movf	??_DS3231_read_temp+2,w
 11251     167C  00F2               	movwf	___xxtofl@val+2
 11252     167D  083A               	movf	??_DS3231_read_temp+1,w
 11253     167E  00F1               	movwf	___xxtofl@val+1
 11254     167F  0839               	movf	??_DS3231_read_temp,w
 11255     1680  00F0               	movwf	___xxtofl@val
 11256     1681  3000               	movlw	0
 11257     1682  3180  2018  3196   	fcall	___xxtofl
 11258     1685  0873               	movf	?___xxtofl+3,w
 11259     1686  0140               	movlb	0	; select bank0
 11260     1687  00C2               	movwf	DS3231_read_temp@temp+3
 11261     1688  0872               	movf	?___xxtofl+2,w
 11262     1689  00C1               	movwf	DS3231_read_temp@temp+2
 11263     168A  0871               	movf	?___xxtofl+1,w
 11264     168B  00C0               	movwf	DS3231_read_temp@temp+1
 11265     168C  0870               	movf	?___xxtofl,w
 11266     168D  00BF               	movwf	DS3231_read_temp@temp
 11267     168E                     l4055:
 11268                           
 11269                           ;DS3231.c: 131:     temp *= 0.25;
 11270     168E  303E               	movlw	62
 11271     168F  00A3               	movwf	___flmul@b+3
 11272     1690  3080               	movlw	128
 11273     1691  00A2               	movwf	___flmul@b+2
 11274     1692  3000               	movlw	0
 11275     1693  00A1               	movwf	___flmul@b+1
 11276     1694  3000               	movlw	0
 11277     1695  00A0               	movwf	___flmul@b
 11278     1696  0842               	movf	DS3231_read_temp@temp+3,w
 11279     1697  00A7               	movwf	___flmul@a+3
 11280     1698  0841               	movf	DS3231_read_temp@temp+2,w
 11281     1699  00A6               	movwf	___flmul@a+2
 11282     169A  0840               	movf	DS3231_read_temp@temp+1,w
 11283     169B  00A5               	movwf	___flmul@a+1
 11284     169C  083F               	movf	DS3231_read_temp@temp,w
 11285     169D  00A4               	movwf	___flmul@a
 11286     169E  318D  25C5  3196   	fcall	___flmul
 11287     16A1  0140               	movlb	0	; select bank0
 11288     16A2  0823               	movf	?___flmul+3,w
 11289     16A3  00C2               	movwf	DS3231_read_temp@temp+3
 11290     16A4  0822               	movf	?___flmul+2,w
 11291     16A5  00C1               	movwf	DS3231_read_temp@temp+2
 11292     16A6  0821               	movf	?___flmul+1,w
 11293     16A7  00C0               	movwf	DS3231_read_temp@temp+1
 11294     16A8  0820               	movf	?___flmul,w
 11295     16A9  00BF               	movwf	DS3231_read_temp@temp
 11296     16AA                     l4057:
 11297                           
 11298                           ;DS3231.c: 132:     temp += highByte;
 11299     16AA  083D               	movf	DS3231_read_temp@highByte,w
 11300     16AB  00B9               	movwf	??_DS3231_read_temp
 11301     16AC  01BA               	clrf	??_DS3231_read_temp+1
 11302     16AD  01BB               	clrf	??_DS3231_read_temp+2
 11303     16AE  01BC               	clrf	??_DS3231_read_temp+3
 11304     16AF  083C               	movf	??_DS3231_read_temp+3,w
 11305     16B0  00F3               	movwf	___xxtofl@val+3
 11306     16B1  083B               	movf	??_DS3231_read_temp+2,w
 11307     16B2  00F2               	movwf	___xxtofl@val+2
 11308     16B3  083A               	movf	??_DS3231_read_temp+1,w
 11309     16B4  00F1               	movwf	___xxtofl@val+1
 11310     16B5  0839               	movf	??_DS3231_read_temp,w
 11311     16B6  00F0               	movwf	___xxtofl@val
 11312     16B7  3001               	movlw	1
 11313     16B8  3180  2018  3196   	fcall	___xxtofl
 11314     16BB  0873               	movf	?___xxtofl+3,w
 11315     16BC  0140               	movlb	0	; select bank0
 11316     16BD  00A3               	movwf	___fladd@b+3
 11317     16BE  0872               	movf	?___xxtofl+2,w
 11318     16BF  00A2               	movwf	___fladd@b+2
 11319     16C0  0871               	movf	?___xxtofl+1,w
 11320     16C1  00A1               	movwf	___fladd@b+1
 11321     16C2  0870               	movf	?___xxtofl,w
 11322     16C3  00A0               	movwf	___fladd@b
 11323     16C4  0842               	movf	DS3231_read_temp@temp+3,w
 11324     16C5  00A7               	movwf	___fladd@a+3
 11325     16C6  0841               	movf	DS3231_read_temp@temp+2,w
 11326     16C7  00A6               	movwf	___fladd@a+2
 11327     16C8  0840               	movf	DS3231_read_temp@temp+1,w
 11328     16C9  00A5               	movwf	___fladd@a+1
 11329     16CA  083F               	movf	DS3231_read_temp@temp,w
 11330     16CB  00A4               	movwf	___fladd@a
 11331     16CC  318B  23BD  3196   	fcall	___fladd
 11332     16CF  0140               	movlb	0	; select bank0
 11333     16D0  0823               	movf	?___fladd+3,w
 11334     16D1  00C2               	movwf	DS3231_read_temp@temp+3
 11335     16D2  0822               	movf	?___fladd+2,w
 11336     16D3  00C1               	movwf	DS3231_read_temp@temp+2
 11337     16D4  0821               	movf	?___fladd+1,w
 11338     16D5  00C0               	movwf	DS3231_read_temp@temp+1
 11339     16D6  0820               	movf	?___fladd,w
 11340     16D7  00BF               	movwf	DS3231_read_temp@temp
 11341     16D8                     l4059:
 11342                           
 11343                           ;DS3231.c: 133:     return temp;
 11344     16D8  0842               	movf	DS3231_read_temp@temp+3,w
 11345     16D9  00B8               	movwf	?_DS3231_read_temp+3
 11346     16DA  0841               	movf	DS3231_read_temp@temp+2,w
 11347     16DB  00B7               	movwf	?_DS3231_read_temp+2
 11348     16DC  0840               	movf	DS3231_read_temp@temp+1,w
 11349     16DD  00B6               	movwf	?_DS3231_read_temp+1
 11350     16DE  083F               	movf	DS3231_read_temp@temp,w
 11351     16DF  00B5               	movwf	?_DS3231_read_temp
 11352     16E0                     l304:
 11353     16E0  0008               	return
 11354     16E1                     __end_of_DS3231_read_temp:
 11355                           
 11356                           	psect	text39
 11357     0018                     __ptext39:	
 11358 ;; *************** function ___xxtofl *****************
 11359 ;; Defined at:
 11360 ;;		line 10 in file "C:\Program Files\Microchip\xc8\v2.40\pic\sources\c99\common\xxtofl.c"
 11361 ;; Parameters:    Size  Location     Type
 11362 ;;  sign            1    wreg     unsigned char 
 11363 ;;  val             4    0[COMMON] long 
 11364 ;; Auto vars:     Size  Location     Type
 11365 ;;  sign            1    8[COMMON] unsigned char 
 11366 ;;  arg             4   10[COMMON] unsigned long 
 11367 ;;  exp             1    9[COMMON] unsigned char 
 11368 ;; Return value:  Size  Location     Type
 11369 ;;                  4    0[COMMON] unsigned char 
 11370 ;; Registers used:
 11371 ;;		wreg, status,2, status,0
 11372 ;; Tracked objects:
 11373 ;;		On entry : 0/0
 11374 ;;		On exit  : 0/0
 11375 ;;		Unchanged: 0/0
 11376 ;; Data sizes:     COMMON   BANK0   BANK1   BANK2   BANK3   BANK4   BANK5   BANK6   BANK7   BANK8   BANK9  BANK10  BANK1
      +1  BANK12  BANK13  BANK14  BANK15  BANK16  BANK17  BANK18  BANK19  BANK20  BANK21  BANK22  BANK23  BANK24  BANK25  BANK2
      +6  BANK27  BANK28  BANK29  BANK30  BANK31  BANK32  BANK33  BANK34  BANK35  BANK36  BANK37  BANK38  BANK39  BANK40  BANK4
      +1  BANK42  BANK43  BANK44  BANK45  BANK46  BANK47  BANK48  BANK49  BANK50
 11377 ;;      Params:         4       0       0       0       0       0       0       0       0       0       0       0       
      +0       0       0       0       0       0       0       0       0       0       0       0       0       0       0       
      +0       0       0       0       0       0       0       0       0       0       0       0       0       0       0       
      +0       0       0       0       0       0       0       0       0       0
 11378 ;;      Locals:         6       0       0       0       0       0       0       0       0       0       0       0       
      +0       0       0       0       0       0       0       0       0       0       0       0       0       0       0       
      +0       0       0       0       0       0       0       0       0       0       0       0       0       0       0       
      +0       0       0       0       0       0       0       0       0       0
 11379 ;;      Temps:          4       0       0       0       0       0       0       0       0       0       0       0       
      +0       0       0       0       0       0       0       0       0       0       0       0       0       0       0       
      +0       0       0       0       0       0       0       0       0       0       0       0       0       0       0       
      +0       0       0       0       0       0       0       0       0       0
 11380 ;;      Totals:        14       0       0       0       0       0       0       0       0       0       0       0       
      +0       0       0       0       0       0       0       0       0       0       0       0       0       0       0       
      +0       0       0       0       0       0       0       0       0       0       0       0       0       0       0       
      +0       0       0       0       0       0       0       0       0       0
 11381 ;;Total ram usage:       14 bytes
 11382 ;; Hardware stack levels used: 1
 11383 ;; This function calls:
 11384 ;;		Nothing
 11385 ;; This function is called by:
 11386 ;;		_DS3231_read_temp
 11387 ;; This function uses a non-reentrant model
 11388 ;;
 11389                           
 11390     0018                     ___xxtofl:	
 11391                           ;psect for function ___xxtofl
 11392                           
 11393                           
 11394                           ;incstack = 0
 11395                           ; Regs used in ___xxtofl: [wreg+status,2+status,0]
 11396                           ;___xxtofl@sign stored from wreg
 11397     0018  00F8               	movwf	___xxtofl@sign
 11398     0019                     l3871:
 11399     0019  0878               	movf	___xxtofl@sign,w
 11400     001A  1903               	btfsc	3,2
 11401     001B  281D               	goto	u4801
 11402     001C  281E               	goto	u4800
 11403     001D                     u4801:
 11404     001D  2832               	goto	l3877
 11405     001E                     u4800:
 11406     001E                     l3873:
 11407     001E  1FF3               	btfss	___xxtofl@val+3,7
 11408     001F  2821               	goto	u4811
 11409     0020  2822               	goto	u4810
 11410     0021                     u4811:
 11411     0021  2832               	goto	l3877
 11412     0022                     u4810:
 11413     0022                     l3875:
 11414     0022  0970               	comf	___xxtofl@val,w
 11415     0023  00FA               	movwf	___xxtofl@arg
 11416     0024  0971               	comf	___xxtofl@val+1,w
 11417     0025  00FB               	movwf	___xxtofl@arg+1
 11418     0026  0972               	comf	___xxtofl@val+2,w
 11419     0027  00FC               	movwf	___xxtofl@arg+2
 11420     0028  0973               	comf	___xxtofl@val+3,w
 11421     0029  00FD               	movwf	___xxtofl@arg+3
 11422     002A  0AFA               	incf	___xxtofl@arg,f
 11423     002B  1903               	skipnz
 11424     002C  0AFB               	incf	___xxtofl@arg+1,f
 11425     002D  1903               	skipnz
 11426     002E  0AFC               	incf	___xxtofl@arg+2,f
 11427     002F  1903               	skipnz
 11428     0030  0AFD               	incf	___xxtofl@arg+3,f
 11429     0031  283A               	goto	l897
 11430     0032                     l3877:
 11431     0032  0873               	movf	___xxtofl@val+3,w
 11432     0033  00FD               	movwf	___xxtofl@arg+3
 11433     0034  0872               	movf	___xxtofl@val+2,w
 11434     0035  00FC               	movwf	___xxtofl@arg+2
 11435     0036  0871               	movf	___xxtofl@val+1,w
 11436     0037  00FB               	movwf	___xxtofl@arg+1
 11437     0038  0870               	movf	___xxtofl@val,w
 11438     0039  00FA               	movwf	___xxtofl@arg
 11439     003A                     l897:
 11440     003A  0873               	movf	___xxtofl@val+3,w
 11441     003B  0472               	iorwf	___xxtofl@val+2,w
 11442     003C  0471               	iorwf	___xxtofl@val+1,w
 11443     003D  0470               	iorwf	___xxtofl@val,w
 11444     003E  1D03               	skipz
 11445     003F  2841               	goto	u4821
 11446     0040  2842               	goto	u4820
 11447     0041                     u4821:
 11448     0041  284B               	goto	l3883
 11449     0042                     u4820:
 11450     0042                     l3879:
 11451     0042  3000               	movlw	0
 11452     0043  00F3               	movwf	?___xxtofl+3
 11453     0044  3000               	movlw	0
 11454     0045  00F2               	movwf	?___xxtofl+2
 11455     0046  3000               	movlw	0
 11456     0047  00F1               	movwf	?___xxtofl+1
 11457     0048  3000               	movlw	0
 11458     0049  00F0               	movwf	?___xxtofl
 11459     004A  28C1               	goto	l899
 11460     004B                     l3883:
 11461     004B  3096               	movlw	150
 11462     004C  00F9               	movwf	___xxtofl@exp
 11463     004D  2859               	goto	l3887
 11464     004E                     l3885:
 11465     004E  3001               	movlw	1
 11466     004F  00F4               	movwf	??___xxtofl
 11467     0050  0874               	movf	??___xxtofl,w
 11468     0051  07F9               	addwf	___xxtofl@exp,f
 11469     0052  3001               	movlw	1
 11470     0053                     u4835:
 11471     0053  36FD               	lsrf	___xxtofl@arg+3,f
 11472     0054  0CFC               	rrf	___xxtofl@arg+2,f
 11473     0055  0CFB               	rrf	___xxtofl@arg+1,f
 11474     0056  0CFA               	rrf	___xxtofl@arg,f
 11475     0057  0B89               	decfsz	9,f
 11476     0058  2853               	goto	u4835
 11477     0059                     l3887:
 11478     0059  30FE               	movlw	254
 11479     005A  057D               	andwf	___xxtofl@arg+3,w
 11480     005B  1D03               	btfss	3,2
 11481     005C  285E               	goto	u4841
 11482     005D  285F               	goto	u4840
 11483     005E                     u4841:
 11484     005E  284E               	goto	l3885
 11485     005F                     u4840:
 11486     005F  2873               	goto	l903
 11487     0060                     l3889:
 11488     0060  3001               	movlw	1
 11489     0061  00F4               	movwf	??___xxtofl
 11490     0062  0874               	movf	??___xxtofl,w
 11491     0063  07F9               	addwf	___xxtofl@exp,f
 11492     0064                     l3891:
 11493     0064  3001               	movlw	1
 11494     0065  07FA               	addwf	___xxtofl@arg,f
 11495     0066  3000               	movlw	0
 11496     0067  3DFB               	addwfc	___xxtofl@arg+1,f
 11497     0068  3000               	movlw	0
 11498     0069  3DFC               	addwfc	___xxtofl@arg+2,f
 11499     006A  3000               	movlw	0
 11500     006B  3DFD               	addwfc	___xxtofl@arg+3,f
 11501     006C                     l3893:
 11502     006C  3001               	movlw	1
 11503     006D                     u4855:
 11504     006D  36FD               	lsrf	___xxtofl@arg+3,f
 11505     006E  0CFC               	rrf	___xxtofl@arg+2,f
 11506     006F  0CFB               	rrf	___xxtofl@arg+1,f
 11507     0070  0CFA               	rrf	___xxtofl@arg,f
 11508     0071  0B89               	decfsz	9,f
 11509     0072  286D               	goto	u4855
 11510     0073                     l903:
 11511     0073  30FF               	movlw	255
 11512     0074  057D               	andwf	___xxtofl@arg+3,w
 11513     0075  1D03               	btfss	3,2
 11514     0076  2878               	goto	u4861
 11515     0077  2879               	goto	u4860
 11516     0078                     u4861:
 11517     0078  2860               	goto	l3889
 11518     0079                     u4860:
 11519     0079  2883               	goto	l3897
 11520     007A                     l3895:
 11521     007A  3001               	movlw	1
 11522     007B  02F9               	subwf	___xxtofl@exp,f
 11523     007C  3001               	movlw	1
 11524     007D                     u4875:
 11525     007D  35FA               	lslf	___xxtofl@arg,f
 11526     007E  0DFB               	rlf	___xxtofl@arg+1,f
 11527     007F  0DFC               	rlf	___xxtofl@arg+2,f
 11528     0080  0DFD               	rlf	___xxtofl@arg+3,f
 11529     0081  0B89               	decfsz	9,f
 11530     0082  287D               	goto	u4875
 11531     0083                     l3897:
 11532     0083  1BFC               	btfsc	___xxtofl@arg+2,7
 11533     0084  2886               	goto	u4881
 11534     0085  2887               	goto	u4880
 11535     0086                     u4881:
 11536     0086  288D               	goto	l910
 11537     0087                     u4880:
 11538     0087                     l3899:
 11539     0087  3002               	movlw	2
 11540     0088  0279               	subwf	___xxtofl@exp,w
 11541     0089  1803               	skipnc
 11542     008A  288C               	goto	u4891
 11543     008B  288D               	goto	u4890
 11544     008C                     u4891:
 11545     008C  287A               	goto	l3895
 11546     008D                     u4890:
 11547     008D                     l910:
 11548     008D  1879               	btfsc	___xxtofl@exp,0
 11549     008E  2890               	goto	u4901
 11550     008F  2891               	goto	u4900
 11551     0090                     u4901:
 11552     0090  2899               	goto	l911
 11553     0091                     u4900:
 11554     0091                     l3901:
 11555     0091  30FF               	movlw	255
 11556     0092  05FA               	andwf	___xxtofl@arg,f
 11557     0093  30FF               	movlw	255
 11558     0094  05FB               	andwf	___xxtofl@arg+1,f
 11559     0095  307F               	movlw	127
 11560     0096  05FC               	andwf	___xxtofl@arg+2,f
 11561     0097  30FF               	movlw	255
 11562     0098  05FD               	andwf	___xxtofl@arg+3,f
 11563     0099                     l911:
 11564     0099  1003               	clrc
 11565     009A  0CF9               	rrf	___xxtofl@exp,f
 11566     009B                     l3903:
 11567     009B  0879               	movf	___xxtofl@exp,w
 11568     009C  00F4               	movwf	??___xxtofl
 11569     009D  01F5               	clrf	??___xxtofl+1
 11570     009E  01F6               	clrf	??___xxtofl+2
 11571     009F  01F7               	clrf	??___xxtofl+3
 11572     00A0  3018               	movlw	24
 11573     00A1                     u4915:
 11574     00A1  35F4               	lslf	??___xxtofl,f
 11575     00A2  0DF5               	rlf	??___xxtofl+1,f
 11576     00A3  0DF6               	rlf	??___xxtofl+2,f
 11577     00A4  0DF7               	rlf	??___xxtofl+3,f
 11578     00A5                     u4910:
 11579     00A5  0B89               	decfsz	9,f
 11580     00A6  28A1               	goto	u4915
 11581     00A7  0874               	movf	??___xxtofl,w
 11582     00A8  04FA               	iorwf	___xxtofl@arg,f
 11583     00A9  0875               	movf	??___xxtofl+1,w
 11584     00AA  04FB               	iorwf	___xxtofl@arg+1,f
 11585     00AB  0876               	movf	??___xxtofl+2,w
 11586     00AC  04FC               	iorwf	___xxtofl@arg+2,f
 11587     00AD  0877               	movf	??___xxtofl+3,w
 11588     00AE  04FD               	iorwf	___xxtofl@arg+3,f
 11589     00AF                     l3905:
 11590     00AF  0878               	movf	___xxtofl@sign,w
 11591     00B0  1903               	btfsc	3,2
 11592     00B1  28B3               	goto	u4921
 11593     00B2  28B4               	goto	u4920
 11594     00B3                     u4921:
 11595     00B3  28B9               	goto	l3911
 11596     00B4                     u4920:
 11597     00B4                     l3907:
 11598     00B4  1FF3               	btfss	___xxtofl@val+3,7
 11599     00B5  28B7               	goto	u4931
 11600     00B6  28B8               	goto	u4930
 11601     00B7                     u4931:
 11602     00B7  28B9               	goto	l3911
 11603     00B8                     u4930:
 11604     00B8                     l3909:
 11605     00B8  17FD               	bsf	___xxtofl@arg+3,7
 11606     00B9                     l3911:
 11607     00B9  087D               	movf	___xxtofl@arg+3,w
 11608     00BA  00F3               	movwf	?___xxtofl+3
 11609     00BB  087C               	movf	___xxtofl@arg+2,w
 11610     00BC  00F2               	movwf	?___xxtofl+2
 11611     00BD  087B               	movf	___xxtofl@arg+1,w
 11612     00BE  00F1               	movwf	?___xxtofl+1
 11613     00BF  087A               	movf	___xxtofl@arg,w
 11614     00C0  00F0               	movwf	?___xxtofl
 11615     00C1                     l899:
 11616     00C1  0008               	return
 11617     00C2                     __end_of___xxtofl:
 11618                           
 11619                           	psect	text40
 11620     0DC5                     __ptext40:	
 11621 ;; *************** function ___flmul *****************
 11622 ;; Defined at:
 11623 ;;		line 8 in file "C:\Program Files\Microchip\xc8\v2.40\pic\sources\c99\common\sprcmul.c"
 11624 ;; Parameters:    Size  Location     Type
 11625 ;;  b               4    0[BANK0 ] unsigned char 
 11626 ;;  a               4    4[BANK0 ] unsigned char 
 11627 ;; Auto vars:     Size  Location     Type
 11628 ;;  prod            4   15[BANK0 ] struct .
 11629 ;;  grs             4    9[BANK0 ] unsigned long 
 11630 ;;  temp            2   19[BANK0 ] struct .
 11631 ;;  bexp            1   14[BANK0 ] unsigned char 
 11632 ;;  aexp            1   13[BANK0 ] unsigned char 
 11633 ;;  sign            1    8[BANK0 ] unsigned char 
 11634 ;; Return value:  Size  Location     Type
 11635 ;;                  4    0[BANK0 ] unsigned char 
 11636 ;; Registers used:
 11637 ;;		wreg, status,2, status,0, pclath, cstack
 11638 ;; Tracked objects:
 11639 ;;		On entry : 0/0
 11640 ;;		On exit  : 0/0
 11641 ;;		Unchanged: 0/0
 11642 ;; Data sizes:     COMMON   BANK0   BANK1   BANK2   BANK3   BANK4   BANK5   BANK6   BANK7   BANK8   BANK9  BANK10  BANK1
      +1  BANK12  BANK13  BANK14  BANK15  BANK16  BANK17  BANK18  BANK19  BANK20  BANK21  BANK22  BANK23  BANK24  BANK25  BANK2
      +6  BANK27  BANK28  BANK29  BANK30  BANK31  BANK32  BANK33  BANK34  BANK35  BANK36  BANK37  BANK38  BANK39  BANK40  BANK4
      +1  BANK42  BANK43  BANK44  BANK45  BANK46  BANK47  BANK48  BANK49  BANK50
 11643 ;;      Params:         0       8       0       0       0       0       0       0       0       0       0       0       
      +0       0       0       0       0       0       0       0       0       0       0       0       0       0       0       
      +0       0       0       0       0       0       0       0       0       0       0       0       0       0       0       
      +0       0       0       0       0       0       0       0       0       0
 11644 ;;      Locals:         0      13       0       0       0       0       0       0       0       0       0       0       
      +0       0       0       0       0       0       0       0       0       0       0       0       0       0       0       
      +0       0       0       0       0       0       0       0       0       0       0       0       0       0       0       
      +0       0       0       0       0       0       0       0       0       0
 11645 ;;      Temps:          5       0       0       0       0       0       0       0       0       0       0       0       
      +0       0       0       0       0       0       0       0       0       0       0       0       0       0       0       
      +0       0       0       0       0       0       0       0       0       0       0       0       0       0       0       
      +0       0       0       0       0       0       0       0       0       0
 11646 ;;      Totals:         5      21       0       0       0       0       0       0       0       0       0       0       
      +0       0       0       0       0       0       0       0       0       0       0       0       0       0       0       
      +0       0       0       0       0       0       0       0       0       0       0       0       0       0       0       
      +0       0       0       0       0       0       0       0       0       0
 11647 ;;Total ram usage:       26 bytes
 11648 ;; Hardware stack levels used: 1
 11649 ;; Hardware stack levels required when called: 1
 11650 ;; This function calls:
 11651 ;;		__Umul8_16
 11652 ;; This function is called by:
 11653 ;;		_DS3231_read_temp
 11654 ;;		_efgtoa
 11655 ;; This function uses a non-reentrant model
 11656 ;;
 11657                           
 11658     0DC5                     ___flmul:	
 11659                           ;psect for function ___flmul
 11660                           
 11661     0DC5                     l3229:	
 11662                           ;incstack = 0
 11663                           ; Regs used in ___flmul: [wreg+status,2+status,0+pclath+cstack]
 11664                           
 11665     0DC5  0140               	movlb	0	; select bank0
 11666     0DC6  0823               	movf	___flmul@b+3,w
 11667     0DC7  3980               	andlw	128
 11668     0DC8  00A8               	movwf	___flmul@sign
 11669     0DC9                     l3231:
 11670     0DC9  3523               	lslf	___flmul@b+3,w
 11671     0DCA  00AE               	movwf	___flmul@bexp
 11672     0DCB                     l3233:
 11673     0DCB  1FA2               	btfss	___flmul@b+2,7
 11674     0DCC  2DCE               	goto	u3711
 11675     0DCD  2DCF               	goto	u3710
 11676     0DCE                     u3711:
 11677     0DCE  2DD0               	goto	l3237
 11678     0DCF                     u3710:
 11679     0DCF                     l3235:
 11680     0DCF  142E               	bsf	___flmul@bexp,0
 11681     0DD0                     l3237:
 11682     0DD0  082E               	movf	___flmul@bexp,w
 11683     0DD1  1903               	btfsc	3,2
 11684     0DD2  2DD4               	goto	u3721
 11685     0DD3  2DD5               	goto	u3720
 11686     0DD4                     u3721:
 11687     0DD4  2DE4               	goto	l3245
 11688     0DD5                     u3720:
 11689     0DD5                     l3239:
 11690     0DD5  0A2E               	incf	___flmul@bexp,w
 11691     0DD6  1D03               	btfss	3,2
 11692     0DD7  2DD9               	goto	u3731
 11693     0DD8  2DDA               	goto	u3730
 11694     0DD9                     u3731:
 11695     0DD9  2DE2               	goto	l3243
 11696     0DDA                     u3730:
 11697     0DDA                     l3241:
 11698     0DDA  3000               	movlw	0
 11699     0DDB  00A3               	movwf	___flmul@b+3
 11700     0DDC  3000               	movlw	0
 11701     0DDD  00A2               	movwf	___flmul@b+2
 11702     0DDE  3000               	movlw	0
 11703     0DDF  00A1               	movwf	___flmul@b+1
 11704     0DE0  3000               	movlw	0
 11705     0DE1  00A0               	movwf	___flmul@b
 11706     0DE2                     l3243:
 11707     0DE2  17A2               	bsf	___flmul@b+2,7
 11708     0DE3  2DEC               	goto	l3247
 11709     0DE4                     l3245:
 11710     0DE4  3000               	movlw	0
 11711     0DE5  00A3               	movwf	___flmul@b+3
 11712     0DE6  3000               	movlw	0
 11713     0DE7  00A2               	movwf	___flmul@b+2
 11714     0DE8  3000               	movlw	0
 11715     0DE9  00A1               	movwf	___flmul@b+1
 11716     0DEA  3000               	movlw	0
 11717     0DEB  00A0               	movwf	___flmul@b
 11718     0DEC                     l3247:
 11719     0DEC  0827               	movf	___flmul@a+3,w
 11720     0DED  3980               	andlw	128
 11721     0DEE  00F9               	movwf	??___flmul
 11722     0DEF  0879               	movf	??___flmul,w
 11723     0DF0  06A8               	xorwf	___flmul@sign,f
 11724     0DF1                     l3249:
 11725     0DF1  3527               	lslf	___flmul@a+3,w
 11726     0DF2  00AD               	movwf	___flmul@aexp
 11727     0DF3                     l3251:
 11728     0DF3  1FA6               	btfss	___flmul@a+2,7
 11729     0DF4  2DF6               	goto	u3741
 11730     0DF5  2DF7               	goto	u3740
 11731     0DF6                     u3741:
 11732     0DF6  2DF8               	goto	l3255
 11733     0DF7                     u3740:
 11734     0DF7                     l3253:
 11735     0DF7  142D               	bsf	___flmul@aexp,0
 11736     0DF8                     l3255:
 11737     0DF8  082D               	movf	___flmul@aexp,w
 11738     0DF9  1903               	btfsc	3,2
 11739     0DFA  2DFC               	goto	u3751
 11740     0DFB  2DFD               	goto	u3750
 11741     0DFC                     u3751:
 11742     0DFC  2E0C               	goto	l3263
 11743     0DFD                     u3750:
 11744     0DFD                     l3257:
 11745     0DFD  0A2D               	incf	___flmul@aexp,w
 11746     0DFE  1D03               	btfss	3,2
 11747     0DFF  2E01               	goto	u3761
 11748     0E00  2E02               	goto	u3760
 11749     0E01                     u3761:
 11750     0E01  2E0A               	goto	l3261
 11751     0E02                     u3760:
 11752     0E02                     l3259:
 11753     0E02  3000               	movlw	0
 11754     0E03  00A7               	movwf	___flmul@a+3
 11755     0E04  3000               	movlw	0
 11756     0E05  00A6               	movwf	___flmul@a+2
 11757     0E06  3000               	movlw	0
 11758     0E07  00A5               	movwf	___flmul@a+1
 11759     0E08  3000               	movlw	0
 11760     0E09  00A4               	movwf	___flmul@a
 11761     0E0A                     l3261:
 11762     0E0A  17A6               	bsf	___flmul@a+2,7
 11763     0E0B  2E14               	goto	l3265
 11764     0E0C                     l3263:
 11765     0E0C  3000               	movlw	0
 11766     0E0D  00A7               	movwf	___flmul@a+3
 11767     0E0E  3000               	movlw	0
 11768     0E0F  00A6               	movwf	___flmul@a+2
 11769     0E10  3000               	movlw	0
 11770     0E11  00A5               	movwf	___flmul@a+1
 11771     0E12  3000               	movlw	0
 11772     0E13  00A4               	movwf	___flmul@a
 11773     0E14                     l3265:
 11774     0E14  082D               	movf	___flmul@aexp,w
 11775     0E15  1903               	btfsc	3,2
 11776     0E16  2E18               	goto	u3771
 11777     0E17  2E19               	goto	u3770
 11778     0E18                     u3771:
 11779     0E18  2E1E               	goto	l3269
 11780     0E19                     u3770:
 11781     0E19                     l3267:
 11782     0E19  082E               	movf	___flmul@bexp,w
 11783     0E1A  1D03               	btfss	3,2
 11784     0E1B  2E1D               	goto	u3781
 11785     0E1C  2E1E               	goto	u3780
 11786     0E1D                     u3781:
 11787     0E1D  2E27               	goto	l3273
 11788     0E1E                     u3780:
 11789     0E1E                     l3269:
 11790     0E1E  3000               	movlw	0
 11791     0E1F  00A3               	movwf	?___flmul+3
 11792     0E20  3000               	movlw	0
 11793     0E21  00A2               	movwf	?___flmul+2
 11794     0E22  3000               	movlw	0
 11795     0E23  00A1               	movwf	?___flmul+1
 11796     0E24  3000               	movlw	0
 11797     0E25  00A0               	movwf	?___flmul
 11798     0E26  2FFF               	goto	l853
 11799     0E27                     l3273:
 11800     0E27  0820               	movf	___flmul@b,w
 11801     0E28  00F0               	movwf	__Umul8_16@multiplicand
 11802     0E29  0826               	movf	___flmul@a+2,w
 11803     0E2A  3192  2265  318D   	fcall	__Umul8_16
 11804     0E2D  0871               	movf	?__Umul8_16+1,w
 11805     0E2E  0140               	movlb	0	; select bank0
 11806     0E2F  00B4               	movwf	___flmul@temp+1
 11807     0E30  0870               	movf	?__Umul8_16,w
 11808     0E31  00B3               	movwf	___flmul@temp
 11809     0E32                     l3275:
 11810     0E32  0833               	movf	___flmul@temp,w
 11811     0E33  00F9               	movwf	??___flmul
 11812     0E34  01FA               	clrf	??___flmul+1
 11813     0E35  01FB               	clrf	??___flmul+2
 11814     0E36  01FC               	clrf	??___flmul+3
 11815     0E37  087C               	movf	??___flmul+3,w
 11816     0E38  00AC               	movwf	___flmul@grs+3
 11817     0E39  087B               	movf	??___flmul+2,w
 11818     0E3A  00AB               	movwf	___flmul@grs+2
 11819     0E3B  087A               	movf	??___flmul+1,w
 11820     0E3C  00AA               	movwf	___flmul@grs+1
 11821     0E3D  0879               	movf	??___flmul,w
 11822     0E3E  00A9               	movwf	___flmul@grs
 11823     0E3F                     l3277:
 11824     0E3F  0834               	movf	___flmul@temp+1,w
 11825     0E40  00F9               	movwf	??___flmul
 11826     0E41  01FA               	clrf	??___flmul+1
 11827     0E42  01FB               	clrf	??___flmul+2
 11828     0E43  01FC               	clrf	??___flmul+3
 11829     0E44  087C               	movf	??___flmul+3,w
 11830     0E45  00B2               	movwf	___flmul@prod+3
 11831     0E46  087B               	movf	??___flmul+2,w
 11832     0E47  00B1               	movwf	___flmul@prod+2
 11833     0E48  087A               	movf	??___flmul+1,w
 11834     0E49  00B0               	movwf	___flmul@prod+1
 11835     0E4A  0879               	movf	??___flmul,w
 11836     0E4B  00AF               	movwf	___flmul@prod
 11837     0E4C  0821               	movf	___flmul@b+1,w
 11838     0E4D  00F0               	movwf	__Umul8_16@multiplicand
 11839     0E4E  0825               	movf	___flmul@a+1,w
 11840     0E4F  3192  2265  318D   	fcall	__Umul8_16
 11841     0E52  0871               	movf	?__Umul8_16+1,w
 11842     0E53  0140               	movlb	0	; select bank0
 11843     0E54  00B4               	movwf	___flmul@temp+1
 11844     0E55  0870               	movf	?__Umul8_16,w
 11845     0E56  00B3               	movwf	___flmul@temp
 11846     0E57                     l3279:
 11847     0E57  0833               	movf	___flmul@temp,w
 11848     0E58  00F9               	movwf	??___flmul
 11849     0E59  01FA               	clrf	??___flmul+1
 11850     0E5A  01FB               	clrf	??___flmul+2
 11851     0E5B  01FC               	clrf	??___flmul+3
 11852     0E5C  0879               	movf	??___flmul,w
 11853     0E5D  07A9               	addwf	___flmul@grs,f
 11854     0E5E  087A               	movf	??___flmul+1,w
 11855     0E5F  3DAA               	addwfc	___flmul@grs+1,f
 11856     0E60  087B               	movf	??___flmul+2,w
 11857     0E61  3DAB               	addwfc	___flmul@grs+2,f
 11858     0E62  087C               	movf	??___flmul+3,w
 11859     0E63  3DAC               	addwfc	___flmul@grs+3,f
 11860     0E64                     l3281:
 11861     0E64  0834               	movf	___flmul@temp+1,w
 11862     0E65  00F9               	movwf	??___flmul
 11863     0E66  01FA               	clrf	??___flmul+1
 11864     0E67  01FB               	clrf	??___flmul+2
 11865     0E68  01FC               	clrf	??___flmul+3
 11866     0E69  0879               	movf	??___flmul,w
 11867     0E6A  07AF               	addwf	___flmul@prod,f
 11868     0E6B  087A               	movf	??___flmul+1,w
 11869     0E6C  3DB0               	addwfc	___flmul@prod+1,f
 11870     0E6D  087B               	movf	??___flmul+2,w
 11871     0E6E  3DB1               	addwfc	___flmul@prod+2,f
 11872     0E6F  087C               	movf	??___flmul+3,w
 11873     0E70  3DB2               	addwfc	___flmul@prod+3,f
 11874     0E71  0822               	movf	___flmul@b+2,w
 11875     0E72  00F0               	movwf	__Umul8_16@multiplicand
 11876     0E73  0824               	movf	___flmul@a,w
 11877     0E74  3192  2265  318D   	fcall	__Umul8_16
 11878     0E77  0871               	movf	?__Umul8_16+1,w
 11879     0E78  0140               	movlb	0	; select bank0
 11880     0E79  00B4               	movwf	___flmul@temp+1
 11881     0E7A  0870               	movf	?__Umul8_16,w
 11882     0E7B  00B3               	movwf	___flmul@temp
 11883     0E7C                     l3283:
 11884     0E7C  0833               	movf	___flmul@temp,w
 11885     0E7D  00F9               	movwf	??___flmul
 11886     0E7E  01FA               	clrf	??___flmul+1
 11887     0E7F  01FB               	clrf	??___flmul+2
 11888     0E80  01FC               	clrf	??___flmul+3
 11889     0E81  0879               	movf	??___flmul,w
 11890     0E82  07A9               	addwf	___flmul@grs,f
 11891     0E83  087A               	movf	??___flmul+1,w
 11892     0E84  3DAA               	addwfc	___flmul@grs+1,f
 11893     0E85  087B               	movf	??___flmul+2,w
 11894     0E86  3DAB               	addwfc	___flmul@grs+2,f
 11895     0E87  087C               	movf	??___flmul+3,w
 11896     0E88  3DAC               	addwfc	___flmul@grs+3,f
 11897     0E89                     l3285:
 11898     0E89  0834               	movf	___flmul@temp+1,w
 11899     0E8A  00F9               	movwf	??___flmul
 11900     0E8B  01FA               	clrf	??___flmul+1
 11901     0E8C  01FB               	clrf	??___flmul+2
 11902     0E8D  01FC               	clrf	??___flmul+3
 11903     0E8E  0879               	movf	??___flmul,w
 11904     0E8F  07AF               	addwf	___flmul@prod,f
 11905     0E90  087A               	movf	??___flmul+1,w
 11906     0E91  3DB0               	addwfc	___flmul@prod+1,f
 11907     0E92  087B               	movf	??___flmul+2,w
 11908     0E93  3DB1               	addwfc	___flmul@prod+2,f
 11909     0E94  087C               	movf	??___flmul+3,w
 11910     0E95  3DB2               	addwfc	___flmul@prod+3,f
 11911     0E96                     l3287:
 11912     0E96  3008               	movlw	8
 11913     0E97                     u3795:
 11914     0E97  35A9               	lslf	___flmul@grs,f
 11915     0E98  0DAA               	rlf	___flmul@grs+1,f
 11916     0E99  0DAB               	rlf	___flmul@grs+2,f
 11917     0E9A  0DAC               	rlf	___flmul@grs+3,f
 11918     0E9B  0B89               	decfsz	9,f
 11919     0E9C  2E97               	goto	u3795
 11920     0E9D                     l3289:
 11921     0E9D  0821               	movf	___flmul@b+1,w
 11922     0E9E  00F0               	movwf	__Umul8_16@multiplicand
 11923     0E9F  0824               	movf	___flmul@a,w
 11924     0EA0  3192  2265  318D   	fcall	__Umul8_16
 11925     0EA3  0871               	movf	?__Umul8_16+1,w
 11926     0EA4  0140               	movlb	0	; select bank0
 11927     0EA5  00B4               	movwf	___flmul@temp+1
 11928     0EA6  0870               	movf	?__Umul8_16,w
 11929     0EA7  00B3               	movwf	___flmul@temp
 11930     0EA8                     l3291:
 11931     0EA8  0833               	movf	___flmul@temp,w
 11932     0EA9  07A9               	addwf	___flmul@grs,f
 11933     0EAA  0834               	movf	___flmul@temp+1,w
 11934     0EAB  3DAA               	addwfc	___flmul@grs+1,f
 11935     0EAC  3000               	movlw	0
 11936     0EAD  3DAB               	addwfc	___flmul@grs+2,f
 11937     0EAE  3DAC               	addwfc	___flmul@grs+3,f
 11938     0EAF                     l3293:
 11939     0EAF  0820               	movf	___flmul@b,w
 11940     0EB0  00F0               	movwf	__Umul8_16@multiplicand
 11941     0EB1  0825               	movf	___flmul@a+1,w
 11942     0EB2  3192  2265  318D   	fcall	__Umul8_16
 11943     0EB5  0871               	movf	?__Umul8_16+1,w
 11944     0EB6  0140               	movlb	0	; select bank0
 11945     0EB7  00B4               	movwf	___flmul@temp+1
 11946     0EB8  0870               	movf	?__Umul8_16,w
 11947     0EB9  00B3               	movwf	___flmul@temp
 11948     0EBA                     l3295:
 11949     0EBA  0833               	movf	___flmul@temp,w
 11950     0EBB  07A9               	addwf	___flmul@grs,f
 11951     0EBC  0834               	movf	___flmul@temp+1,w
 11952     0EBD  3DAA               	addwfc	___flmul@grs+1,f
 11953     0EBE  3000               	movlw	0
 11954     0EBF  3DAB               	addwfc	___flmul@grs+2,f
 11955     0EC0  3DAC               	addwfc	___flmul@grs+3,f
 11956     0EC1                     l3297:
 11957     0EC1  3008               	movlw	8
 11958     0EC2                     u3805:
 11959     0EC2  35A9               	lslf	___flmul@grs,f
 11960     0EC3  0DAA               	rlf	___flmul@grs+1,f
 11961     0EC4  0DAB               	rlf	___flmul@grs+2,f
 11962     0EC5  0DAC               	rlf	___flmul@grs+3,f
 11963     0EC6  0B89               	decfsz	9,f
 11964     0EC7  2EC2               	goto	u3805
 11965     0EC8  0820               	movf	___flmul@b,w
 11966     0EC9  00F0               	movwf	__Umul8_16@multiplicand
 11967     0ECA  0824               	movf	___flmul@a,w
 11968     0ECB  3192  2265  318D   	fcall	__Umul8_16
 11969     0ECE  0871               	movf	?__Umul8_16+1,w
 11970     0ECF  0140               	movlb	0	; select bank0
 11971     0ED0  00B4               	movwf	___flmul@temp+1
 11972     0ED1  0870               	movf	?__Umul8_16,w
 11973     0ED2  00B3               	movwf	___flmul@temp
 11974     0ED3                     l3299:
 11975     0ED3  0833               	movf	___flmul@temp,w
 11976     0ED4  07A9               	addwf	___flmul@grs,f
 11977     0ED5  0834               	movf	___flmul@temp+1,w
 11978     0ED6  3DAA               	addwfc	___flmul@grs+1,f
 11979     0ED7  3000               	movlw	0
 11980     0ED8  3DAB               	addwfc	___flmul@grs+2,f
 11981     0ED9  3DAC               	addwfc	___flmul@grs+3,f
 11982     0EDA                     l3301:
 11983     0EDA  0821               	movf	___flmul@b+1,w
 11984     0EDB  00F0               	movwf	__Umul8_16@multiplicand
 11985     0EDC  0826               	movf	___flmul@a+2,w
 11986     0EDD  3192  2265  318D   	fcall	__Umul8_16
 11987     0EE0  0871               	movf	?__Umul8_16+1,w
 11988     0EE1  0140               	movlb	0	; select bank0
 11989     0EE2  00B4               	movwf	___flmul@temp+1
 11990     0EE3  0870               	movf	?__Umul8_16,w
 11991     0EE4  00B3               	movwf	___flmul@temp
 11992     0EE5  0833               	movf	___flmul@temp,w
 11993     0EE6  07AF               	addwf	___flmul@prod,f
 11994     0EE7  0834               	movf	___flmul@temp+1,w
 11995     0EE8  3DB0               	addwfc	___flmul@prod+1,f
 11996     0EE9  3000               	movlw	0
 11997     0EEA  3DB1               	addwfc	___flmul@prod+2,f
 11998     0EEB  3DB2               	addwfc	___flmul@prod+3,f
 11999     0EEC                     l3303:
 12000     0EEC  0822               	movf	___flmul@b+2,w
 12001     0EED  00F0               	movwf	__Umul8_16@multiplicand
 12002     0EEE  0825               	movf	___flmul@a+1,w
 12003     0EEF  3192  2265  318D   	fcall	__Umul8_16
 12004     0EF2  0871               	movf	?__Umul8_16+1,w
 12005     0EF3  0140               	movlb	0	; select bank0
 12006     0EF4  00B4               	movwf	___flmul@temp+1
 12007     0EF5  0870               	movf	?__Umul8_16,w
 12008     0EF6  00B3               	movwf	___flmul@temp
 12009     0EF7                     l3305:
 12010     0EF7  0833               	movf	___flmul@temp,w
 12011     0EF8  07AF               	addwf	___flmul@prod,f
 12012     0EF9  0834               	movf	___flmul@temp+1,w
 12013     0EFA  3DB0               	addwfc	___flmul@prod+1,f
 12014     0EFB  3000               	movlw	0
 12015     0EFC  3DB1               	addwfc	___flmul@prod+2,f
 12016     0EFD  3DB2               	addwfc	___flmul@prod+3,f
 12017     0EFE  0822               	movf	___flmul@b+2,w
 12018     0EFF  00F0               	movwf	__Umul8_16@multiplicand
 12019     0F00  0826               	movf	___flmul@a+2,w
 12020     0F01  3192  2265  318D   	fcall	__Umul8_16
 12021     0F04  0871               	movf	?__Umul8_16+1,w
 12022     0F05  0140               	movlb	0	; select bank0
 12023     0F06  00B4               	movwf	___flmul@temp+1
 12024     0F07  0870               	movf	?__Umul8_16,w
 12025     0F08  00B3               	movwf	___flmul@temp
 12026     0F09                     l3307:
 12027     0F09  0833               	movf	___flmul@temp,w
 12028     0F0A  00F9               	movwf	??___flmul
 12029     0F0B  0834               	movf	___flmul@temp+1,w
 12030     0F0C  00FA               	movwf	??___flmul+1
 12031     0F0D  01FB               	clrf	??___flmul+2
 12032     0F0E  01FC               	clrf	??___flmul+3
 12033     0F0F  3008               	movlw	8
 12034     0F10                     u3815:
 12035     0F10  35F9               	lslf	??___flmul,f
 12036     0F11  0DFA               	rlf	??___flmul+1,f
 12037     0F12  0DFB               	rlf	??___flmul+2,f
 12038     0F13  0DFC               	rlf	??___flmul+3,f
 12039     0F14                     u3810:
 12040     0F14  0B89               	decfsz	9,f
 12041     0F15  2F10               	goto	u3815
 12042     0F16  0879               	movf	??___flmul,w
 12043     0F17  07AF               	addwf	___flmul@prod,f
 12044     0F18  087A               	movf	??___flmul+1,w
 12045     0F19  3DB0               	addwfc	___flmul@prod+1,f
 12046     0F1A  087B               	movf	??___flmul+2,w
 12047     0F1B  3DB1               	addwfc	___flmul@prod+2,f
 12048     0F1C  087C               	movf	??___flmul+3,w
 12049     0F1D  3DB2               	addwfc	___flmul@prod+3,f
 12050     0F1E                     l3309:
 12051     0F1E  0829               	movf	___flmul@grs,w
 12052     0F1F  00F9               	movwf	??___flmul
 12053     0F20  082A               	movf	___flmul@grs+1,w
 12054     0F21  00FA               	movwf	??___flmul+1
 12055     0F22  082B               	movf	___flmul@grs+2,w
 12056     0F23  00FB               	movwf	??___flmul+2
 12057     0F24  082C               	movf	___flmul@grs+3,w
 12058     0F25  00FC               	movwf	??___flmul+3
 12059     0F26  3018               	movlw	24
 12060     0F27                     u3825:
 12061     0F27  36FC               	lsrf	??___flmul+3,f
 12062     0F28  0CFB               	rrf	??___flmul+2,f
 12063     0F29  0CFA               	rrf	??___flmul+1,f
 12064     0F2A  0CF9               	rrf	??___flmul,f
 12065     0F2B                     u3820:
 12066     0F2B  0B89               	decfsz	9,f
 12067     0F2C  2F27               	goto	u3825
 12068     0F2D  0879               	movf	??___flmul,w
 12069     0F2E  07AF               	addwf	___flmul@prod,f
 12070     0F2F  087A               	movf	??___flmul+1,w
 12071     0F30  3DB0               	addwfc	___flmul@prod+1,f
 12072     0F31  087B               	movf	??___flmul+2,w
 12073     0F32  3DB1               	addwfc	___flmul@prod+2,f
 12074     0F33  087C               	movf	??___flmul+3,w
 12075     0F34  3DB2               	addwfc	___flmul@prod+3,f
 12076     0F35                     l3311:
 12077     0F35  3008               	movlw	8
 12078     0F36                     u3835:
 12079     0F36  35A9               	lslf	___flmul@grs,f
 12080     0F37  0DAA               	rlf	___flmul@grs+1,f
 12081     0F38  0DAB               	rlf	___flmul@grs+2,f
 12082     0F39  0DAC               	rlf	___flmul@grs+3,f
 12083     0F3A  0B89               	decfsz	9,f
 12084     0F3B  2F36               	goto	u3835
 12085     0F3C                     l3313:
 12086     0F3C  082E               	movf	___flmul@bexp,w
 12087     0F3D  072D               	addwf	___flmul@aexp,w
 12088     0F3E  00F9               	movwf	??___flmul
 12089     0F3F  01FA               	clrf	??___flmul+1
 12090     0F40  0DFA               	rlf	??___flmul+1,f
 12091     0F41  0879               	movf	??___flmul,w
 12092     0F42  3E82               	addlw	130
 12093     0F43  00B3               	movwf	___flmul@temp
 12094     0F44  30FF               	movlw	255
 12095     0F45  3D7A               	addwfc	??___flmul+1,w
 12096     0F46  00B4               	movwf	___flmul@temp+1
 12097     0F47  2F5F               	goto	l3325
 12098     0F48                     l3315:
 12099     0F48  3001               	movlw	1
 12100     0F49                     u3845:
 12101     0F49  35AF               	lslf	___flmul@prod,f
 12102     0F4A  0DB0               	rlf	___flmul@prod+1,f
 12103     0F4B  0DB1               	rlf	___flmul@prod+2,f
 12104     0F4C  0DB2               	rlf	___flmul@prod+3,f
 12105     0F4D  0B89               	decfsz	9,f
 12106     0F4E  2F49               	goto	u3845
 12107     0F4F                     l3317:
 12108     0F4F  1FAC               	btfss	___flmul@grs+3,7
 12109     0F50  2F52               	goto	u3851
 12110     0F51  2F53               	goto	u3850
 12111     0F52                     u3851:
 12112     0F52  2F54               	goto	l3321
 12113     0F53                     u3850:
 12114     0F53                     l3319:
 12115     0F53  142F               	bsf	___flmul@prod,0
 12116     0F54                     l3321:
 12117     0F54  3001               	movlw	1
 12118     0F55                     u3865:
 12119     0F55  35A9               	lslf	___flmul@grs,f
 12120     0F56  0DAA               	rlf	___flmul@grs+1,f
 12121     0F57  0DAB               	rlf	___flmul@grs+2,f
 12122     0F58  0DAC               	rlf	___flmul@grs+3,f
 12123     0F59  0B89               	decfsz	9,f
 12124     0F5A  2F55               	goto	u3865
 12125     0F5B                     l3323:
 12126     0F5B  30FF               	movlw	255
 12127     0F5C  07B3               	addwf	___flmul@temp,f
 12128     0F5D  30FF               	movlw	255
 12129     0F5E  3DB4               	addwfc	___flmul@temp+1,f
 12130     0F5F                     l3325:
 12131     0F5F  1FB1               	btfss	___flmul@prod+2,7
 12132     0F60  2F62               	goto	u3871
 12133     0F61  2F63               	goto	u3870
 12134     0F62                     u3871:
 12135     0F62  2F48               	goto	l3315
 12136     0F63                     u3870:
 12137     0F63                     l3327:
 12138     0F63  01AD               	clrf	___flmul@aexp
 12139     0F64                     l3329:
 12140     0F64  1FAC               	btfss	___flmul@grs+3,7
 12141     0F65  2F67               	goto	u3881
 12142     0F66  2F68               	goto	u3880
 12143     0F67                     u3881:
 12144     0F67  2F84               	goto	l3337
 12145     0F68                     u3880:
 12146     0F68                     l3331:
 12147     0F68  30FF               	movlw	255
 12148     0F69  0529               	andwf	___flmul@grs,w
 12149     0F6A  00F9               	movwf	??___flmul
 12150     0F6B  30FF               	movlw	255
 12151     0F6C  052A               	andwf	___flmul@grs+1,w
 12152     0F6D  00FA               	movwf	??___flmul+1
 12153     0F6E  30FF               	movlw	255
 12154     0F6F  052B               	andwf	___flmul@grs+2,w
 12155     0F70  00FB               	movwf	??___flmul+2
 12156     0F71  307F               	movlw	127
 12157     0F72  052C               	andwf	___flmul@grs+3,w
 12158     0F73  00FC               	movwf	??___flmul+3
 12159     0F74  087C               	movf	??___flmul+3,w
 12160     0F75  047B               	iorwf	??___flmul+2,w
 12161     0F76  047A               	iorwf	??___flmul+1,w
 12162     0F77  0479               	iorwf	??___flmul,w
 12163     0F78  1903               	skipnz
 12164     0F79  2F7B               	goto	u3891
 12165     0F7A  2F7C               	goto	u3890
 12166     0F7B                     u3891:
 12167     0F7B  2F7F               	goto	l859
 12168     0F7C                     u3890:
 12169     0F7C                     l3333:
 12170     0F7C  01AD               	clrf	___flmul@aexp
 12171     0F7D  0AAD               	incf	___flmul@aexp,f
 12172     0F7E  2F84               	goto	l3337
 12173     0F7F                     l859:
 12174     0F7F  1C2F               	btfss	___flmul@prod,0
 12175     0F80  2F82               	goto	u3901
 12176     0F81  2F83               	goto	u3900
 12177     0F82                     u3901:
 12178     0F82  2F84               	goto	l3337
 12179     0F83                     u3900:
 12180     0F83  2F7C               	goto	l3333
 12181     0F84                     l3337:
 12182     0F84  082D               	movf	___flmul@aexp,w
 12183     0F85  1903               	btfsc	3,2
 12184     0F86  2F88               	goto	u3911
 12185     0F87  2F89               	goto	u3910
 12186     0F88                     u3911:
 12187     0F88  2FB1               	goto	l3347
 12188     0F89                     u3910:
 12189     0F89                     l3339:
 12190     0F89  3001               	movlw	1
 12191     0F8A  07AF               	addwf	___flmul@prod,f
 12192     0F8B  3000               	movlw	0
 12193     0F8C  3DB0               	addwfc	___flmul@prod+1,f
 12194     0F8D  3000               	movlw	0
 12195     0F8E  3DB1               	addwfc	___flmul@prod+2,f
 12196     0F8F  3000               	movlw	0
 12197     0F90  3DB2               	addwfc	___flmul@prod+3,f
 12198     0F91                     l3341:
 12199     0F91  1C32               	btfss	___flmul@prod+3,0
 12200     0F92  2F94               	goto	u3921
 12201     0F93  2F95               	goto	u3920
 12202     0F94                     u3921:
 12203     0F94  2FB1               	goto	l3347
 12204     0F95                     u3920:
 12205     0F95                     l3343:
 12206     0F95  082F               	movf	___flmul@prod,w
 12207     0F96  00F9               	movwf	??___flmul
 12208     0F97  0830               	movf	___flmul@prod+1,w
 12209     0F98  00FA               	movwf	??___flmul+1
 12210     0F99  0831               	movf	___flmul@prod+2,w
 12211     0F9A  00FB               	movwf	??___flmul+2
 12212     0F9B  0832               	movf	___flmul@prod+3,w
 12213     0F9C  00FC               	movwf	??___flmul+3
 12214     0F9D  3001               	movlw	1
 12215     0F9E  00FD               	movwf	??___flmul+4
 12216     0F9F                     u3935:
 12217     0F9F  37FC               	asrf	??___flmul+3,f
 12218     0FA0  0CFB               	rrf	??___flmul+2,f
 12219     0FA1  0CFA               	rrf	??___flmul+1,f
 12220     0FA2  0CF9               	rrf	??___flmul,f
 12221     0FA3                     u3930:
 12222     0FA3  0BFD               	decfsz	??___flmul+4,f
 12223     0FA4  2F9F               	goto	u3935
 12224     0FA5  087C               	movf	??___flmul+3,w
 12225     0FA6  00B2               	movwf	___flmul@prod+3
 12226     0FA7  087B               	movf	??___flmul+2,w
 12227     0FA8  00B1               	movwf	___flmul@prod+2
 12228     0FA9  087A               	movf	??___flmul+1,w
 12229     0FAA  00B0               	movwf	___flmul@prod+1
 12230     0FAB  0879               	movf	??___flmul,w
 12231     0FAC  00AF               	movwf	___flmul@prod
 12232     0FAD                     l3345:
 12233     0FAD  3001               	movlw	1
 12234     0FAE  07B3               	addwf	___flmul@temp,f
 12235     0FAF  3000               	movlw	0
 12236     0FB0  3DB4               	addwfc	___flmul@temp+1,f
 12237     0FB1                     l3347:
 12238     0FB1  0834               	movf	___flmul@temp+1,w
 12239     0FB2  3A80               	xorlw	128
 12240     0FB3  00F9               	movwf	??___flmul
 12241     0FB4  3080               	movlw	128
 12242     0FB5  0279               	subwf	??___flmul,w
 12243     0FB6  1D03               	skipz
 12244     0FB7  2FBA               	goto	u3945
 12245     0FB8  30FF               	movlw	255
 12246     0FB9  0233               	subwf	___flmul@temp,w
 12247     0FBA                     u3945:
 12248     0FBA  1C03               	skipc
 12249     0FBB  2FBD               	goto	u3941
 12250     0FBC  2FBE               	goto	u3940
 12251     0FBD                     u3941:
 12252     0FBD  2FC8               	goto	l3351
 12253     0FBE                     u3940:
 12254     0FBE                     l3349:
 12255     0FBE  307F               	movlw	127
 12256     0FBF  0140               	movlb	0	; select bank0
 12257     0FC0  00B2               	movwf	___flmul@prod+3
 12258     0FC1  3080               	movlw	128
 12259     0FC2  00B1               	movwf	___flmul@prod+2
 12260     0FC3  3000               	movlw	0
 12261     0FC4  00B0               	movwf	___flmul@prod+1
 12262     0FC5  3000               	movlw	0
 12263     0FC6  00AF               	movwf	___flmul@prod
 12264     0FC7  2FF3               	goto	l865
 12265     0FC8                     l3351:
 12266     0FC8  0140               	movlb	0	; select bank0
 12267     0FC9  0834               	movf	___flmul@temp+1,w
 12268     0FCA  3A80               	xorlw	128
 12269     0FCB  00F9               	movwf	??___flmul
 12270     0FCC  3080               	movlw	128
 12271     0FCD  0279               	subwf	??___flmul,w
 12272     0FCE  1D03               	skipz
 12273     0FCF  2FD2               	goto	u3955
 12274     0FD0  3001               	movlw	1
 12275     0FD1  0233               	subwf	___flmul@temp,w
 12276     0FD2                     u3955:
 12277     0FD2  1803               	skipnc
 12278     0FD3  2FD5               	goto	u3951
 12279     0FD4  2FD6               	goto	u3950
 12280     0FD5                     u3951:
 12281     0FD5  2FE1               	goto	l3357
 12282     0FD6                     u3950:
 12283     0FD6                     l3353:
 12284     0FD6  3000               	movlw	0
 12285     0FD7  0140               	movlb	0	; select bank0
 12286     0FD8  00B2               	movwf	___flmul@prod+3
 12287     0FD9  3000               	movlw	0
 12288     0FDA  00B1               	movwf	___flmul@prod+2
 12289     0FDB  3000               	movlw	0
 12290     0FDC  00B0               	movwf	___flmul@prod+1
 12291     0FDD  3000               	movlw	0
 12292     0FDE  00AF               	movwf	___flmul@prod
 12293     0FDF                     l3355:
 12294     0FDF  01A8               	clrf	___flmul@sign
 12295     0FE0  2FF3               	goto	l865
 12296     0FE1                     l3357:
 12297     0FE1  0140               	movlb	0	; select bank0
 12298     0FE2  0833               	movf	___flmul@temp,w
 12299     0FE3  00AE               	movwf	___flmul@bexp
 12300     0FE4  30FF               	movlw	255
 12301     0FE5  05AF               	andwf	___flmul@prod,f
 12302     0FE6  30FF               	movlw	255
 12303     0FE7  05B0               	andwf	___flmul@prod+1,f
 12304     0FE8  307F               	movlw	127
 12305     0FE9  05B1               	andwf	___flmul@prod+2,f
 12306     0FEA  3000               	movlw	0
 12307     0FEB  05B2               	andwf	___flmul@prod+3,f
 12308     0FEC                     l3359:
 12309     0FEC  1C2E               	btfss	___flmul@bexp,0
 12310     0FED  2FEF               	goto	u3961
 12311     0FEE  2FF0               	goto	u3960
 12312     0FEF                     u3961:
 12313     0FEF  2FF1               	goto	l3363
 12314     0FF0                     u3960:
 12315     0FF0                     l3361:
 12316     0FF0  17B1               	bsf	___flmul@prod+2,7
 12317     0FF1                     l3363:
 12318     0FF1  362E               	lsrf	___flmul@bexp,w
 12319     0FF2  00B2               	movwf	___flmul@prod+3
 12320     0FF3                     l865:
 12321     0FF3  0828               	movf	___flmul@sign,w
 12322     0FF4  00F9               	movwf	??___flmul
 12323     0FF5  0879               	movf	??___flmul,w
 12324     0FF6  04B2               	iorwf	___flmul@prod+3,f
 12325     0FF7                     l3365:
 12326     0FF7  0832               	movf	___flmul@prod+3,w
 12327     0FF8  00A3               	movwf	?___flmul+3
 12328     0FF9  0831               	movf	___flmul@prod+2,w
 12329     0FFA  00A2               	movwf	?___flmul+2
 12330     0FFB  0830               	movf	___flmul@prod+1,w
 12331     0FFC  00A1               	movwf	?___flmul+1
 12332     0FFD  082F               	movf	___flmul@prod,w
 12333     0FFE  00A0               	movwf	?___flmul
 12334     0FFF                     l853:
 12335     0FFF  0008               	return
 12336     1000                     __end_of___flmul:
 12337                           
 12338                           	psect	text41
 12339     1265                     __ptext41:	
 12340 ;; *************** function __Umul8_16 *****************
 12341 ;; Defined at:
 12342 ;;		line 4 in file "C:\Program Files\Microchip\xc8\v2.40\pic\sources\c99\common\Umul8_16.c"
 12343 ;; Parameters:    Size  Location     Type
 12344 ;;  multiplier      1    wreg     unsigned char 
 12345 ;;  multiplicand    1    0[COMMON] unsigned char 
 12346 ;; Auto vars:     Size  Location     Type
 12347 ;;  multiplier      1    8[COMMON] unsigned char 
 12348 ;;  word_mpld       2    6[COMMON] unsigned int 
 12349 ;;  product         2    4[COMMON] unsigned int 
 12350 ;; Return value:  Size  Location     Type
 12351 ;;                  2    0[COMMON] unsigned int 
 12352 ;; Registers used:
 12353 ;;		wreg, status,2, status,0
 12354 ;; Tracked objects:
 12355 ;;		On entry : 0/0
 12356 ;;		On exit  : 0/0
 12357 ;;		Unchanged: 0/0
 12358 ;; Data sizes:     COMMON   BANK0   BANK1   BANK2   BANK3   BANK4   BANK5   BANK6   BANK7   BANK8   BANK9  BANK10  BANK1
      +1  BANK12  BANK13  BANK14  BANK15  BANK16  BANK17  BANK18  BANK19  BANK20  BANK21  BANK22  BANK23  BANK24  BANK25  BANK2
      +6  BANK27  BANK28  BANK29  BANK30  BANK31  BANK32  BANK33  BANK34  BANK35  BANK36  BANK37  BANK38  BANK39  BANK40  BANK4
      +1  BANK42  BANK43  BANK44  BANK45  BANK46  BANK47  BANK48  BANK49  BANK50
 12359 ;;      Params:         2       0       0       0       0       0       0       0       0       0       0       0       
      +0       0       0       0       0       0       0       0       0       0       0       0       0       0       0       
      +0       0       0       0       0       0       0       0       0       0       0       0       0       0       0       
      +0       0       0       0       0       0       0       0       0       0
 12360 ;;      Locals:         5       0       0       0       0       0       0       0       0       0       0       0       
      +0       0       0       0       0       0       0       0       0       0       0       0       0       0       0       
      +0       0       0       0       0       0       0       0       0       0       0       0       0       0       0       
      +0       0       0       0       0       0       0       0       0       0
 12361 ;;      Temps:          2       0       0       0       0       0       0       0       0       0       0       0       
      +0       0       0       0       0       0       0       0       0       0       0       0       0       0       0       
      +0       0       0       0       0       0       0       0       0       0       0       0       0       0       0       
      +0       0       0       0       0       0       0       0       0       0
 12362 ;;      Totals:         9       0       0       0       0       0       0       0       0       0       0       0       
      +0       0       0       0       0       0       0       0       0       0       0       0       0       0       0       
      +0       0       0       0       0       0       0       0       0       0       0       0       0       0       0       
      +0       0       0       0       0       0       0       0       0       0
 12363 ;;Total ram usage:        9 bytes
 12364 ;; Hardware stack levels used: 1
 12365 ;; This function calls:
 12366 ;;		Nothing
 12367 ;; This function is called by:
 12368 ;;		___flmul
 12369 ;; This function uses a non-reentrant model
 12370 ;;
 12371                           
 12372     1265                     __Umul8_16:	
 12373                           ;psect for function __Umul8_16
 12374                           
 12375                           
 12376                           ;incstack = 0
 12377                           ; Regs used in __Umul8_16: [wreg+status,2+status,0]
 12378                           ;__Umul8_16@multiplier stored from wreg
 12379     1265  00F8               	movwf	__Umul8_16@multiplier
 12380     1266                     l2971:
 12381     1266  01F4               	clrf	__Umul8_16@product
 12382     1267  01F5               	clrf	__Umul8_16@product+1
 12383     1268                     l2973:
 12384     1268  0870               	movf	__Umul8_16@multiplicand,w
 12385     1269  00F2               	movwf	??__Umul8_16
 12386     126A  01F3               	clrf	??__Umul8_16+1
 12387     126B  0872               	movf	??__Umul8_16,w
 12388     126C  00F6               	movwf	__Umul8_16@word_mpld
 12389     126D  0873               	movf	??__Umul8_16+1,w
 12390     126E  00F7               	movwf	__Umul8_16@word_mpld+1
 12391     126F                     l2975:
 12392     126F  1C78               	btfss	__Umul8_16@multiplier,0
 12393     1270  2A72               	goto	u3151
 12394     1271  2A73               	goto	u3150
 12395     1272                     u3151:
 12396     1272  2A77               	goto	l872
 12397     1273                     u3150:
 12398     1273                     l2977:
 12399     1273  0876               	movf	__Umul8_16@word_mpld,w
 12400     1274  07F4               	addwf	__Umul8_16@product,f
 12401     1275  0877               	movf	__Umul8_16@word_mpld+1,w
 12402     1276  3DF5               	addwfc	__Umul8_16@product+1,f
 12403     1277                     l872:
 12404     1277  3001               	movlw	1
 12405     1278                     u3165:
 12406     1278  35F6               	lslf	__Umul8_16@word_mpld,f
 12407     1279  0DF7               	rlf	__Umul8_16@word_mpld+1,f
 12408     127A  0B89               	decfsz	9,f
 12409     127B  2A78               	goto	u3165
 12410     127C  1003               	clrc
 12411     127D  0CF8               	rrf	__Umul8_16@multiplier,f
 12412     127E                     l2979:
 12413     127E  0878               	movf	__Umul8_16@multiplier,w
 12414     127F  1D03               	btfss	3,2
 12415     1280  2A82               	goto	u3171
 12416     1281  2A83               	goto	u3170
 12417     1282                     u3171:
 12418     1282  2A6F               	goto	l2975
 12419     1283                     u3170:
 12420     1283                     l2981:
 12421     1283  0875               	movf	__Umul8_16@product+1,w
 12422     1284  00F1               	movwf	?__Umul8_16+1
 12423     1285  0874               	movf	__Umul8_16@product,w
 12424     1286  00F0               	movwf	?__Umul8_16
 12425     1287                     l874:
 12426     1287  0008               	return
 12427     1288                     __end_of__Umul8_16:
 12428                           
 12429                           	psect	text42
 12430     0BBD                     __ptext42:	
 12431 ;; *************** function ___fladd *****************
 12432 ;; Defined at:
 12433 ;;		line 10 in file "C:\Program Files\Microchip\xc8\v2.40\pic\sources\c99\common\sprcadd.c"
 12434 ;; Parameters:    Size  Location     Type
 12435 ;;  b               4    0[BANK0 ] unsigned int 
 12436 ;;  a               4    4[BANK0 ] unsigned int 
 12437 ;; Auto vars:     Size  Location     Type
 12438 ;;  grs             1   19[BANK0 ] unsigned char 
 12439 ;;  bexp            1   18[BANK0 ] unsigned char 
 12440 ;;  aexp            1   17[BANK0 ] unsigned char 
 12441 ;;  signs           1   16[BANK0 ] unsigned char 
 12442 ;; Return value:  Size  Location     Type
 12443 ;;                  4    0[BANK0 ] unsigned char 
 12444 ;; Registers used:
 12445 ;;		wreg, status,2, status,0
 12446 ;; Tracked objects:
 12447 ;;		On entry : 0/0
 12448 ;;		On exit  : 0/0
 12449 ;;		Unchanged: 0/0
 12450 ;; Data sizes:     COMMON   BANK0   BANK1   BANK2   BANK3   BANK4   BANK5   BANK6   BANK7   BANK8   BANK9  BANK10  BANK1
      +1  BANK12  BANK13  BANK14  BANK15  BANK16  BANK17  BANK18  BANK19  BANK20  BANK21  BANK22  BANK23  BANK24  BANK25  BANK2
      +6  BANK27  BANK28  BANK29  BANK30  BANK31  BANK32  BANK33  BANK34  BANK35  BANK36  BANK37  BANK38  BANK39  BANK40  BANK4
      +1  BANK42  BANK43  BANK44  BANK45  BANK46  BANK47  BANK48  BANK49  BANK50
 12451 ;;      Params:         0       8       0       0       0       0       0       0       0       0       0       0       
      +0       0       0       0       0       0       0       0       0       0       0       0       0       0       0       
      +0       0       0       0       0       0       0       0       0       0       0       0       0       0       0       
      +0       0       0       0       0       0       0       0       0       0
 12452 ;;      Locals:         0       4       0       0       0       0       0       0       0       0       0       0       
      +0       0       0       0       0       0       0       0       0       0       0       0       0       0       0       
      +0       0       0       0       0       0       0       0       0       0       0       0       0       0       0       
      +0       0       0       0       0       0       0       0       0       0
 12453 ;;      Temps:          0       8       0       0       0       0       0       0       0       0       0       0       
      +0       0       0       0       0       0       0       0       0       0       0       0       0       0       0       
      +0       0       0       0       0       0       0       0       0       0       0       0       0       0       0       
      +0       0       0       0       0       0       0       0       0       0
 12454 ;;      Totals:         0      20       0       0       0       0       0       0       0       0       0       0       
      +0       0       0       0       0       0       0       0       0       0       0       0       0       0       0       
      +0       0       0       0       0       0       0       0       0       0       0       0       0       0       0       
      +0       0       0       0       0       0       0       0       0       0
 12455 ;;Total ram usage:       20 bytes
 12456 ;; Hardware stack levels used: 1
 12457 ;; This function calls:
 12458 ;;		Nothing
 12459 ;; This function is called by:
 12460 ;;		_DS3231_read_temp
 12461 ;;		___flsub
 12462 ;;		_efgtoa
 12463 ;; This function uses a non-reentrant model
 12464 ;;
 12465                           
 12466     0BBD                     ___fladd:	
 12467                           ;psect for function ___fladd
 12468                           
 12469     0BBD                     l2777:	
 12470                           ;incstack = 0
 12471                           ; Regs used in ___fladd: [wreg+status,2+status,0]
 12472                           
 12473     0BBD  0140               	movlb	0	; select bank0
 12474     0BBE  0823               	movf	___fladd@b+3,w
 12475     0BBF  3980               	andlw	128
 12476     0BC0  00B0               	movwf	___fladd@signs
 12477     0BC1                     l2779:
 12478     0BC1  3523               	lslf	___fladd@b+3,w
 12479     0BC2  00B2               	movwf	___fladd@bexp
 12480     0BC3                     l2781:
 12481     0BC3  1FA2               	btfss	___fladd@b+2,7
 12482     0BC4  2BC6               	goto	u2721
 12483     0BC5  2BC7               	goto	u2720
 12484     0BC6                     u2721:
 12485     0BC6  2BC8               	goto	l2785
 12486     0BC7                     u2720:
 12487     0BC7                     l2783:
 12488     0BC7  1432               	bsf	___fladd@bexp,0
 12489     0BC8                     l2785:
 12490     0BC8  0832               	movf	___fladd@bexp,w
 12491     0BC9  1903               	btfsc	3,2
 12492     0BCA  2BCC               	goto	u2731
 12493     0BCB  2BCD               	goto	u2730
 12494     0BCC                     u2731:
 12495     0BCC  2BDD               	goto	l2795
 12496     0BCD                     u2730:
 12497     0BCD                     l2787:
 12498     0BCD  0A32               	incf	___fladd@bexp,w
 12499     0BCE  1D03               	btfss	3,2
 12500     0BCF  2BD1               	goto	u2741
 12501     0BD0  2BD2               	goto	u2740
 12502     0BD1                     u2741:
 12503     0BD1  2BDA               	goto	l2791
 12504     0BD2                     u2740:
 12505     0BD2                     l2789:
 12506     0BD2  3000               	movlw	0
 12507     0BD3  00A3               	movwf	___fladd@b+3
 12508     0BD4  3000               	movlw	0
 12509     0BD5  00A2               	movwf	___fladd@b+2
 12510     0BD6  3000               	movlw	0
 12511     0BD7  00A1               	movwf	___fladd@b+1
 12512     0BD8  3000               	movlw	0
 12513     0BD9  00A0               	movwf	___fladd@b
 12514     0BDA                     l2791:
 12515     0BDA  17A2               	bsf	___fladd@b+2,7
 12516     0BDB                     l2793:
 12517     0BDB  01A3               	clrf	___fladd@b+3
 12518     0BDC  2BE5               	goto	l2797
 12519     0BDD                     l2795:
 12520     0BDD  3000               	movlw	0
 12521     0BDE  00A3               	movwf	___fladd@b+3
 12522     0BDF  3000               	movlw	0
 12523     0BE0  00A2               	movwf	___fladd@b+2
 12524     0BE1  3000               	movlw	0
 12525     0BE2  00A1               	movwf	___fladd@b+1
 12526     0BE3  3000               	movlw	0
 12527     0BE4  00A0               	movwf	___fladd@b
 12528     0BE5                     l2797:
 12529     0BE5  0827               	movf	___fladd@a+3,w
 12530     0BE6  3980               	andlw	128
 12531     0BE7  00B1               	movwf	___fladd@aexp
 12532     0BE8                     l2799:
 12533     0BE8  0831               	movf	___fladd@aexp,w
 12534     0BE9  0630               	xorwf	___fladd@signs,w
 12535     0BEA  1903               	skipnz
 12536     0BEB  2BED               	goto	u2751
 12537     0BEC  2BEE               	goto	u2750
 12538     0BED                     u2751:
 12539     0BED  2BEF               	goto	l2803
 12540     0BEE                     u2750:
 12541     0BEE                     l2801:
 12542     0BEE  1730               	bsf	___fladd@signs,6
 12543     0BEF                     l2803:
 12544     0BEF  3527               	lslf	___fladd@a+3,w
 12545     0BF0  00B1               	movwf	___fladd@aexp
 12546     0BF1                     l2805:
 12547     0BF1  1FA6               	btfss	___fladd@a+2,7
 12548     0BF2  2BF4               	goto	u2761
 12549     0BF3  2BF5               	goto	u2760
 12550     0BF4                     u2761:
 12551     0BF4  2BF6               	goto	l2809
 12552     0BF5                     u2760:
 12553     0BF5                     l2807:
 12554     0BF5  1431               	bsf	___fladd@aexp,0
 12555     0BF6                     l2809:
 12556     0BF6  0831               	movf	___fladd@aexp,w
 12557     0BF7  1903               	btfsc	3,2
 12558     0BF8  2BFA               	goto	u2771
 12559     0BF9  2BFB               	goto	u2770
 12560     0BFA                     u2771:
 12561     0BFA  2C0B               	goto	l2819
 12562     0BFB                     u2770:
 12563     0BFB                     l2811:
 12564     0BFB  0A31               	incf	___fladd@aexp,w
 12565     0BFC  1D03               	btfss	3,2
 12566     0BFD  2BFF               	goto	u2781
 12567     0BFE  2C00               	goto	u2780
 12568     0BFF                     u2781:
 12569     0BFF  2C08               	goto	l2815
 12570     0C00                     u2780:
 12571     0C00                     l2813:
 12572     0C00  3000               	movlw	0
 12573     0C01  00A7               	movwf	___fladd@a+3
 12574     0C02  3000               	movlw	0
 12575     0C03  00A6               	movwf	___fladd@a+2
 12576     0C04  3000               	movlw	0
 12577     0C05  00A5               	movwf	___fladd@a+1
 12578     0C06  3000               	movlw	0
 12579     0C07  00A4               	movwf	___fladd@a
 12580     0C08                     l2815:
 12581     0C08  17A6               	bsf	___fladd@a+2,7
 12582     0C09                     l2817:
 12583     0C09  01A7               	clrf	___fladd@a+3
 12584     0C0A  2C13               	goto	l757
 12585     0C0B                     l2819:
 12586     0C0B  3000               	movlw	0
 12587     0C0C  00A7               	movwf	___fladd@a+3
 12588     0C0D  3000               	movlw	0
 12589     0C0E  00A6               	movwf	___fladd@a+2
 12590     0C0F  3000               	movlw	0
 12591     0C10  00A5               	movwf	___fladd@a+1
 12592     0C11  3000               	movlw	0
 12593     0C12  00A4               	movwf	___fladd@a
 12594     0C13                     l757:
 12595     0C13  0832               	movf	___fladd@bexp,w
 12596     0C14  0231               	subwf	___fladd@aexp,w
 12597     0C15  1803               	skipnc
 12598     0C16  2C18               	goto	u2791
 12599     0C17  2C19               	goto	u2790
 12600     0C18                     u2791:
 12601     0C18  2C3F               	goto	l2855
 12602     0C19                     u2790:
 12603     0C19                     l2821:
 12604     0C19  1F30               	btfss	___fladd@signs,6
 12605     0C1A  2C1C               	goto	u2801
 12606     0C1B  2C1D               	goto	u2800
 12607     0C1C                     u2801:
 12608     0C1C  2C21               	goto	l2825
 12609     0C1D                     u2800:
 12610     0C1D                     l2823:
 12611     0C1D  3080               	movlw	128
 12612     0C1E  00A8               	movwf	??___fladd
 12613     0C1F  0828               	movf	??___fladd,w
 12614     0C20  06B0               	xorwf	___fladd@signs,f
 12615     0C21                     l2825:
 12616     0C21  0832               	movf	___fladd@bexp,w
 12617     0C22  00B3               	movwf	___fladd@grs
 12618     0C23                     l2827:
 12619     0C23  0831               	movf	___fladd@aexp,w
 12620     0C24  00B2               	movwf	___fladd@bexp
 12621     0C25                     l2829:
 12622     0C25  0833               	movf	___fladd@grs,w
 12623     0C26  00B1               	movwf	___fladd@aexp
 12624     0C27                     l2831:
 12625     0C27  0820               	movf	___fladd@b,w
 12626     0C28  00B3               	movwf	___fladd@grs
 12627     0C29                     l2833:
 12628     0C29  0824               	movf	___fladd@a,w
 12629     0C2A  00A0               	movwf	___fladd@b
 12630     0C2B                     l2835:
 12631     0C2B  0833               	movf	___fladd@grs,w
 12632     0C2C  00A4               	movwf	___fladd@a
 12633     0C2D                     l2837:
 12634     0C2D  0821               	movf	___fladd@b+1,w
 12635     0C2E  00B3               	movwf	___fladd@grs
 12636     0C2F                     l2839:
 12637     0C2F  0825               	movf	___fladd@a+1,w
 12638     0C30  00A1               	movwf	___fladd@b+1
 12639     0C31                     l2841:
 12640     0C31  0833               	movf	___fladd@grs,w
 12641     0C32  00A5               	movwf	___fladd@a+1
 12642     0C33                     l2843:
 12643     0C33  0822               	movf	___fladd@b+2,w
 12644     0C34  00B3               	movwf	___fladd@grs
 12645     0C35                     l2845:
 12646     0C35  0826               	movf	___fladd@a+2,w
 12647     0C36  00A2               	movwf	___fladd@b+2
 12648     0C37                     l2847:
 12649     0C37  0833               	movf	___fladd@grs,w
 12650     0C38  00A6               	movwf	___fladd@a+2
 12651     0C39                     l2849:
 12652     0C39  0823               	movf	___fladd@b+3,w
 12653     0C3A  00B3               	movwf	___fladd@grs
 12654     0C3B                     l2851:
 12655     0C3B  0827               	movf	___fladd@a+3,w
 12656     0C3C  00A3               	movwf	___fladd@b+3
 12657     0C3D                     l2853:
 12658     0C3D  0833               	movf	___fladd@grs,w
 12659     0C3E  00A7               	movwf	___fladd@a+3
 12660     0C3F                     l2855:
 12661     0C3F  01B3               	clrf	___fladd@grs
 12662     0C40                     l2857:
 12663     0C40  0831               	movf	___fladd@aexp,w
 12664     0C41  00A8               	movwf	??___fladd
 12665     0C42  01A9               	clrf	??___fladd+1
 12666     0C43  0829               	movf	??___fladd+1,w
 12667     0C44  00AB               	movwf	??___fladd+3
 12668     0C45  0832               	movf	___fladd@bexp,w
 12669     0C46  0228               	subwf	??___fladd,w
 12670     0C47  00AA               	movwf	??___fladd+2
 12671     0C48  1C03               	skipc
 12672     0C49  03AB               	decf	??___fladd+3,f
 12673     0C4A  082B               	movf	??___fladd+3,w
 12674     0C4B  3A80               	xorlw	128
 12675     0C4C  00AC               	movwf	??___fladd+4
 12676     0C4D  3080               	movlw	128
 12677     0C4E  022C               	subwf	??___fladd+4,w
 12678     0C4F  1D03               	skipz
 12679     0C50  2C53               	goto	u2815
 12680     0C51  301A               	movlw	26
 12681     0C52  022A               	subwf	??___fladd+2,w
 12682     0C53                     u2815:
 12683     0C53  1C03               	skipc
 12684     0C54  2C56               	goto	u2811
 12685     0C55  2C57               	goto	u2810
 12686     0C56                     u2811:
 12687     0C56  2C89               	goto	l2873
 12688     0C57                     u2810:
 12689     0C57                     l2859:
 12690     0C57  0140               	movlb	0	; select bank0
 12691     0C58  0823               	movf	___fladd@b+3,w
 12692     0C59  0422               	iorwf	___fladd@b+2,w
 12693     0C5A  0421               	iorwf	___fladd@b+1,w
 12694     0C5B  0420               	iorwf	___fladd@b,w
 12695     0C5C  1D03               	skipz
 12696     0C5D  2C5F               	goto	u2821
 12697     0C5E  2C61               	goto	u2820
 12698     0C5F                     u2821:
 12699     0C5F  3001               	movlw	1
 12700     0C60  2C62               	goto	u2830
 12701     0C61                     u2820:
 12702     0C61  3000               	movlw	0
 12703     0C62                     u2830:
 12704     0C62  00B3               	movwf	___fladd@grs
 12705     0C63  3000               	movlw	0
 12706     0C64  00A3               	movwf	___fladd@b+3
 12707     0C65  3000               	movlw	0
 12708     0C66  00A2               	movwf	___fladd@b+2
 12709     0C67  3000               	movlw	0
 12710     0C68  00A1               	movwf	___fladd@b+1
 12711     0C69  3000               	movlw	0
 12712     0C6A  00A0               	movwf	___fladd@b
 12713     0C6B  0831               	movf	___fladd@aexp,w
 12714     0C6C  00B2               	movwf	___fladd@bexp
 12715     0C6D  2C90               	goto	l761
 12716     0C6E                     l763:
 12717     0C6E  1C33               	btfss	___fladd@grs,0
 12718     0C6F  2C71               	goto	u2841
 12719     0C70  2C72               	goto	u2840
 12720     0C71                     u2841:
 12721     0C71  2C76               	goto	l2863
 12722     0C72                     u2840:
 12723     0C72                     l2861:
 12724     0C72  3633               	lsrf	___fladd@grs,w
 12725     0C73  3801               	iorlw	1
 12726     0C74  00B3               	movwf	___fladd@grs
 12727     0C75  2C78               	goto	l2865
 12728     0C76                     l2863:
 12729     0C76  1003               	clrc
 12730     0C77  0CB3               	rrf	___fladd@grs,f
 12731     0C78                     l2865:
 12732     0C78  1C20               	btfss	___fladd@b,0
 12733     0C79  2C7B               	goto	u2851
 12734     0C7A  2C7C               	goto	u2850
 12735     0C7B                     u2851:
 12736     0C7B  2C7D               	goto	l2869
 12737     0C7C                     u2850:
 12738     0C7C                     l2867:
 12739     0C7C  17B3               	bsf	___fladd@grs,7
 12740     0C7D                     l2869:
 12741     0C7D  3001               	movlw	1
 12742     0C7E  00A8               	movwf	??___fladd
 12743     0C7F                     u2865:
 12744     0C7F  37A3               	asrf	___fladd@b+3,f
 12745     0C80  0CA2               	rrf	___fladd@b+2,f
 12746     0C81  0CA1               	rrf	___fladd@b+1,f
 12747     0C82  0CA0               	rrf	___fladd@b,f
 12748     0C83  0BA8               	decfsz	??___fladd& (0+127),f
 12749     0C84  2C7F               	goto	u2865
 12750     0C85                     l2871:
 12751     0C85  3001               	movlw	1
 12752     0C86  00A8               	movwf	??___fladd
 12753     0C87  0828               	movf	??___fladd,w
 12754     0C88  07B2               	addwf	___fladd@bexp,f
 12755     0C89                     l2873:
 12756     0C89  0140               	movlb	0	; select bank0
 12757     0C8A  0831               	movf	___fladd@aexp,w
 12758     0C8B  0232               	subwf	___fladd@bexp,w
 12759     0C8C  1C03               	skipc
 12760     0C8D  2C8F               	goto	u2871
 12761     0C8E  2C90               	goto	u2870
 12762     0C8F                     u2871:
 12763     0C8F  2C6E               	goto	l763
 12764     0C90                     u2870:
 12765     0C90                     l761:
 12766     0C90  1B30               	btfsc	___fladd@signs,6
 12767     0C91  2C93               	goto	u2881
 12768     0C92  2C94               	goto	u2880
 12769     0C93                     u2881:
 12770     0C93  2CCA               	goto	l2899
 12771     0C94                     u2880:
 12772     0C94                     l2875:
 12773     0C94  0832               	movf	___fladd@bexp,w
 12774     0C95  1D03               	btfss	3,2
 12775     0C96  2C98               	goto	u2891
 12776     0C97  2C99               	goto	u2890
 12777     0C98                     u2891:
 12778     0C98  2CA2               	goto	l2881
 12779     0C99                     u2890:
 12780     0C99                     l2877:
 12781     0C99  3000               	movlw	0
 12782     0C9A  00A3               	movwf	?___fladd+3
 12783     0C9B  3000               	movlw	0
 12784     0C9C  00A2               	movwf	?___fladd+2
 12785     0C9D  3000               	movlw	0
 12786     0C9E  00A1               	movwf	?___fladd+1
 12787     0C9F  3000               	movlw	0
 12788     0CA0  00A0               	movwf	?___fladd
 12789     0CA1  2DC4               	goto	l770
 12790     0CA2                     l2881:
 12791     0CA2  0824               	movf	___fladd@a,w
 12792     0CA3  07A0               	addwf	___fladd@b,f
 12793     0CA4  0825               	movf	___fladd@a+1,w
 12794     0CA5  3DA1               	addwfc	___fladd@b+1,f
 12795     0CA6  0826               	movf	___fladd@a+2,w
 12796     0CA7  3DA2               	addwfc	___fladd@b+2,f
 12797     0CA8  0827               	movf	___fladd@a+3,w
 12798     0CA9  3DA3               	addwfc	___fladd@b+3,f
 12799     0CAA                     l2883:
 12800     0CAA  1C23               	btfss	___fladd@b+3,0
 12801     0CAB  2CAD               	goto	u2901
 12802     0CAC  2CAE               	goto	u2900
 12803     0CAD                     u2901:
 12804     0CAD  2D56               	goto	l2933
 12805     0CAE                     u2900:
 12806     0CAE                     l2885:
 12807     0CAE  1C33               	btfss	___fladd@grs,0
 12808     0CAF  2CB1               	goto	u2911
 12809     0CB0  2CB2               	goto	u2910
 12810     0CB1                     u2911:
 12811     0CB1  2CB6               	goto	l2889
 12812     0CB2                     u2910:
 12813     0CB2                     l2887:
 12814     0CB2  3633               	lsrf	___fladd@grs,w
 12815     0CB3  3801               	iorlw	1
 12816     0CB4  00B3               	movwf	___fladd@grs
 12817     0CB5  2CB8               	goto	l2891
 12818     0CB6                     l2889:
 12819     0CB6  1003               	clrc
 12820     0CB7  0CB3               	rrf	___fladd@grs,f
 12821     0CB8                     l2891:
 12822     0CB8  1C20               	btfss	___fladd@b,0
 12823     0CB9  2CBB               	goto	u2921
 12824     0CBA  2CBC               	goto	u2920
 12825     0CBB                     u2921:
 12826     0CBB  2CBD               	goto	l2895
 12827     0CBC                     u2920:
 12828     0CBC                     l2893:
 12829     0CBC  17B3               	bsf	___fladd@grs,7
 12830     0CBD                     l2895:
 12831     0CBD  3001               	movlw	1
 12832     0CBE  00A8               	movwf	??___fladd
 12833     0CBF                     u2935:
 12834     0CBF  37A3               	asrf	___fladd@b+3,f
 12835     0CC0  0CA2               	rrf	___fladd@b+2,f
 12836     0CC1  0CA1               	rrf	___fladd@b+1,f
 12837     0CC2  0CA0               	rrf	___fladd@b,f
 12838     0CC3  0BA8               	decfsz	??___fladd& (0+127),f
 12839     0CC4  2CBF               	goto	u2935
 12840     0CC5                     l2897:
 12841     0CC5  3001               	movlw	1
 12842     0CC6  00A8               	movwf	??___fladd
 12843     0CC7  0828               	movf	??___fladd,w
 12844     0CC8  07B2               	addwf	___fladd@bexp,f
 12845     0CC9  2D56               	goto	l2933
 12846     0CCA                     l2899:
 12847     0CCA  0823               	movf	___fladd@b+3,w
 12848     0CCB  3A80               	xorlw	128
 12849     0CCC  00A8               	movwf	??___fladd
 12850     0CCD  0827               	movf	___fladd@a+3,w
 12851     0CCE  3A80               	xorlw	128
 12852     0CCF  0228               	subwf	??___fladd,w
 12853     0CD0  1D03               	skipz
 12854     0CD1  2CDC               	goto	u2943
 12855     0CD2  0826               	movf	___fladd@a+2,w
 12856     0CD3  0222               	subwf	___fladd@b+2,w
 12857     0CD4  1D03               	skipz
 12858     0CD5  2CDC               	goto	u2943
 12859     0CD6  0825               	movf	___fladd@a+1,w
 12860     0CD7  0221               	subwf	___fladd@b+1,w
 12861     0CD8  1D03               	skipz
 12862     0CD9  2CDC               	goto	u2943
 12863     0CDA  0824               	movf	___fladd@a,w
 12864     0CDB  0220               	subwf	___fladd@b,w
 12865     0CDC                     u2943:
 12866     0CDC  1803               	skipnc
 12867     0CDD  2CDF               	goto	u2941
 12868     0CDE  2CE0               	goto	u2940
 12869     0CDF                     u2941:
 12870     0CDF  2D18               	goto	l2909
 12871     0CE0                     u2940:
 12872     0CE0                     l2901:
 12873     0CE0  30FF               	movlw	255
 12874     0CE1  00A8               	movwf	??___fladd
 12875     0CE2  30FF               	movlw	255
 12876     0CE3  00A9               	movwf	??___fladd+1
 12877     0CE4  30FF               	movlw	255
 12878     0CE5  00AA               	movwf	??___fladd+2
 12879     0CE6  30FF               	movlw	255
 12880     0CE7  00AB               	movwf	??___fladd+3
 12881     0CE8  0820               	movf	___fladd@b,w
 12882     0CE9  0224               	subwf	___fladd@a,w
 12883     0CEA  00AC               	movwf	??___fladd+4
 12884     0CEB  0821               	movf	___fladd@b+1,w
 12885     0CEC  3B25               	subwfb	___fladd@a+1,w
 12886     0CED  00AD               	movwf	??___fladd+5
 12887     0CEE  0822               	movf	___fladd@b+2,w
 12888     0CEF  3B26               	subwfb	___fladd@a+2,w
 12889     0CF0  00AE               	movwf	??___fladd+6
 12890     0CF1  0823               	movf	___fladd@b+3,w
 12891     0CF2  3B27               	subwfb	___fladd@a+3,w
 12892     0CF3  00AF               	movwf	??___fladd+7
 12893     0CF4  082C               	movf	??___fladd+4,w
 12894     0CF5  07A8               	addwf	??___fladd,f
 12895     0CF6  082D               	movf	??___fladd+5,w
 12896     0CF7  3DA9               	addwfc	??___fladd+1,f
 12897     0CF8  082E               	movf	??___fladd+6,w
 12898     0CF9  3DAA               	addwfc	??___fladd+2,f
 12899     0CFA  082F               	movf	??___fladd+7,w
 12900     0CFB  3DAB               	addwfc	??___fladd+3,f
 12901     0CFC  082B               	movf	??___fladd+3,w
 12902     0CFD  00A3               	movwf	___fladd@b+3
 12903     0CFE  082A               	movf	??___fladd+2,w
 12904     0CFF  00A2               	movwf	___fladd@b+2
 12905     0D00  0829               	movf	??___fladd+1,w
 12906     0D01  00A1               	movwf	___fladd@b+1
 12907     0D02  0828               	movf	??___fladd,w
 12908     0D03  00A0               	movwf	___fladd@b
 12909     0D04                     l2903:
 12910     0D04  3080               	movlw	128
 12911     0D05  00A8               	movwf	??___fladd
 12912     0D06  0828               	movf	??___fladd,w
 12913     0D07  06B0               	xorwf	___fladd@signs,f
 12914     0D08  09B3               	comf	___fladd@grs,f
 12915     0D09  0AB3               	incf	___fladd@grs,f
 12916     0D0A                     l2905:
 12917     0D0A  0833               	movf	___fladd@grs,w
 12918     0D0B  1D03               	btfss	3,2
 12919     0D0C  2D0E               	goto	u2951
 12920     0D0D  2D0F               	goto	u2950
 12921     0D0E                     u2951:
 12922     0D0E  2D20               	goto	l778
 12923     0D0F                     u2950:
 12924     0D0F                     l2907:
 12925     0D0F  3001               	movlw	1
 12926     0D10  07A0               	addwf	___fladd@b,f
 12927     0D11  3000               	movlw	0
 12928     0D12  3DA1               	addwfc	___fladd@b+1,f
 12929     0D13  3000               	movlw	0
 12930     0D14  3DA2               	addwfc	___fladd@b+2,f
 12931     0D15  3000               	movlw	0
 12932     0D16  3DA3               	addwfc	___fladd@b+3,f
 12933     0D17  2D20               	goto	l778
 12934     0D18                     l2909:
 12935     0D18  0824               	movf	___fladd@a,w
 12936     0D19  02A0               	subwf	___fladd@b,f
 12937     0D1A  0825               	movf	___fladd@a+1,w
 12938     0D1B  3BA1               	subwfb	___fladd@b+1,f
 12939     0D1C  0826               	movf	___fladd@a+2,w
 12940     0D1D  3BA2               	subwfb	___fladd@b+2,f
 12941     0D1E  0827               	movf	___fladd@a+3,w
 12942     0D1F  3BA3               	subwfb	___fladd@b+3,f
 12943     0D20                     l778:
 12944     0D20  0823               	movf	___fladd@b+3,w
 12945     0D21  0422               	iorwf	___fladd@b+2,w
 12946     0D22  0421               	iorwf	___fladd@b+1,w
 12947     0D23  0420               	iorwf	___fladd@b,w
 12948     0D24  1D03               	skipz
 12949     0D25  2D27               	goto	u2961
 12950     0D26  2D28               	goto	u2960
 12951     0D27                     u2961:
 12952     0D27  2D52               	goto	l2931
 12953     0D28                     u2960:
 12954     0D28                     l2911:
 12955     0D28  0833               	movf	___fladd@grs,w
 12956     0D29  1D03               	btfss	3,2
 12957     0D2A  2D2C               	goto	u2971
 12958     0D2B  2D2D               	goto	u2970
 12959     0D2C                     u2971:
 12960     0D2C  2D52               	goto	l2931
 12961     0D2D                     u2970:
 12962     0D2D                     l2913:
 12963     0D2D  3000               	movlw	0
 12964     0D2E  00A3               	movwf	?___fladd+3
 12965     0D2F  3000               	movlw	0
 12966     0D30  00A2               	movwf	?___fladd+2
 12967     0D31  3000               	movlw	0
 12968     0D32  00A1               	movwf	?___fladd+1
 12969     0D33  3000               	movlw	0
 12970     0D34  00A0               	movwf	?___fladd
 12971     0D35  2DC4               	goto	l770
 12972     0D36                     l2917:
 12973     0D36  3001               	movlw	1
 12974     0D37                     u2985:
 12975     0D37  35A0               	lslf	___fladd@b,f
 12976     0D38  0DA1               	rlf	___fladd@b+1,f
 12977     0D39  0DA2               	rlf	___fladd@b+2,f
 12978     0D3A  0DA3               	rlf	___fladd@b+3,f
 12979     0D3B  0B89               	decfsz	9,f
 12980     0D3C  2D37               	goto	u2985
 12981     0D3D                     l2919:
 12982     0D3D  1FB3               	btfss	___fladd@grs,7
 12983     0D3E  2D40               	goto	u2991
 12984     0D3F  2D41               	goto	u2990
 12985     0D40                     u2991:
 12986     0D40  2D42               	goto	l782
 12987     0D41                     u2990:
 12988     0D41                     l2921:
 12989     0D41  1420               	bsf	___fladd@b,0
 12990     0D42                     l782:
 12991     0D42  1C33               	btfss	___fladd@grs,0
 12992     0D43  2D45               	goto	u3001
 12993     0D44  2D46               	goto	u3000
 12994     0D45                     u3001:
 12995     0D45  2D49               	goto	l2925
 12996     0D46                     u3000:
 12997     0D46                     l2923:
 12998     0D46  1403               	setc
 12999     0D47  0DB3               	rlf	___fladd@grs,f
 13000     0D48  2D4B               	goto	l2927
 13001     0D49                     l2925:
 13002     0D49  1003               	clrc
 13003     0D4A  0DB3               	rlf	___fladd@grs,f
 13004     0D4B                     l2927:
 13005     0D4B  0832               	movf	___fladd@bexp,w
 13006     0D4C  1903               	btfsc	3,2
 13007     0D4D  2D4F               	goto	u3011
 13008     0D4E  2D50               	goto	u3010
 13009     0D4F                     u3011:
 13010     0D4F  2D52               	goto	l2931
 13011     0D50                     u3010:
 13012     0D50                     l2929:
 13013     0D50  3001               	movlw	1
 13014     0D51  02B2               	subwf	___fladd@bexp,f
 13015     0D52                     l2931:
 13016     0D52  1FA2               	btfss	___fladd@b+2,7
 13017     0D53  2D55               	goto	u3021
 13018     0D54  2D56               	goto	u3020
 13019     0D55                     u3021:
 13020     0D55  2D36               	goto	l2917
 13021     0D56                     u3020:
 13022     0D56                     l2933:
 13023     0D56  01B1               	clrf	___fladd@aexp
 13024     0D57                     l2935:
 13025     0D57  1FB3               	btfss	___fladd@grs,7
 13026     0D58  2D5A               	goto	u3031
 13027     0D59  2D5B               	goto	u3030
 13028     0D5A                     u3031:
 13029     0D5A  2D69               	goto	l2943
 13030     0D5B                     u3030:
 13031     0D5B                     l2937:
 13032     0D5B  0833               	movf	___fladd@grs,w
 13033     0D5C  397F               	andlw	127
 13034     0D5D  1903               	btfsc	3,2
 13035     0D5E  2D60               	goto	u3041
 13036     0D5F  2D61               	goto	u3040
 13037     0D60                     u3041:
 13038     0D60  2D64               	goto	l788
 13039     0D61                     u3040:
 13040     0D61                     l2939:
 13041     0D61  01B1               	clrf	___fladd@aexp
 13042     0D62  0AB1               	incf	___fladd@aexp,f
 13043     0D63  2D69               	goto	l2943
 13044     0D64                     l788:
 13045     0D64  1C20               	btfss	___fladd@b,0
 13046     0D65  2D67               	goto	u3051
 13047     0D66  2D68               	goto	u3050
 13048     0D67                     u3051:
 13049     0D67  2D69               	goto	l2943
 13050     0D68                     u3050:
 13051     0D68  2D61               	goto	l2939
 13052     0D69                     l2943:
 13053     0D69  0831               	movf	___fladd@aexp,w
 13054     0D6A  1903               	btfsc	3,2
 13055     0D6B  2D6D               	goto	u3061
 13056     0D6C  2D6E               	goto	u3060
 13057     0D6D                     u3061:
 13058     0D6D  2D9B               	goto	l791
 13059     0D6E                     u3060:
 13060     0D6E                     l2945:
 13061     0D6E  3001               	movlw	1
 13062     0D6F  07A0               	addwf	___fladd@b,f
 13063     0D70  3000               	movlw	0
 13064     0D71  3DA1               	addwfc	___fladd@b+1,f
 13065     0D72  3000               	movlw	0
 13066     0D73  3DA2               	addwfc	___fladd@b+2,f
 13067     0D74  3000               	movlw	0
 13068     0D75  3DA3               	addwfc	___fladd@b+3,f
 13069     0D76                     l2947:
 13070     0D76  1C23               	btfss	___fladd@b+3,0
 13071     0D77  2D79               	goto	u3071
 13072     0D78  2D7A               	goto	u3070
 13073     0D79                     u3071:
 13074     0D79  2D9B               	goto	l791
 13075     0D7A                     u3070:
 13076     0D7A                     l2949:
 13077     0D7A  0820               	movf	___fladd@b,w
 13078     0D7B  00A8               	movwf	??___fladd
 13079     0D7C  0821               	movf	___fladd@b+1,w
 13080     0D7D  00A9               	movwf	??___fladd+1
 13081     0D7E  0822               	movf	___fladd@b+2,w
 13082     0D7F  00AA               	movwf	??___fladd+2
 13083     0D80  0823               	movf	___fladd@b+3,w
 13084     0D81  00AB               	movwf	??___fladd+3
 13085     0D82  3001               	movlw	1
 13086     0D83  00AC               	movwf	??___fladd+4
 13087     0D84                     u3085:
 13088     0D84  37AB               	asrf	??___fladd+3,f
 13089     0D85  0CAA               	rrf	??___fladd+2,f
 13090     0D86  0CA9               	rrf	??___fladd+1,f
 13091     0D87  0CA8               	rrf	??___fladd,f
 13092     0D88                     u3080:
 13093     0D88  0BAC               	decfsz	??___fladd+4,f
 13094     0D89  2D84               	goto	u3085
 13095     0D8A  082B               	movf	??___fladd+3,w
 13096     0D8B  00A3               	movwf	___fladd@b+3
 13097     0D8C  082A               	movf	??___fladd+2,w
 13098     0D8D  00A2               	movwf	___fladd@b+2
 13099     0D8E  0829               	movf	??___fladd+1,w
 13100     0D8F  00A1               	movwf	___fladd@b+1
 13101     0D90  0828               	movf	??___fladd,w
 13102     0D91  00A0               	movwf	___fladd@b
 13103     0D92  0A32               	incf	___fladd@bexp,w
 13104     0D93  1903               	btfsc	3,2
 13105     0D94  2D96               	goto	u3091
 13106     0D95  2D97               	goto	u3090
 13107     0D96                     u3091:
 13108     0D96  2D9B               	goto	l791
 13109     0D97                     u3090:
 13110     0D97                     l2951:
 13111     0D97  3001               	movlw	1
 13112     0D98  00A8               	movwf	??___fladd
 13113     0D99  0828               	movf	??___fladd,w
 13114     0D9A  07B2               	addwf	___fladd@bexp,f
 13115     0D9B                     l791:
 13116     0D9B  0A32               	incf	___fladd@bexp,w
 13117     0D9C  1903               	btfsc	3,2
 13118     0D9D  2D9F               	goto	u3101
 13119     0D9E  2DA0               	goto	u3100
 13120     0D9F                     u3101:
 13121     0D9F  2DA5               	goto	l2955
 13122     0DA0                     u3100:
 13123     0DA0                     l2953:
 13124     0DA0  0832               	movf	___fladd@bexp,w
 13125     0DA1  1D03               	btfss	3,2
 13126     0DA2  2DA4               	goto	u3111
 13127     0DA3  2DA5               	goto	u3110
 13128     0DA4                     u3111:
 13129     0DA4  2DB3               	goto	l2961
 13130     0DA5                     u3110:
 13131     0DA5                     l2955:
 13132     0DA5  3000               	movlw	0
 13133     0DA6  00A3               	movwf	___fladd@b+3
 13134     0DA7  3000               	movlw	0
 13135     0DA8  00A2               	movwf	___fladd@b+2
 13136     0DA9  3000               	movlw	0
 13137     0DAA  00A1               	movwf	___fladd@b+1
 13138     0DAB  3000               	movlw	0
 13139     0DAC  00A0               	movwf	___fladd@b
 13140     0DAD                     l2957:
 13141     0DAD  0832               	movf	___fladd@bexp,w
 13142     0DAE  1D03               	btfss	3,2
 13143     0DAF  2DB1               	goto	u3121
 13144     0DB0  2DB2               	goto	u3120
 13145     0DB1                     u3121:
 13146     0DB1  2DB3               	goto	l2961
 13147     0DB2                     u3120:
 13148     0DB2                     l2959:
 13149     0DB2  01B0               	clrf	___fladd@signs
 13150     0DB3                     l2961:
 13151     0DB3  1C32               	btfss	___fladd@bexp,0
 13152     0DB4  2DB6               	goto	u3131
 13153     0DB5  2DB7               	goto	u3130
 13154     0DB6                     u3131:
 13155     0DB6  2DB9               	goto	l2965
 13156     0DB7                     u3130:
 13157     0DB7                     l2963:
 13158     0DB7  17A2               	bsf	___fladd@b+2,7
 13159     0DB8  2DBD               	goto	l799
 13160     0DB9                     l2965:
 13161     0DB9  307F               	movlw	127
 13162     0DBA  00A8               	movwf	??___fladd
 13163     0DBB  0828               	movf	??___fladd,w
 13164     0DBC  05A2               	andwf	___fladd@b+2,f
 13165     0DBD                     l799:
 13166     0DBD  3632               	lsrf	___fladd@bexp,w
 13167     0DBE  00A3               	movwf	___fladd@b+3
 13168     0DBF                     l2967:
 13169     0DBF  1FB0               	btfss	___fladd@signs,7
 13170     0DC0  2DC2               	goto	u3141
 13171     0DC1  2DC3               	goto	u3140
 13172     0DC2                     u3141:
 13173     0DC2  2DC4               	goto	l800
 13174     0DC3                     u3140:
 13175     0DC3                     l2969:
 13176     0DC3  17A3               	bsf	___fladd@b+3,7
 13177     0DC4                     l800:
 13178     0DC4                     l770:
 13179     0DC4  0008               	return
 13180     0DC5                     __end_of___fladd:
 13181                           
 13182                           	psect	text43
 13183     114E                     __ptext43:	
 13184 ;; *************** function _DS3231_read *****************
 13185 ;; Defined at:
 13186 ;;		line 105 in file "DS3231.c"
 13187 ;; Parameters:    Size  Location     Type
 13188 ;;  address         1    wreg     unsigned char 
 13189 ;; Auto vars:     Size  Location     Type
 13190 ;;  address         1    1[COMMON] unsigned char 
 13191 ;;  valor           1    2[COMMON] unsigned char 
 13192 ;; Return value:  Size  Location     Type
 13193 ;;                  1    wreg      unsigned char 
 13194 ;; Registers used:
 13195 ;;		wreg, status,2, status,0, pclath, cstack
 13196 ;; Tracked objects:
 13197 ;;		On entry : 0/0
 13198 ;;		On exit  : 0/0
 13199 ;;		Unchanged: 0/0
 13200 ;; Data sizes:     COMMON   BANK0   BANK1   BANK2   BANK3   BANK4   BANK5   BANK6   BANK7   BANK8   BANK9  BANK10  BANK1
      +1  BANK12  BANK13  BANK14  BANK15  BANK16  BANK17  BANK18  BANK19  BANK20  BANK21  BANK22  BANK23  BANK24  BANK25  BANK2
      +6  BANK27  BANK28  BANK29  BANK30  BANK31  BANK32  BANK33  BANK34  BANK35  BANK36  BANK37  BANK38  BANK39  BANK40  BANK4
      +1  BANK42  BANK43  BANK44  BANK45  BANK46  BANK47  BANK48  BANK49  BANK50
 13201 ;;      Params:         0       0       0       0       0       0       0       0       0       0       0       0       
      +0       0       0       0       0       0       0       0       0       0       0       0       0       0       0       
      +0       0       0       0       0       0       0       0       0       0       0       0       0       0       0       
      +0       0       0       0       0       0       0       0       0       0
 13202 ;;      Locals:         2       0       0       0       0       0       0       0       0       0       0       0       
      +0       0       0       0       0       0       0       0       0       0       0       0       0       0       0       
      +0       0       0       0       0       0       0       0       0       0       0       0       0       0       0       
      +0       0       0       0       0       0       0       0       0       0
 13203 ;;      Temps:          0       0       0       0       0       0       0       0       0       0       0       0       
      +0       0       0       0       0       0       0       0       0       0       0       0       0       0       0       
      +0       0       0       0       0       0       0       0       0       0       0       0       0       0       0       
      +0       0       0       0       0       0       0       0       0       0
 13204 ;;      Totals:         2       0       0       0       0       0       0       0       0       0       0       0       
      +0       0       0       0       0       0       0       0       0       0       0       0       0       0       0       
      +0       0       0       0       0       0       0       0       0       0       0       0       0       0       0       
      +0       0       0       0       0       0       0       0       0       0
 13205 ;;Total ram usage:        2 bytes
 13206 ;; Hardware stack levels used: 1
 13207 ;; Hardware stack levels required when called: 1
 13208 ;; This function calls:
 13209 ;;		_I2C_read
 13210 ;;		_I2C_restart
 13211 ;;		_I2C_start
 13212 ;;		_I2C_stop
 13213 ;;		_I2C_write
 13214 ;; This function is called by:
 13215 ;;		_DS3231_read_temp
 13216 ;; This function uses a non-reentrant model
 13217 ;;
 13218                           
 13219     114E                     _DS3231_read:	
 13220                           ;psect for function _DS3231_read
 13221                           
 13222                           
 13223                           ;incstack = 0
 13224                           ; Regs used in _DS3231_read: [wreg+status,2+status,0+pclath+cstack]
 13225                           ;DS3231_read@address stored from wreg
 13226     114E  00F1               	movwf	DS3231_read@address
 13227     114F                     l3851:
 13228     114F                     l3853:
 13229                           
 13230                           ;DS3231.c: 108:     I2C_start();
 13231     114F  3190  20B6  3191   	fcall	_I2C_start
 13232     1152                     l3855:
 13233                           
 13234                           ;DS3231.c: 109:     I2C_write(0xD0);
 13235     1152  30D0               	movlw	208
 13236     1153  3190  20EB  3191   	fcall	_I2C_write
 13237     1156                     l3857:
 13238                           
 13239                           ;DS3231.c: 110:     I2C_write(address);
 13240     1156  0871               	movf	DS3231_read@address,w
 13241     1157  3190  20EB  3191   	fcall	_I2C_write
 13242     115A                     l3859:
 13243                           
 13244                           ;DS3231.c: 111:     I2C_restart();
 13245     115A  3190  20AF  3191   	fcall	_I2C_restart
 13246     115D                     l3861:
 13247                           
 13248                           ;DS3231.c: 112:     I2C_write(0xD1);
 13249     115D  30D1               	movlw	209
 13250     115E  3190  20EB  3191   	fcall	_I2C_write
 13251     1161                     l3863:
 13252                           
 13253                           ;DS3231.c: 113:     valor = I2C_read();
 13254     1161  3190  20DF  3191   	fcall	_I2C_read
 13255     1164  00F2               	movwf	DS3231_read@valor
 13256     1165                     l3865:
 13257                           
 13258                           ;DS3231.c: 114:     I2C_stop();
 13259     1165  3190  20BD  3191   	fcall	_I2C_stop
 13260     1168                     l3867:
 13261                           
 13262                           ;DS3231.c: 115:     return valor;
 13263     1168  0872               	movf	DS3231_read@valor,w
 13264     1169                     l301:
 13265     1169  0008               	return
 13266     116A                     __end_of_DS3231_read:
 13267                           
 13268                           	psect	text44
 13269     10EB                     __ptext44:	
 13270 ;; *************** function _I2C_write *****************
 13271 ;; Defined at:
 13272 ;;		line 60 in file "I2C.c"
 13273 ;; Parameters:    Size  Location     Type
 13274 ;;  I2C_data        1    wreg     unsigned char 
 13275 ;; Auto vars:     Size  Location     Type
 13276 ;;  I2C_data        1    0[COMMON] unsigned char 
 13277 ;; Return value:  Size  Location     Type
 13278 ;;                  1    wreg      void 
 13279 ;; Registers used:
 13280 ;;		wreg
 13281 ;; Tracked objects:
 13282 ;;		On entry : 0/0
 13283 ;;		On exit  : 0/0
 13284 ;;		Unchanged: 0/0
 13285 ;; Data sizes:     COMMON   BANK0   BANK1   BANK2   BANK3   BANK4   BANK5   BANK6   BANK7   BANK8   BANK9  BANK10  BANK1
      +1  BANK12  BANK13  BANK14  BANK15  BANK16  BANK17  BANK18  BANK19  BANK20  BANK21  BANK22  BANK23  BANK24  BANK25  BANK2
      +6  BANK27  BANK28  BANK29  BANK30  BANK31  BANK32  BANK33  BANK34  BANK35  BANK36  BANK37  BANK38  BANK39  BANK40  BANK4
      +1  BANK42  BANK43  BANK44  BANK45  BANK46  BANK47  BANK48  BANK49  BANK50
 13286 ;;      Params:         0       0       0       0       0       0       0       0       0       0       0       0       
      +0       0       0       0       0       0       0       0       0       0       0       0       0       0       0       
      +0       0       0       0       0       0       0       0       0       0       0       0       0       0       0       
      +0       0       0       0       0       0       0       0       0       0
 13287 ;;      Locals:         1       0       0       0       0       0       0       0       0       0       0       0       
      +0       0       0       0       0       0       0       0       0       0       0       0       0       0       0       
      +0       0       0       0       0       0       0       0       0       0       0       0       0       0       0       
      +0       0       0       0       0       0       0       0       0       0
 13288 ;;      Temps:          0       0       0       0       0       0       0       0       0       0       0       0       
      +0       0       0       0       0       0       0       0       0       0       0       0       0       0       0       
      +0       0       0       0       0       0       0       0       0       0       0       0       0       0       0       
      +0       0       0       0       0       0       0       0       0       0
 13289 ;;      Totals:         1       0       0       0       0       0       0       0       0       0       0       0       
      +0       0       0       0       0       0       0       0       0       0       0       0       0       0       0       
      +0       0       0       0       0       0       0       0       0       0       0       0       0       0       0       
      +0       0       0       0       0       0       0       0       0       0
 13290 ;;Total ram usage:        1 bytes
 13291 ;; Hardware stack levels used: 1
 13292 ;; This function calls:
 13293 ;;		Nothing
 13294 ;; This function is called by:
 13295 ;;		_enviar_hora
 13296 ;;		_enviar_fecha
 13297 ;;		_DS3231_read
 13298 ;;		_leer_hora
 13299 ;;		_leer_fecha
 13300 ;; This function uses a non-reentrant model
 13301 ;;
 13302                           
 13303     10EB                     _I2C_write:	
 13304                           ;psect for function _I2C_write
 13305                           
 13306                           
 13307                           ;incstack = 0
 13308                           ; Regs used in _I2C_write: [wreg]
 13309                           ;I2C_write@I2C_data stored from wreg
 13310     10EB  00F0               	movwf	I2C_write@I2C_data
 13311     10EC                     l3721:
 13312                           
 13313                           ;I2C.c: 60: void I2C_write(char I2C_data);I2C.c: 61: {;I2C.c: 62:     PIR3bits.SSP1IF = 
      +                          0;
 13314     10EC  014E               	movlb	14	; select bank14
 13315     10ED  100F               	bcf	15,0	;volatile
 13316     10EE                     l3723:
 13317                           
 13318                           ;I2C.c: 63:     SSP1BUF = I2C_data;
 13319     10EE  0870               	movf	I2C_write@I2C_data,w
 13320     10EF  0143               	movlb	3	; select bank3
 13321     10F0  008C               	movwf	12	;volatile
 13322     10F1                     l235:	
 13323                           ;I2C.c: 64:     while(PIR3bits.SSP1IF == 0);
 13324                           
 13325     10F1  014E               	movlb	14	; select bank14
 13326     10F2  1C0F               	btfss	15,0	;volatile
 13327     10F3  28F5               	goto	u4671
 13328     10F4  28F6               	goto	u4670
 13329     10F5                     u4671:
 13330     10F5  28F1               	goto	l235
 13331     10F6                     u4670:
 13332     10F6                     l238:
 13333     10F6  0008               	return
 13334     10F7                     __end_of_I2C_write:
 13335                           
 13336                           	psect	text45
 13337     10BD                     __ptext45:	
 13338 ;; *************** function _I2C_stop *****************
 13339 ;; Defined at:
 13340 ;;		line 30 in file "I2C.c"
 13341 ;; Parameters:    Size  Location     Type
 13342 ;;		None
 13343 ;; Auto vars:     Size  Location     Type
 13344 ;;		None
 13345 ;; Return value:  Size  Location     Type
 13346 ;;                  1    wreg      void 
 13347 ;; Registers used:
 13348 ;;		None
 13349 ;; Tracked objects:
 13350 ;;		On entry : 0/0
 13351 ;;		On exit  : 0/0
 13352 ;;		Unchanged: 0/0
 13353 ;; Data sizes:     COMMON   BANK0   BANK1   BANK2   BANK3   BANK4   BANK5   BANK6   BANK7   BANK8   BANK9  BANK10  BANK1
      +1  BANK12  BANK13  BANK14  BANK15  BANK16  BANK17  BANK18  BANK19  BANK20  BANK21  BANK22  BANK23  BANK24  BANK25  BANK2
      +6  BANK27  BANK28  BANK29  BANK30  BANK31  BANK32  BANK33  BANK34  BANK35  BANK36  BANK37  BANK38  BANK39  BANK40  BANK4
      +1  BANK42  BANK43  BANK44  BANK45  BANK46  BANK47  BANK48  BANK49  BANK50
 13354 ;;      Params:         0       0       0       0       0       0       0       0       0       0       0       0       
      +0       0       0       0       0       0       0       0       0       0       0       0       0       0       0       
      +0       0       0       0       0       0       0       0       0       0       0       0       0       0       0       
      +0       0       0       0       0       0       0       0       0       0
 13355 ;;      Locals:         0       0       0       0       0       0       0       0       0       0       0       0       
      +0       0       0       0       0       0       0       0       0       0       0       0       0       0       0       
      +0       0       0       0       0       0       0       0       0       0       0       0       0       0       0       
      +0       0       0       0       0       0       0       0       0       0
 13356 ;;      Temps:          0       0       0       0       0       0       0       0       0       0       0       0       
      +0       0       0       0       0       0       0       0       0       0       0       0       0       0       0       
      +0       0       0       0       0       0       0       0       0       0       0       0       0       0       0       
      +0       0       0       0       0       0       0       0       0       0
 13357 ;;      Totals:         0       0       0       0       0       0       0       0       0       0       0       0       
      +0       0       0       0       0       0       0       0       0       0       0       0       0       0       0       
      +0       0       0       0       0       0       0       0       0       0       0       0       0       0       0       
      +0       0       0       0       0       0       0       0       0       0
 13358 ;;Total ram usage:        0 bytes
 13359 ;; Hardware stack levels used: 1
 13360 ;; This function calls:
 13361 ;;		Nothing
 13362 ;; This function is called by:
 13363 ;;		_enviar_hora
 13364 ;;		_enviar_fecha
 13365 ;;		_DS3231_read
 13366 ;;		_leer_hora
 13367 ;;		_leer_fecha
 13368 ;; This function uses a non-reentrant model
 13369 ;;
 13370                           
 13371     10BD                     _I2C_stop:	
 13372                           ;psect for function _I2C_stop
 13373                           
 13374     10BD                     l3713:	
 13375                           ;incstack = 0
 13376                           ; Regs used in _I2C_stop: []
 13377                           
 13378                           
 13379                           ;I2C.c: 32:     SSP1CON2bits.PEN = 1;
 13380     10BD  0143               	movlb	3	; select bank3
 13381     10BE  1511               	bsf	17,2	;volatile
 13382     10BF                     l211:	
 13383                           ;I2C.c: 33:     while(SSP1CON2bits.PEN == 1);
 13384                           
 13385     10BF  1911               	btfsc	17,2	;volatile
 13386     10C0  28C2               	goto	u4651
 13387     10C1  28C3               	goto	u4650
 13388     10C2                     u4651:
 13389     10C2  28BF               	goto	l211
 13390     10C3                     u4650:
 13391     10C3                     l214:
 13392     10C3  0008               	return
 13393     10C4                     __end_of_I2C_stop:
 13394                           
 13395                           	psect	text46
 13396     10B6                     __ptext46:	
 13397 ;; *************** function _I2C_start *****************
 13398 ;; Defined at:
 13399 ;;		line 18 in file "I2C.c"
 13400 ;; Parameters:    Size  Location     Type
 13401 ;;		None
 13402 ;; Auto vars:     Size  Location     Type
 13403 ;;		None
 13404 ;; Return value:  Size  Location     Type
 13405 ;;                  1    wreg      void 
 13406 ;; Registers used:
 13407 ;;		None
 13408 ;; Tracked objects:
 13409 ;;		On entry : 0/0
 13410 ;;		On exit  : 0/0
 13411 ;;		Unchanged: 0/0
 13412 ;; Data sizes:     COMMON   BANK0   BANK1   BANK2   BANK3   BANK4   BANK5   BANK6   BANK7   BANK8   BANK9  BANK10  BANK1
      +1  BANK12  BANK13  BANK14  BANK15  BANK16  BANK17  BANK18  BANK19  BANK20  BANK21  BANK22  BANK23  BANK24  BANK25  BANK2
      +6  BANK27  BANK28  BANK29  BANK30  BANK31  BANK32  BANK33  BANK34  BANK35  BANK36  BANK37  BANK38  BANK39  BANK40  BANK4
      +1  BANK42  BANK43  BANK44  BANK45  BANK46  BANK47  BANK48  BANK49  BANK50
 13413 ;;      Params:         0       0       0       0       0       0       0       0       0       0       0       0       
      +0       0       0       0       0       0       0       0       0       0       0       0       0       0       0       
      +0       0       0       0       0       0       0       0       0       0       0       0       0       0       0       
      +0       0       0       0       0       0       0       0       0       0
 13414 ;;      Locals:         0       0       0       0       0       0       0       0       0       0       0       0       
      +0       0       0       0       0       0       0       0       0       0       0       0       0       0       0       
      +0       0       0       0       0       0       0       0       0       0       0       0       0       0       0       
      +0       0       0       0       0       0       0       0       0       0
 13415 ;;      Temps:          0       0       0       0       0       0       0       0       0       0       0       0       
      +0       0       0       0       0       0       0       0       0       0       0       0       0       0       0       
      +0       0       0       0       0       0       0       0       0       0       0       0       0       0       0       
      +0       0       0       0       0       0       0       0       0       0
 13416 ;;      Totals:         0       0       0       0       0       0       0       0       0       0       0       0       
      +0       0       0       0       0       0       0       0       0       0       0       0       0       0       0       
      +0       0       0       0       0       0       0       0       0       0       0       0       0       0       0       
      +0       0       0       0       0       0       0       0       0       0
 13417 ;;Total ram usage:        0 bytes
 13418 ;; Hardware stack levels used: 1
 13419 ;; This function calls:
 13420 ;;		Nothing
 13421 ;; This function is called by:
 13422 ;;		_enviar_hora
 13423 ;;		_enviar_fecha
 13424 ;;		_DS3231_read
 13425 ;;		_leer_hora
 13426 ;;		_leer_fecha
 13427 ;; This function uses a non-reentrant model
 13428 ;;
 13429                           
 13430     10B6                     _I2C_start:	
 13431                           ;psect for function _I2C_start
 13432                           
 13433     10B6                     l3709:	
 13434                           ;incstack = 0
 13435                           ; Regs used in _I2C_start: []
 13436                           
 13437                           
 13438                           ;I2C.c: 20:     SSP1CON2bits.SEN = 1;
 13439     10B6  0143               	movlb	3	; select bank3
 13440     10B7  1411               	bsf	17,0	;volatile
 13441     10B8                     l199:	
 13442                           ;I2C.c: 21:     while(SSP1CON2bits.SEN == 1);
 13443                           
 13444     10B8  1811               	btfsc	17,0	;volatile
 13445     10B9  28BB               	goto	u4631
 13446     10BA  28BC               	goto	u4630
 13447     10BB                     u4631:
 13448     10BB  28B8               	goto	l199
 13449     10BC                     u4630:
 13450     10BC                     l202:
 13451     10BC  0008               	return
 13452     10BD                     __end_of_I2C_start:
 13453                           
 13454                           	psect	text47
 13455     10AF                     __ptext47:	
 13456 ;; *************** function _I2C_restart *****************
 13457 ;; Defined at:
 13458 ;;		line 24 in file "I2C.c"
 13459 ;; Parameters:    Size  Location     Type
 13460 ;;		None
 13461 ;; Auto vars:     Size  Location     Type
 13462 ;;		None
 13463 ;; Return value:  Size  Location     Type
 13464 ;;                  1    wreg      void 
 13465 ;; Registers used:
 13466 ;;		None
 13467 ;; Tracked objects:
 13468 ;;		On entry : 0/0
 13469 ;;		On exit  : 0/0
 13470 ;;		Unchanged: 0/0
 13471 ;; Data sizes:     COMMON   BANK0   BANK1   BANK2   BANK3   BANK4   BANK5   BANK6   BANK7   BANK8   BANK9  BANK10  BANK1
      +1  BANK12  BANK13  BANK14  BANK15  BANK16  BANK17  BANK18  BANK19  BANK20  BANK21  BANK22  BANK23  BANK24  BANK25  BANK2
      +6  BANK27  BANK28  BANK29  BANK30  BANK31  BANK32  BANK33  BANK34  BANK35  BANK36  BANK37  BANK38  BANK39  BANK40  BANK4
      +1  BANK42  BANK43  BANK44  BANK45  BANK46  BANK47  BANK48  BANK49  BANK50
 13472 ;;      Params:         0       0       0       0       0       0       0       0       0       0       0       0       
      +0       0       0       0       0       0       0       0       0       0       0       0       0       0       0       
      +0       0       0       0       0       0       0       0       0       0       0       0       0       0       0       
      +0       0       0       0       0       0       0       0       0       0
 13473 ;;      Locals:         0       0       0       0       0       0       0       0       0       0       0       0       
      +0       0       0       0       0       0       0       0       0       0       0       0       0       0       0       
      +0       0       0       0       0       0       0       0       0       0       0       0       0       0       0       
      +0       0       0       0       0       0       0       0       0       0
 13474 ;;      Temps:          0       0       0       0       0       0       0       0       0       0       0       0       
      +0       0       0       0       0       0       0       0       0       0       0       0       0       0       0       
      +0       0       0       0       0       0       0       0       0       0       0       0       0       0       0       
      +0       0       0       0       0       0       0       0       0       0
 13475 ;;      Totals:         0       0       0       0       0       0       0       0       0       0       0       0       
      +0       0       0       0       0       0       0       0       0       0       0       0       0       0       0       
      +0       0       0       0       0       0       0       0       0       0       0       0       0       0       0       
      +0       0       0       0       0       0       0       0       0       0
 13476 ;;Total ram usage:        0 bytes
 13477 ;; Hardware stack levels used: 1
 13478 ;; This function calls:
 13479 ;;		Nothing
 13480 ;; This function is called by:
 13481 ;;		_DS3231_read
 13482 ;;		_leer_hora
 13483 ;;		_leer_fecha
 13484 ;; This function uses a non-reentrant model
 13485 ;;
 13486                           
 13487     10AF                     _I2C_restart:	
 13488                           ;psect for function _I2C_restart
 13489                           
 13490     10AF                     l3711:	
 13491                           ;incstack = 0
 13492                           ; Regs used in _I2C_restart: []
 13493                           
 13494                           
 13495                           ;I2C.c: 26:     SSP1CON2bits.RSEN = 1;
 13496     10AF  0143               	movlb	3	; select bank3
 13497     10B0  1491               	bsf	17,1	;volatile
 13498     10B1                     l205:	
 13499                           ;I2C.c: 27:     while(SSP1CON2bits.RSEN == 1);
 13500                           
 13501     10B1  1891               	btfsc	17,1	;volatile
 13502     10B2  28B4               	goto	u4641
 13503     10B3  28B5               	goto	u4640
 13504     10B4                     u4641:
 13505     10B4  28B1               	goto	l205
 13506     10B5                     u4640:
 13507     10B5                     l208:
 13508     10B5  0008               	return
 13509     10B6                     __end_of_I2C_restart:
 13510                           
 13511                           	psect	text48
 13512     10DF                     __ptext48:	
 13513 ;; *************** function _I2C_read *****************
 13514 ;; Defined at:
 13515 ;;		line 36 in file "I2C.c"
 13516 ;; Parameters:    Size  Location     Type
 13517 ;;		None
 13518 ;; Auto vars:     Size  Location     Type
 13519 ;;		None
 13520 ;; Return value:  Size  Location     Type
 13521 ;;                  1    wreg      unsigned char 
 13522 ;; Registers used:
 13523 ;;		wreg
 13524 ;; Tracked objects:
 13525 ;;		On entry : 0/0
 13526 ;;		On exit  : 0/0
 13527 ;;		Unchanged: 0/0
 13528 ;; Data sizes:     COMMON   BANK0   BANK1   BANK2   BANK3   BANK4   BANK5   BANK6   BANK7   BANK8   BANK9  BANK10  BANK1
      +1  BANK12  BANK13  BANK14  BANK15  BANK16  BANK17  BANK18  BANK19  BANK20  BANK21  BANK22  BANK23  BANK24  BANK25  BANK2
      +6  BANK27  BANK28  BANK29  BANK30  BANK31  BANK32  BANK33  BANK34  BANK35  BANK36  BANK37  BANK38  BANK39  BANK40  BANK4
      +1  BANK42  BANK43  BANK44  BANK45  BANK46  BANK47  BANK48  BANK49  BANK50
 13529 ;;      Params:         0       0       0       0       0       0       0       0       0       0       0       0       
      +0       0       0       0       0       0       0       0       0       0       0       0       0       0       0       
      +0       0       0       0       0       0       0       0       0       0       0       0       0       0       0       
      +0       0       0       0       0       0       0       0       0       0
 13530 ;;      Locals:         0       0       0       0       0       0       0       0       0       0       0       0       
      +0       0       0       0       0       0       0       0       0       0       0       0       0       0       0       
      +0       0       0       0       0       0       0       0       0       0       0       0       0       0       0       
      +0       0       0       0       0       0       0       0       0       0
 13531 ;;      Temps:          0       0       0       0       0       0       0       0       0       0       0       0       
      +0       0       0       0       0       0       0       0       0       0       0       0       0       0       0       
      +0       0       0       0       0       0       0       0       0       0       0       0       0       0       0       
      +0       0       0       0       0       0       0       0       0       0
 13532 ;;      Totals:         0       0       0       0       0       0       0       0       0       0       0       0       
      +0       0       0       0       0       0       0       0       0       0       0       0       0       0       0       
      +0       0       0       0       0       0       0       0       0       0       0       0       0       0       0       
      +0       0       0       0       0       0       0       0       0       0
 13533 ;;Total ram usage:        0 bytes
 13534 ;; Hardware stack levels used: 1
 13535 ;; This function calls:
 13536 ;;		Nothing
 13537 ;; This function is called by:
 13538 ;;		_DS3231_read
 13539 ;;		_leer_hora
 13540 ;;		_leer_fecha
 13541 ;; This function uses a non-reentrant model
 13542 ;;
 13543                           
 13544     10DF                     _I2C_read:	
 13545                           ;psect for function _I2C_read
 13546                           
 13547     10DF                     l3715:	
 13548                           ;incstack = 0
 13549                           ; Regs used in _I2C_read: [wreg]
 13550                           
 13551                           
 13552                           ;I2C.c: 38:     PIR3bits.SSP1IF = 0;
 13553     10DF  014E               	movlb	14	; select bank14
 13554     10E0  100F               	bcf	15,0	;volatile
 13555                           
 13556                           ;I2C.c: 39:     SSP1CON2bits.RCEN = 1;
 13557     10E1  0143               	movlb	3	; select bank3
 13558     10E2  1591               	bsf	17,3	;volatile
 13559     10E3                     l217:	
 13560                           ;I2C.c: 40:     while(PIR3bits.SSP1IF == 0);
 13561                           
 13562     10E3  014E               	movlb	14	; select bank14
 13563     10E4  1C0F               	btfss	15,0	;volatile
 13564     10E5  28E7               	goto	u4661
 13565     10E6  28E8               	goto	u4660
 13566     10E7                     u4661:
 13567     10E7  28E3               	goto	l217
 13568     10E8                     u4660:
 13569     10E8                     l3717:
 13570                           
 13571                           ;I2C.c: 41:     return SSP1BUF;
 13572     10E8  0143               	movlb	3	; select bank3
 13573     10E9  080C               	movf	12,w	;volatile
 13574     10EA                     l220:
 13575     10EA  0008               	return
 13576     10EB                     __end_of_I2C_read:
 13577     007E                     btemp	set	126	;btemp
 13578     007E                     wtemp0	set	126
 13579                           
 13580                           	psect	config
 13581                           
 13582                           ;Config register CONFIG1 @ 0x8007
 13583                           ;	External Oscillator mode selection bits
 13584                           ;	FEXTOSC = HS, HS (crystal oscillator) above 4MHz; PFM set to high power
 13585                           ;	Power-up default value for COSC bits
 13586                           ;	RSTOSC = HFINT1, HFINTOSC (1MHz)
 13587                           ;	Clock Out Enable bit
 13588                           ;	CLKOUTEN = OFF, CLKOUT function is disabled; i/o or oscillator function on OSC2
 13589                           ;	Clock Switch Enable bit
 13590                           ;	CSWEN = ON, Writing to NOSC and NDIV is allowed
 13591                           ;	Fail-Safe Clock Monitor Enable bit
 13592                           ;	FCMEN = ON, FSCM timer enabled
 13593     8007                     	org	32775
 13594     8007  3FEA               	dw	16362
 13595                           
 13596                           ;Config register CONFIG2 @ 0x8008
 13597                           ;	Master Clear Enable bit
 13598                           ;	MCLRE = ON, MCLR pin is Master Clear function
 13599                           ;	Power-up Timer Enable bit
 13600                           ;	PWRTE = ON, PWRT enabled
 13601                           ;	Low-Power BOR enable bit
 13602                           ;	LPBOREN = OFF, ULPBOR disabled
 13603                           ;	Brown-out reset enable bits
 13604                           ;	BOREN = OFF, Brown-out reset disabled
 13605                           ;	Brown-out Reset Voltage Selection
 13606                           ;	BORV = LO, Brown-out Reset Voltage (VBOR) set to 1.9V on LF, and 2.45V on F Devices
 13607                           ;	Zero-cross detect disable
 13608                           ;	ZCD = OFF, Zero-cross detect circuit is disabled at POR.
 13609                           ;	Peripheral Pin Select one-way control
 13610                           ;	PPS1WAY = ON, The PPSLOCK bit can be cleared and set only once in software
 13611                           ;	Stack Overflow/Underflow Reset Enable bit
 13612                           ;	STVREN = ON, Stack Overflow or Underflow will cause a reset
 13613                           ;	Background Debugger
 13614                           ;	DEBUG = OFF, Background Debugger disabled
 13615     8008                     	org	32776
 13616     8008  3F3D               	dw	16189
 13617                           
 13618                           ;Config register CONFIG3 @ 0x8009
 13619                           ;	WDT Period Select bits
 13620                           ;	WDTCPS = WDTCPS_31, Divider ratio 1:65536; software control of WDTPS
 13621                           ;	WDT operating mode
 13622                           ;	WDTE = OFF, WDT Disabled, SWDTEN is ignored
 13623                           ;	WDT Window Select bits
 13624                           ;	WDTCWS = WDTCWS_7, window always open (100%); software control; keyed access not requi
      +                          red
 13625                           ;	WDT input clock selector
 13626                           ;	WDTCCS = SC, Software Control
 13627     8009                     	org	32777
 13628     8009  3F9F               	dw	16287
 13629                           
 13630                           ;Config register CONFIG4 @ 0x800A
 13631                           ;	UserNVM self-write protection bits
 13632                           ;	WRT = OFF, Write protection off
 13633                           ;	Scanner Enable bit
 13634                           ;	SCANE = available, Scanner module is available for use
 13635                           ;	Low Voltage Programming Enable bit
 13636                           ;	LVP = ON, Low Voltage programming enabled. MCLR/Vpp pin function is MCLR.
 13637     800A                     	org	32778
 13638     800A  3FFF               	dw	16383
 13639                           
 13640                           ;Config register CONFIG5 @ 0x800B
 13641                           ;	UserNVM Program memory code protection bit
 13642                           ;	CP = OFF, Program Memory code protection disabled
 13643                           ;	DataNVM code protection bit
 13644                           ;	CPD = OFF, Data EEPROM code protection disabled
 13645     800B                     	org	32779
 13646     800B  3FFF               	dw	16383

Data Sizes:
    Strings     19
    Constant    0
    Data        14
    BSS         107
    Persistent  32
    Stack       0

Auto Spaces:
    Space          Size  Autos    Used
    COMMON           14     14      14
    BANK0            80     76      80
    BANK1            80     70      77
    BANK2            80      0      30
    BANK3            80      0      80
    BANK4            80      0       0
    BANK5            80      0       0
    BANK6            80      0       0
    BANK7            80      0       0
    BANK8            80      0       0
    BANK9            80      0       0
    BANK10           80      0       0
    BANK11           80      0       0
    BANK12           80      0       0
    BANK13           80      0       0
    BANK14           80      0       0
    BANK15           80      0       0
    BANK16           80      0       0
    BANK17           80      0       0
    BANK18           80      0       0
    BANK19           80      0       0
    BANK20           80      0       0
    BANK21           80      0       0
    BANK22           80      0       0
    BANK23           80      0       0
    BANK24           80      0       0
    BANK25           80      0       0
    BANK26           80      0       0
    BANK27           80      0       0
    BANK28           80      0       0
    BANK29           80      0       0
    BANK30           80      0       0
    BANK31           80      0       0
    BANK32           80      0       0
    BANK33           80      0       0
    BANK34           80      0       0
    BANK35           80      0       0
    BANK36           80      0       0
    BANK37           80      0       0
    BANK38           80      0       0
    BANK39           80      0       0
    BANK40           80      0       0
    BANK41           80      0       0
    BANK42           80      0       0
    BANK43           80      0       0
    BANK44           80      0       0
    BANK45           80      0       0
    BANK46           80      0       0
    BANK47           80      0       0
    BANK48           80      0       0
    BANK49           80      0       0
    BANK50           80      0       0

Pointer List with Targets:

    strcpy@dest	PTR unsigned char  size(1) Largest target is 80
		 -> dbuf(BANK3[80]), 

    strcpy@d	PTR unsigned char  size(1) Largest target is 80
		 -> dbuf(BANK3[80]), 

    strcpy@src	PTR const unsigned char  size(2) Largest target is 4
		 -> STR_5(CODE[4]), STR_2(CODE[4]), 

    strcpy@s	PTR const unsigned char  size(2) Largest target is 4
		 -> STR_5(CODE[4]), STR_2(CODE[4]), 

    fputs@s	PTR const unsigned char  size(1) Largest target is 80
		 -> dbuf(BANK3[80]), 

    fputs@fp	PTR struct _IO_FILE size(1) Largest target is 10
		 -> sprintf@f(BANK0[10]), 

    fputc@fp...source	PTR const unsigned char  size(1) Largest target is 0

    fputc@fp...buffer	PTR unsigned char  size(1) Largest target is 0

    fputc@fp	PTR struct _IO_FILE size(1) Largest target is 10
		 -> sprintf@f(BANK0[10]), 

    memcpy@d1	PTR void  size(1) Largest target is 80
		 -> dbuf(BANK3[80]), 

    memcpy@d	PTR unsigned char  size(1) Largest target is 80
		 -> dbuf(BANK3[80]), 

    memcpy@s1	PTR const void  size(1) Largest target is 80
		 -> dbuf(BANK3[80]), 

    memcpy@s	PTR const unsigned char  size(1) Largest target is 80
		 -> dbuf(BANK3[80]), 

    atoi@s	PTR const unsigned char  size(2) Largest target is 11
		 -> STR_1(CODE[11]), 

    vfprintf@ap	PTR PTR void  size(1) Largest target is 1
		 -> sprintf@ap(BANK0[1]), 

    vfprintf@fp	PTR struct _IO_FILE size(1) Largest target is 10
		 -> sprintf@f(BANK0[10]), 

    vfprintf@fmt	PTR const unsigned char  size(2) Largest target is 11
		 -> STR_1(CODE[11]), 

    vfprintf@cfmt	PTR unsigned char  size(2) Largest target is 11
		 -> STR_1(CODE[11]), 

    vfpfcnvrt@fp	PTR struct _IO_FILE size(1) Largest target is 10
		 -> sprintf@f(BANK0[10]), 

    vfpfcnvrt@cp	PTR unsigned char  size(2) Largest target is 11
		 -> STR_1(CODE[11]), 

    vfpfcnvrt@ap	PTR PTR void  size(1) Largest target is 1
		 -> sprintf@ap(BANK0[1]), 

    vfpfcnvrt@fmt	PTR PTR unsigned char  size(1) Largest target is 2
		 -> vfprintf@cfmt(BANK0[2]), 

    S973$vp	PTR void  size(1) Largest target is 0

    convarg.vp	PTR void  size(1) Largest target is 0

    sp__memcpy	PTR void  size(1) Largest target is 80
		 -> dbuf(BANK3[80]), 

    efgtoa@fp	PTR struct _IO_FILE size(1) Largest target is 10
		 -> sprintf@f(BANK0[10]), 

    sp__strcpy	PTR unsigned char  size(1) Largest target is 80
		 -> dbuf(BANK3[80]), 

    pad@fp	PTR struct _IO_FILE size(1) Largest target is 10
		 -> sprintf@f(BANK0[10]), 

    pad@buf	PTR unsigned char  size(1) Largest target is 80
		 -> dbuf(BANK3[80]), 

    sprintf@fmt	PTR const unsigned char  size(2) Largest target is 11
		 -> STR_1(CODE[11]), 

    sprintf@s	PTR unsigned char  size(1) Largest target is 10
		 -> main@buffer(BANK1[10]), 

    sprintf@ap	PTR void [1] size(1) Largest target is 2
		 -> ?_sprintf(BANK1[2]), 

    S894$source	PTR const unsigned char  size(1) Largest target is 0

    f...source	PTR const unsigned char  size(1) Largest target is 0

    S894$buffer	PTR unsigned char  size(1) Largest target is 0

    f...buffer	PTR unsigned char  size(1) Largest target is 0

    LCD_printf@dato	PTR unsigned char  size(1) Largest target is 10
		 -> LCD_integer@st(COMMON[8]), main@buffer(BANK1[10]), 


Critical Paths under _main in COMMON

    _efgtoa->___flmul
    _efgtoa->_pad
    _pad->_fputs
    _fputs->_fputc
    _fputc->_putch
    _putch->_LCD_dato
    _floorf->___fldiv
    ___flsub->___flmul
    ___flge->___flmul
    _atoi->___wmul
    _atoi->_isdigit
    _enviar_hora->_I2C_write
    _enviar_fecha->_I2C_write
    _LCD_printf->_LCD_dato
    _LCD_dato->_LCD_write
    _LCD_init->_LCD_cmd
    _LCD_goto->_LCD_cmd
    _LCD_cmd->_LCD_write
    _DS3231_read_temp->___flmul
    _DS3231_read_temp->___xxtofl
    ___flmul->__Umul8_16
    ___fladd->___xxtofl
    _DS3231_read->_I2C_write

Critical Paths under _main in BANK0

    _main->_sprintf
    _sprintf->_vfprintf
    _vfprintf->_vfpfcnvrt
    _vfpfcnvrt->_efgtoa
    _efgtoa->___flge
    _efgtoa->_floorf
    _pad->_fputs
    _floorf->___fldiv
    ___flsub->___flmul
    ___flge->___flmul
    _DS3231_read_temp->___flmul

Critical Paths under _main in BANK1

    _main->_sprintf
    _sprintf->_vfprintf
    _vfprintf->_vfpfcnvrt
    _vfpfcnvrt->_efgtoa

Critical Paths under _main in BANK2

    None.

Critical Paths under _main in BANK3

    None.

Critical Paths under _main in BANK4

    None.

Critical Paths under _main in BANK5

    None.

Critical Paths under _main in BANK6

    None.

Critical Paths under _main in BANK7

    None.

Critical Paths under _main in BANK8

    None.

Critical Paths under _main in BANK9

    None.

Critical Paths under _main in BANK10

    None.

Critical Paths under _main in BANK11

    None.

Critical Paths under _main in BANK12

    None.

Critical Paths under _main in BANK13

    None.

Critical Paths under _main in BANK14

    None.

Critical Paths under _main in BANK15

    None.

Critical Paths under _main in BANK16

    None.

Critical Paths under _main in BANK17

    None.

Critical Paths under _main in BANK18

    None.

Critical Paths under _main in BANK19

    None.

Critical Paths under _main in BANK20

    None.

Critical Paths under _main in BANK21

    None.

Critical Paths under _main in BANK22

    None.

Critical Paths under _main in BANK23

    None.

Critical Paths under _main in BANK24

    None.

Critical Paths under _main in BANK25

    None.

Critical Paths under _main in BANK26

    None.

Critical Paths under _main in BANK27

    None.

Critical Paths under _main in BANK28

    None.

Critical Paths under _main in BANK29

    None.

Critical Paths under _main in BANK30

    None.

Critical Paths under _main in BANK31

    None.

Critical Paths under _main in BANK32

    None.

Critical Paths under _main in BANK33

    None.

Critical Paths under _main in BANK34

    None.

Critical Paths under _main in BANK35

    None.

Critical Paths under _main in BANK36

    None.

Critical Paths under _main in BANK37

    None.

Critical Paths under _main in BANK38

    None.

Critical Paths under _main in BANK39

    None.

Critical Paths under _main in BANK40

    None.

Critical Paths under _main in BANK41

    None.

Critical Paths under _main in BANK42

    None.

Critical Paths under _main in BANK43

    None.

Critical Paths under _main in BANK44

    None.

Critical Paths under _main in BANK45

    None.

Critical Paths under _main in BANK46

    None.

Critical Paths under _main in BANK47

    None.

Critical Paths under _main in BANK48

    None.

Critical Paths under _main in BANK49

    None.

Critical Paths under _main in BANK50

    None.

Call Graph Tables:

 ---------------------------------------------------------------------------------
 (Depth) Function   	        Calls       Base Space   Used Autos Params    Refs
 ---------------------------------------------------------------------------------
 (0) _main                                                15    15      0   31187
                                             75 BANK0      1     1      0
                                             56 BANK1     14    14      0
                   _DS3231_read_temp
                           _I2C_init
                           _LCD_goto
                           _LCD_init
                         _LCD_printf
                           _OSC_init
                   _PIN_MANAGER_init
                     _convertirFecha
                      _convertirHora
                       _enviar_fecha
                        _enviar_hora
                            _sprintf
 ---------------------------------------------------------------------------------
 (1) _sprintf                                             21    15      6   23406
                                             62 BANK0     13    13      0
                                             50 BANK1      6     0      6
                           _vfprintf
 ---------------------------------------------------------------------------------
 (2) _vfprintf                                             7     4      3   23092
                                             58 BANK0      4     4      0
                                             47 BANK1      3     0      3
                          _vfpfcnvrt
 ---------------------------------------------------------------------------------
 (3) _vfpfcnvrt                                           22    20      2   22766
                                             42 BANK0     16    16      0
                                             45 BANK1      2     0      2
                               _atoi
                             _efgtoa
                              _fputc
                            _isdigit
 ---------------------------------------------------------------------------------
 (4) _efgtoa                                              55    50      5   19401
                                             33 BANK0      9     4      5
                                              0 BANK1     45    45      0
                            ___fladd
                            ___fldiv
                             ___fleq
                             ___flge
                            ___flmul
                            ___flneg
                            ___flsub
                            ___fltol
                      ___fpclassifyf
                             _floorf
                               _labs
                             _memcpy
                                _pad
                             _strcpy
 ---------------------------------------------------------------------------------
 (5) _strcpy                                               8     6      2     314
                                              0 COMMON     8     6      2
 ---------------------------------------------------------------------------------
 (5) _pad                                                  9     6      3    2922
                                             13 COMMON     1     1      0
                                              6 BANK0      8     5      3
                              _fputc
                              _fputs
 ---------------------------------------------------------------------------------
 (6) _fputs                                                7     6      1    1240
                                             12 COMMON     1     0      1
                                              0 BANK0      6     6      0
                              _fputc
 ---------------------------------------------------------------------------------
 (4) _fputc                                                8     5      3     925
                                              4 COMMON     8     5      3
                              _putch
 ---------------------------------------------------------------------------------
 (5) _putch                                                1     1      0     243
                                              3 COMMON     1     1      0
                           _LCD_dato
 ---------------------------------------------------------------------------------
 (5) _memcpy                                               8     5      3     328
                                              0 COMMON     8     5      3
 ---------------------------------------------------------------------------------
 (5) _labs                                                 4     0      4     294
                                              0 COMMON     4     0      4
 ---------------------------------------------------------------------------------
 (5) _floorf                                              20    16      4     490
                                             13 BANK0     20    16      4
                            ___fldiv (ARG)
 ---------------------------------------------------------------------------------
 (5) ___fpclassifyf                                       16    12      4     287
                                              0 COMMON    10     6      4
                                              0 BANK0      6     6      0
 ---------------------------------------------------------------------------------
 (5) ___fltol                                             10     6      4     457
                                              0 COMMON    10     6      4
 ---------------------------------------------------------------------------------
 (5) ___flsub                                              8     0      8    2789
                                             21 BANK0      8     0      8
                            ___fladd
                            ___flmul (ARG)
 ---------------------------------------------------------------------------------
 (5) ___flneg                                              4     0      4     121
                                              0 COMMON     4     0      4
 ---------------------------------------------------------------------------------
 (5) ___flge                                              12     4      8     942
                                             21 BANK0     12     4      8
                            ___flmul (ARG)
 ---------------------------------------------------------------------------------
 (5) ___fleq                                              12     4      8     394
                                              0 COMMON    12     4      8
 ---------------------------------------------------------------------------------
 (5) ___fldiv                                             26    18      8    1881
                                              0 COMMON    13     5      8
                                              0 BANK0     13    13      0
 ---------------------------------------------------------------------------------
 (4) _atoi                                                 9     7      2    1165
                                              6 COMMON     5     3      2
                                              0 BANK0      4     4      0
                             ___wmul
                            _isdigit
                            _isspace
 ---------------------------------------------------------------------------------
 (5) _isspace                                              5     3      2     207
                                              0 COMMON     5     3      2
 ---------------------------------------------------------------------------------
 (4) _isdigit                                              6     4      2     313
                                              0 COMMON     6     4      2
 ---------------------------------------------------------------------------------
 (5) ___wmul                                               6     2      4     244
                                              0 COMMON     6     2      4
 ---------------------------------------------------------------------------------
 (1) _enviar_hora                                          0     0      0      22
                          _I2C_start
                           _I2C_stop
                          _I2C_write
 ---------------------------------------------------------------------------------
 (1) _enviar_fecha                                         0     0      0      22
                          _I2C_start
                           _I2C_stop
                          _I2C_write
 ---------------------------------------------------------------------------------
 (1) _convertirHora                                        2     2      0      68
                                              0 COMMON     2     2      0
 ---------------------------------------------------------------------------------
 (1) _convertirFecha                                       2     2      0      68
                                              0 COMMON     2     2      0
 ---------------------------------------------------------------------------------
 (1) _PIN_MANAGER_init                                     0     0      0       0
 ---------------------------------------------------------------------------------
 (1) _OSC_init                                             0     0      0       0
 ---------------------------------------------------------------------------------
 (1) _LCD_printf                                           2     2      0     332
                                              3 COMMON     2     2      0
                           _LCD_dato
 ---------------------------------------------------------------------------------
 (6) _LCD_dato                                             1     1      0     221
                                              2 COMMON     1     1      0
                          _LCD_write
 ---------------------------------------------------------------------------------
 (1) _LCD_init                                             2     2      0     309
                                              3 COMMON     2     2      0
                            _LCD_cmd
                    _LCD_write_nible
 ---------------------------------------------------------------------------------
 (2) _LCD_write_nible                                      1     1      0      88
                                              0 COMMON     1     1      0
 ---------------------------------------------------------------------------------
 (1) _LCD_goto                                             5     4      1     456
                                              3 COMMON     5     4      1
                            _LCD_cmd
 ---------------------------------------------------------------------------------
 (2) _LCD_cmd                                              1     1      0     221
                                              2 COMMON     1     1      0
                          _LCD_write
 ---------------------------------------------------------------------------------
 (7) _LCD_write                                            2     2      0     199
                                              0 COMMON     2     2      0
 ---------------------------------------------------------------------------------
 (1) _I2C_init                                             0     0      0       0
 ---------------------------------------------------------------------------------
 (1) _DS3231_read_temp                                    14    10      4    6431
                                             21 BANK0     14    10      4
                        _DS3231_read
                            ___fladd
                            ___flmul
                           ___xxtofl
 ---------------------------------------------------------------------------------
 (2) ___xxtofl                                            14    10      4     474
                                              0 COMMON    14    10      4
 ---------------------------------------------------------------------------------
 (5) ___flmul                                             26    18      8    3329
                                              9 COMMON     5     5      0
                                              0 BANK0     21    13      8
                          __Umul8_16
 ---------------------------------------------------------------------------------
 (6) __Umul8_16                                            9     7      2     799
                                              0 COMMON     9     7      2
 ---------------------------------------------------------------------------------
 (6) ___fladd                                             20    12      8    2440
                                              0 BANK0     20    12      8
                           ___xxtofl (ARG)
 ---------------------------------------------------------------------------------
 (2) _DS3231_read                                          2     2      0      68
                                              1 COMMON     2     2      0
                           _I2C_read
                        _I2C_restart
                          _I2C_start
                           _I2C_stop
                          _I2C_write
 ---------------------------------------------------------------------------------
 (2) _I2C_write                                            1     1      0      22
                                              0 COMMON     1     1      0
 ---------------------------------------------------------------------------------
 (2) _I2C_stop                                             0     0      0       0
 ---------------------------------------------------------------------------------
 (2) _I2C_start                                            0     0      0       0
 ---------------------------------------------------------------------------------
 (3) _I2C_restart                                          0     0      0       0
 ---------------------------------------------------------------------------------
 (3) _I2C_read                                             0     0      0       0
 ---------------------------------------------------------------------------------
 Estimated maximum stack depth 7
 ---------------------------------------------------------------------------------

 Call Graph Graphs:

 _main (ROOT)
   _DS3231_read_temp
     _DS3231_read
       _I2C_read
       _I2C_restart
       _I2C_start
       _I2C_stop
       _I2C_write
     ___fladd
       ___xxtofl (ARG)
     ___flmul
       __Umul8_16
     ___xxtofl
   _I2C_init
   _LCD_goto
     _LCD_cmd
       _LCD_write
   _LCD_init
     _LCD_cmd
     _LCD_write_nible
   _LCD_printf
     _LCD_dato
       _LCD_write
   _OSC_init
   _PIN_MANAGER_init
   _convertirFecha
   _convertirHora
   _enviar_fecha
     _I2C_start
     _I2C_stop
     _I2C_write
   _enviar_hora
     _I2C_start
     _I2C_stop
     _I2C_write
   _sprintf
     _vfprintf
       _vfpfcnvrt
         _atoi
           ___wmul
           _isdigit
           _isspace
         _efgtoa
           ___fladd
           ___fldiv
           ___fleq
           ___flge
             ___flmul (ARG)
           ___flmul
           ___flneg
           ___flsub
             ___fladd
             ___flmul (ARG)
           ___fltol
           ___fpclassifyf
           _floorf
             ___fldiv (ARG)
           _labs
           _memcpy
           _pad
             _fputc
               _putch
                 _LCD_dato
             _fputs
               _fputc
           _strcpy
         _fputc
         _isdigit

 Address spaces:
Name               Size   Autos  Total    Cost      Usage
BIGRAM             FF0      0       0       0        0.0%
EEDATA             100      0       0       0        0.0%
NULL                 0      0       0       0        0.0%
CODE                 0      0       0       0        0.0%
BITCOMMON            E      0       0       1        0.0%
BITSFR0              0      0       0       1        0.0%
SFR0                 0      0       0       1        0.0%
COMMON               E      E       E       2      100.0%
BITSFR1              0      0       0       2        0.0%
SFR1                 0      0       0       2        0.0%
BITSFR2              0      0       0       3        0.0%
SFR2                 0      0       0       3        0.0%
STACK                0      0       0       3        0.0%
BITBANK0            50      0       0       4        0.0%
BITSFR3              0      0       0       4        0.0%
SFR3                 0      0       0       4        0.0%
BANK0               50     4C      50       5      100.0%
BITSFR4              0      0       0       5        0.0%
SFR4                 0      0       0       5        0.0%
BITBANK1            50      0       0       6        0.0%
BITSFR5              0      0       0       6        0.0%
SFR5                 0      0       0       6        0.0%
BANK1               50     46      4D       7       96.2%
BITSFR6              0      0       0       7        0.0%
SFR6                 0      0       0       7        0.0%
BITBANK2            50      0       0       8        0.0%
BITSFR7              0      0       0       8        0.0%
SFR7                 0      0       0       8        0.0%
BANK2               50      0      1E       9       37.5%
BITSFR8              0      0       0       9        0.0%
SFR8                 0      0       0       9        0.0%
BITBANK3            50      0       0      10        0.0%
BITSFR9              0      0       0      10        0.0%
SFR9                 0      0       0      10        0.0%
BANK3               50      0      50      11      100.0%
BITSFR10             0      0       0      11        0.0%
SFR10                0      0       0      11        0.0%
BITBANK4            50      0       0      12        0.0%
BITSFR11             0      0       0      12        0.0%
SFR11                0      0       0      12        0.0%
BANK4               50      0       0      13        0.0%
BITSFR12             0      0       0      13        0.0%
SFR12                0      0       0      13        0.0%
BITBANK5            50      0       0      14        0.0%
BITSFR13             0      0       0      14        0.0%
SFR13                0      0       0      14        0.0%
BANK5               50      0       0      15        0.0%
BITSFR14             0      0       0      15        0.0%
SFR14                0      0       0      15        0.0%
BITBANK6            50      0       0      16        0.0%
BITSFR15             0      0       0      16        0.0%
SFR15                0      0       0      16        0.0%
BANK6               50      0       0      17        0.0%
BITSFR16             0      0       0      17        0.0%
SFR16                0      0       0      17        0.0%
BITBANK7            50      0       0      18        0.0%
BITSFR17             0      0       0      18        0.0%
SFR17                0      0       0      18        0.0%
BANK7               50      0       0      19        0.0%
BITSFR18             0      0       0      19        0.0%
SFR18                0      0       0      19        0.0%
BITBANK8            50      0       0      20        0.0%
BITSFR19             0      0       0      20        0.0%
SFR19                0      0       0      20        0.0%
BANK8               50      0       0      21        0.0%
BITSFR20             0      0       0      21        0.0%
SFR20                0      0       0      21        0.0%
BITBANK9            50      0       0      22        0.0%
BITSFR21             0      0       0      22        0.0%
SFR21                0      0       0      22        0.0%
BANK9               50      0       0      23        0.0%
BITSFR22             0      0       0      23        0.0%
SFR22                0      0       0      23        0.0%
BITBANK10           50      0       0      24        0.0%
BITSFR23             0      0       0      24        0.0%
SFR23                0      0       0      24        0.0%
BANK10              50      0       0      25        0.0%
BITSFR24             0      0       0      25        0.0%
SFR24                0      0       0      25        0.0%
BITBANK11           50      0       0      26        0.0%
BITSFR25             0      0       0      26        0.0%
SFR25                0      0       0      26        0.0%
BANK11              50      0       0      27        0.0%
BITSFR26             0      0       0      27        0.0%
SFR26                0      0       0      27        0.0%
BITSFR27             0      0       0      28        0.0%
SFR27                0      0       0      28        0.0%
ABS                  0      0     119      28        0.0%
BITBANK12           50      0       0      29        0.0%
BITSFR28             0      0       0      29        0.0%
SFR28                0      0       0      29        0.0%
BANK12              50      0       0      30        0.0%
BITSFR29             0      0       0      30        0.0%
SFR29                0      0       0      30        0.0%
BITBANK13           50      0       0      31        0.0%
BITSFR30             0      0       0      31        0.0%
SFR30                0      0       0      31        0.0%
BANK13              50      0       0      32        0.0%
BITSFR31             0      0       0      32        0.0%
SFR31                0      0       0      32        0.0%
BITBANK14           50      0       0      33        0.0%
BITSFR32             0      0       0      33        0.0%
SFR32                0      0       0      33        0.0%
BANK14              50      0       0      34        0.0%
BITSFR33             0      0       0      34        0.0%
SFR33                0      0       0      34        0.0%
BITBANK15           50      0       0      35        0.0%
BITSFR34             0      0       0      35        0.0%
SFR34                0      0       0      35        0.0%
BANK15              50      0       0      36        0.0%
BITSFR35             0      0       0      36        0.0%
SFR35                0      0       0      36        0.0%
BITBANK16           50      0       0      37        0.0%
BITSFR36             0      0       0      37        0.0%
SFR36                0      0       0      37        0.0%
BANK16              50      0       0      38        0.0%
BITSFR37             0      0       0      38        0.0%
SFR37                0      0       0      38        0.0%
BITBANK17           50      0       0      39        0.0%
BITSFR38             0      0       0      39        0.0%
SFR38                0      0       0      39        0.0%
BANK17              50      0       0      40        0.0%
BITSFR39             0      0       0      40        0.0%
SFR39                0      0       0      40        0.0%
BITBANK18           50      0       0      41        0.0%
BITSFR40             0      0       0      41        0.0%
SFR40                0      0       0      41        0.0%
BANK18              50      0       0      42        0.0%
BITSFR41             0      0       0      42        0.0%
SFR41                0      0       0      42        0.0%
BITBANK19           50      0       0      43        0.0%
BITSFR42             0      0       0      43        0.0%
SFR42                0      0       0      43        0.0%
BANK19              50      0       0      44        0.0%
BITSFR43             0      0       0      44        0.0%
SFR43                0      0       0      44        0.0%
BITBANK20           50      0       0      45        0.0%
BITSFR44             0      0       0      45        0.0%
SFR44                0      0       0      45        0.0%
BANK20              50      0       0      46        0.0%
BITSFR45             0      0       0      46        0.0%
SFR45                0      0       0      46        0.0%
BITBANK21           50      0       0      47        0.0%
BITSFR46             0      0       0      47        0.0%
SFR46                0      0       0      47        0.0%
BANK21              50      0       0      48        0.0%
BITSFR47             0      0       0      48        0.0%
SFR47                0      0       0      48        0.0%
BITBANK22           50      0       0      49        0.0%
BITSFR48             0      0       0      49        0.0%
SFR48                0      0       0      49        0.0%
BANK22              50      0       0      50        0.0%
BITSFR49             0      0       0      50        0.0%
SFR49                0      0       0      50        0.0%
BITBANK23           50      0       0      51        0.0%
BITSFR50             0      0       0      51        0.0%
SFR50                0      0       0      51        0.0%
BANK23              50      0       0      52        0.0%
BITSFR51             0      0       0      52        0.0%
SFR51                0      0       0      52        0.0%
BITBANK24           50      0       0      53        0.0%
BITSFR52             0      0       0      53        0.0%
SFR52                0      0       0      53        0.0%
BANK24              50      0       0      54        0.0%
BITSFR53             0      0       0      54        0.0%
SFR53                0      0       0      54        0.0%
BITBANK25           50      0       0      55        0.0%
BITSFR54             0      0       0      55        0.0%
SFR54                0      0       0      55        0.0%
BANK25              50      0       0      56        0.0%
BITSFR55             0      0       0      56        0.0%
SFR55                0      0       0      56        0.0%
BITBANK26           50      0       0      57        0.0%
BITSFR56             0      0       0      57        0.0%
SFR56                0      0       0      57        0.0%
BANK26              50      0       0      58        0.0%
BITSFR57             0      0       0      58        0.0%
SFR57                0      0       0      58        0.0%
BITSFR58             0      0       0      59        0.0%
SFR58                0      0       0      59        0.0%
DATA                 0      0     119      59        0.0%
BITBANK27           50      0       0      60        0.0%
BITSFR59             0      0       0      60        0.0%
SFR59                0      0       0      60        0.0%
BANK27              50      0       0      61        0.0%
BITSFR60             0      0       0      61        0.0%
SFR60                0      0       0      61        0.0%
BITBANK28           50      0       0      62        0.0%
BITSFR61             0      0       0      62        0.0%
SFR61                0      0       0      62        0.0%
BANK28              50      0       0      63        0.0%
BITSFR62             0      0       0      63        0.0%
SFR62                0      0       0      63        0.0%
BITBANK29           50      0       0      64        0.0%
BITSFR63             0      0       0      64        0.0%
SFR63                0      0       0      64        0.0%
BANK29              50      0       0      65        0.0%
BITBANK30           50      0       0      66        0.0%
BANK30              50      0       0      67        0.0%
BITBANK31           50      0       0      68        0.0%
BANK31              50      0       0      69        0.0%
BITBANK32           50      0       0      70        0.0%
BANK32              50      0       0      71        0.0%
BITBANK33           50      0       0      72        0.0%
BANK33              50      0       0      73        0.0%
BITBANK34           50      0       0      74        0.0%
BANK34              50      0       0      75        0.0%
BITBANK35           50      0       0      76        0.0%
BANK35              50      0       0      77        0.0%
BITBANK36           50      0       0      78        0.0%
BANK36              50      0       0      79        0.0%
BITBANK37           50      0       0      80        0.0%
BANK37              50      0       0      81        0.0%
BITBANK38           50      0       0      82        0.0%
BANK38              50      0       0      83        0.0%
BITBANK39           50      0       0      84        0.0%
BANK39              50      0       0      85        0.0%
BITBANK40           50      0       0      86        0.0%
BANK40              50      0       0      87        0.0%
BITBANK41           50      0       0      88        0.0%
BANK41              50      0       0      89        0.0%
BITBANK42           50      0       0      90        0.0%
BANK42              50      0       0      91        0.0%
BITBANK43           50      0       0      92        0.0%
BANK43              50      0       0      93        0.0%
BITBANK44           50      0       0      94        0.0%
BANK44              50      0       0      95        0.0%
BITBANK45           50      0       0      96        0.0%
BANK45              50      0       0      97        0.0%
BITBANK46           50      0       0      98        0.0%
BANK46              50      0       0      99        0.0%
BITBANK47           50      0       0     100        0.0%
BANK47              50      0       0     101        0.0%
BITBANK48           50      0       0     102        0.0%
BANK48              50      0       0     103        0.0%
BITBANK49           50      0       0     104        0.0%
BANK49              50      0       0     105        0.0%
BITBANK50           50      0       0     106        0.0%
BANK50              50      0       0     107        0.0%


Microchip Technology PIC Macro Assembler V2.40 build 20220703182018 
Symbol Table                                                                                   Sat Jan 14 23:18:48 2023

            ___fldiv@aexp 002C              ___fldiv@bexp 002B              ___fldiv@sign 0024  
                      l60 111F                        l57 1102                        l91 156F  
                      l94 1474                        l96 147C                        l98 1483  
     ___wmul@multiplicand 0072       __Umul8_16@word_mpld 0076                       l100 148A  
                     l101 148B                       l110 14BC                       l102 149E  
                     l103 149F                       l104 14A5                       l105 14A6  
                     l113 10CB                       l202 10BC                       l106 14AC  
                     l211 10BF                       l107 14AD                       l220 10EA  
                     l108 14B3                       l140 134D                       l116 10A8  
                     l205 10B1                       l301 1169                       l109 14B4  
                     l125 1135                       l214 10C3                       l119 10D3  
                     l208 10B5                       l304 16E0                       l217 10E3  
                     l170 1316                       l235 10F1                       l171 131F  
                     l163 12FF                       l165 1307                       l238 10F6  
                     l167 130E                       l280 1386                       l169 1315  
                     l275 083E                       l283 11A5                       l196 0017  
                     l199 10B8                       l631 141B                       l800 0DC4  
                     l456 11CE                       l289 1187                       l625 13EA  
                     l458 11E2                       l626 1406                       l642 176B  
                     l634 16FE                       l650 15DF                       l803 1221  
                     l660 15DF                       l813 0890                       l637 1752  
                     l910 008D                       l646 10DE                       l911 0099  
                     l903 0073                       l815 09E8                       l761 0C90  
                     l657 15CA                       l770 0DC4                       l834 09BA  
                     l763 0C6E                       l835 09D4                       l757 0C13  
                     l853 0FFF                       l837 09E1                       l829 096E  
                     l782 0D42                       l791 0D9B                       l919 11C3  
                     l872 1277                       l865 0FF3                       l778 0D20  
                     l874 1287                       l954 13A1                       l970 07D4  
                     l859 0F7F                       l788 0D64                       l957 13C1  
                     l799 0DBD                       l959 13CD                       l967 020F  
                     l897 003A                       l986 040D                       l899 00C1  
                     l996 062F                       _dia 006C  __end_of_DS3231_read_temp 16E1  
                     _pad 1387                       _mes 00EC                       _min 006E  
                     _sec 006F               ?_LCD_printf 0070                       wreg 0009  
            ___flmul@aexp 002D              ___flmul@bexp 002E              ___flmul@sign 0028  
            ___flmul@temp 0033              ___flmul@prod 002F           __end_of_LCD_cmd 10CC  
            ___fltol@exp1 0079                      l1120 1264                      l1105 114D  
                    l1113 1242                      l1123 1264                      l1141 146B  
                    l1053 12AA                      l1126 12EA                      l1046 0BBC  
                    l1063 165E                      l3001 11D8                      l1129 12F6  
                    l3003 11DE                      l3011 13FE                      l1155 1201  
                    l3101 0854                      l3013 1418                      l3021 16F6  
                    l1149 12CF                      l1078 179A                      l1094 0103  
                    l3111 086C                      l3103 085C                      l3015 141A  
                    l3007 13CE                      l3031 173A                      l3023 1712  
                    l1095 01AC                      l4001 135C                      l1089 17FF  
                    l3201 0978                      l3121 087D                      l3113 086E  
                    l3105 085D                      l3009 13E2                      l3033 1768  
                    l3025 171A                      l3041 10DC                      l4003 1362  
                    l4011 1175                      l3211 09AD                      l3203 0980  
                    l3131 08A4                      l3123 0885                      l3115 0872  
                    l3107 085F                      l3035 176A                      l3027 171E  
                    l3019 16E1                      l3043 10DE                      l1099 01A4  
                    l3301 0EDA                      l4021 1322                      l4013 117A  
                    l4005 116A                      l3221 09DB                      l3213 09C8  
                    l3205 0984                      l3133 08A8                      l3125 0886  
                    l3117 0873                      l3109 0867                      l3029 1736  
                    l3061 159E                      l3053 1582                      l4101 14F7  
                    l3311 0F35                      l3303 0EEC                      l3231 0DC9  
                    l4023 1326                      l4015 117F                      l4007 116D  
                    l3223 09DD                      l3215 09CB                      l3207 099C  
                    l3151 08E7                      l3143 08BF                      l3119 0878  
                    l3127 0888                      l3039 10D4                      l3063 15A2  
                    l3071 15BA                      l3055 1593                      l3047 1570  
                    l4103 1507                      l3321 0F54                      l3313 0F3C  
                    l3305 0EF7                      l3241 0DDA                      l3233 0DCB  
                    l4041 165F                      l4025 132A                      l4033 1332  
                    l4017 1184                      l4009 1171                      l3217 09D3  
                    l3209 09A0                      l3161 0901                      l3153 08E9  
                    l3145 08CF                      l3129 0898                      l3137 08B1  
                    l3081 15D4                      l3057 1594                      l3049 1579  
                    l3401 1634                      l3331 0F68                      l3323 0F5B  
                    l3315 0F48                      l3307 0F09                      l3251 0DF3  
                    l3243 0DE2                      l3235 0DCF                      l4051 1670  
                    l4043 165F                      l4027 132E                      l4035 1348  
                    l4019 1321                      l3219 09D7                      l3155 08EE  
                    l3163 0908                      l3171 0927                      l3147 08D7  
                    l3139 08B6                      l3091 0843                      l3083 1202  
                    l3059 159C                      l3403 163A                      l3411 11E4  
                    l3341 0F91                      l3333 0F7C                      l3317 0F4F  
                    l3325 0F5F                      l3309 0F1E                      l3261 0E0A  
                    l3253 0DF7                      l3245 0DE4                      l3237 0DD0  
                    l3229 0DC5                      l4053 1674                      l4045 165F  
                    l4301 133A                      l3181 0942                      l3173 092D  
                    l3165 091A                      l3157 08FC                      l3149 08DF  
                    l3093 0845                      l3085 1205                      l3077 15C1  
                    l3069 15AA                      l3421 00DA                      l3413 11EA  
                    l3501 0234                      l3351 0FC8                      l3343 0F95  
                    l3327 0F63                      l3319 0F53                      l3263 0E0C  
                    l3255 0DF8                      l3247 0DEC                      l3239 0DD5  
                    l4055 168E                      l4047 165F                      l3191 0953  
                    l3183 0943                      l3175 0935                      l3167 091B  
                    l3159 0900                      l3095 0849                      l3079 15CF  
                    l3407 165A                      l3423 00F5                      l3415 1243  
                    l3511 026B                      l3503 023D                      l4071 11BB  
                    l4063 11A8                      l2801 0BEE                      l3361 0FF0  
                    l3353 0FD6                      l3345 0FAD                      l3337 0F84  
                    l3329 0F64                      l3281 0E64                      l3273 0E27  
                    l3265 0E14                      l3257 0DFD                      l3249 0DF1  
                    l4057 16AA                      l4049 1665                      l4081 112D  
                    l3193 0957                      l3185 094A                      l3177 0937  
                    l3169 0923                      l3097 084A                      l3089 083F  
                    l3441 017C                      l3433 0135                      l3425 0102  
                    l3417 1254                      l3601 062B                      l3521 029F  
                    l3513 0277                      l4065 11AC                      l2811 0BFB  
                    l2803 0BEF                      l3363 0FF1                      l3355 0FDF  
                    l3339 0F89                      l3347 0FB1                      l3291 0EA8  
                    l3283 0E7C                      l3275 0E32                      l3267 0E19  
                    l3259 0E02                      l4059 16D8                      l2731 147A  
                    l4075 1121                      l3195 096B                      l3179 093E  
                    l3187 094E                      l3099 084F                      l3443 0185  
                    l3435 014C                      l3427 0108                      l3419 00C2  
                    l3451 12D6                      l3371 138E                      l3611 068B  
                    l3603 063C                      l3531 02F2                      l3523 02A1  
                    l3515 0280                      l3507 0253                      l4067 11AE  
                    l4091 14CC                      l2901 0CE0                      l2821 0C19  
                    l2813 0C00                      l2805 0BF1                      l3365 0FF7  
                    l3357 0FE1                      l3349 0FBE                      l3293 0EAF  
                    l3285 0E89                      l3277 0E3F                      l3269 0E1E  
                    l2741 148F                      l2733 147D                      l2725 146D  
                    l4077 1122                      l3461 1222                      l3701 17FB  
                    l3189 0952                      l3445 019C                      l3437 0154  
                    l3429 0120                      l3453 12DC                      l3381 13AE  
                    l3373 1395                      l3621 06B2                      l3613 069D  
                    l3605 063D                      l3541 039F                      l3533 0321  
                    l3509 0265                      l4069 11B0                      l4093 14D2  
                    l3711 10AF                      l2911 0D28                      l2903 0D04  
                    l2831 0C27                      l2823 0C1D                      l2815 0C08  
                    l2807 0BF5                      l3359 0FEC                      l3295 0EBA  
                    l3287 0E96                      l3279 0E57                      l2751 14B1  
                    l2743 1498                      l2735 1481                      l2727 1471  
                    l4079 1129                      l3463 1224                      l3199 0973  
                    l3391 160D                      l3439 0165                      l3455 12E0  
                    l3383 13B3                      l3375 139A                      l3631 06C8  
                    l3623 06B6                      l3615 06A2                      l3607 063F  
                    l3551 0400                      l3543 03A3                      l3535 0348  
                    l3527 02B9                      l3519 0296                      l4095 14D5  
                    l4087 14BD                      l3713 10BD                      l3721 10EC  
                    l2921 0D41                      l2913 0D2D                      l2905 0D0A  
                    l2841 0C31                      l2833 0C29                      l2825 0C21  
                    l2817 0C09                      l2809 0BF6                      l3297 0EC1  
                    l3289 0E9D                      l2753 14B8                      l2745 149C  
                    l2737 1484                      l2729 1476                      l3457 1136  
                    l3465 122B                      l3393 1613                      l3449 12D1  
                    l2761 141C                      l3385 13C6                      l3377 139F  
                    l3369 1389                      l3641 06E2                      l3633 06CC  
                    l3625 06BA                      l3617 06A7                      l3609 0642  
                    l3561 041F                      l3553 0404                      l3537 0378  
                    l3529 02C6                      l3481 01E1                      l3473 01AF  
                    l4097 14DE                      l4089 14C9                      l3715 10DF  
                    l3723 10EE                      l2923 0D46                      l2931 0D52  
                    l2907 0D0F                      l2851 0C3B                      l2843 0C33  
                    l2835 0C2B                      l2827 0C23                      l2819 0C0B  
                    l3299 0ED3                      l2747 14A3                      l2739 1488  
                    l2755 10CD                      l3467 123A                      l3395 162A  
                    l3387 15E0                      l2771 1453                      l2763 1421  
                    l3379 13A4                      l3643 06E6                      l3627 06BD  
                    l3619 06AB                      l3635 06D0                      l3651 0758  
                    l3571 0435                      l3563 0427                      l3555 0409  
                    l3539 0382                      l3547 03D3                      l3491 0206  
                    l3483 01F5                      l3475 01B0                      l3731 0A0E  
                    l3811 0BA2                      l4099 14E4                      l3717 10E8  
                    l3709 10B6                      l2925 0D49                      l2917 0D36  
                    l2909 0D18                      l2933 0D56                      l2861 0C72  
                    l2853 0C3D                      l2845 0C35                      l2837 0C2D  
                    l2829 0C25                      l2781 0BC3                      l3901 0091  
                    l2749 14AA                      l2757 10CF                      l3469 123B  
                    l3397 162F                      l3389 15F8                      l2773 1462  
                    l2765 1426                      l3661 0797                      l3653 076A  
                    l3645 0734                      l3637 06D6                      l3629 06C4  
                    l3581 0506                      l3573 043D                      l3565 0429  
                    l3557 0415                      l3549 03FA                      l3493 020B  
                    l3485 01F8                      l3477 01C0                      l3805 0B87  
                    l4293 0B18                      l3741 0A3D                      l3733 0A12  
                    l3725 09EB                      ?_pad 0026                      l2951 0D97  
                    l2943 0D69                      l2935 0D57                      l2927 0D4B  
                    l2919 0D3D                      l2871 0C85                      l2863 0C76  
                    l2847 0C37                      l2839 0C2F                      l2855 0C3F  
                    l2791 0BDA                      l2783 0BC7                      l3911 00B9  
                    l3903 009B                      l3831 12FC                      l2759 10A4  
                    l2767 142B                      l3671 07C3                      l3663 079E  
                    l3655 077A                      l3647 0750                      l3639 06DE  
                    l3591 0587                      l3583 0558                      l3575 0446  
                    l3567 042F                      l3559 041B                      l3495 0211  
                    l3487 01FC                      l3479 01DE                      l4295 0B5C  
                    l3807 0B98                      l3751 0A5E                      l3743 0A3E  
                    l3735 0A24                      l3727 09FE                      l2961 0DB3  
                    l2953 0DA0                      l2945 0D6E                      l2937 0D5B  
                    l2929 0D50                      l2881 0CA2                      l2865 0C78  
                    l2873 0C89                      l2857 0C40                      l2849 0C39  
                    l2793 0BDB                      l2785 0BC8                      l2777 0BBD  
                    l3905 00AF                      l3841 130F                      l3833 1301  
                    l3681 1776                      l2769 1435                      l3665 07AF  
                    l3657 077F                      l3649 0754                      l3593 05BA  
                    l3585 0562                      l3577 04F0                      l3569 0433  
                    l3497 0222                      l3489 0201                      l4297 0B93  
                    l3761 0AAA                      l3753 0A7A                      l3737 0A2D  
                    l3745 0A44                      l3729 0A07                      l3921 12A7  
                    l3851 114F                      l2963 0DB7                      l2955 0DA5  
                    l2947 0D76                      l2939 0D61                      l2891 0CB8  
                    l2883 0CAA                      l2875 0C94                      l2867 0C7C  
                    l2859 0C57                      l2787 0BCD                      l2795 0BDD  
                    l2779 0BC1                      l2971 1266                      l3907 00B4  
                    l3843 1313                      l3835 1305                      l3931 151B  
                    l4299 17AB                      l3683 1780                      l3675 176C  
                    l3667 07B4                      l3659 0785                      l3595 05F4  
                    l3587 057A                      l3579 04F4                      l3499 0228  
                    l3771 0ADA                      l3763 0AB3                      l3755 0A8D  
                    l3747 0A55                      l3739 0A39                      l3915 128A  
                    l3861 115D                      l3853 114F                      l2965 0DB9  
                    l2957 0DAD                      l2949 0D7A                      l2893 0CBC  
                    l2885 0CAE                      l2877 0C99                      l2869 0C7D  
                    l2797 0BE5                      l2789 0BD2                      l2981 1283  
                    l2973 1268                      l3909 00B8                      l3845 131B  
                    l3837 1308                      l3829 12F8                      l3941 153F  
                    l3933 1523                      l3925 10F7                      l3685 1795  
                    l3677 1772                      l3669 07BF                      l3597 05F9  
                    l3589 057F                      l3781 0B0E                      l3765 0AC0  
                    l3757 0A90                      l3773 0AF6                      l3917 1293  
                    l3863 1161                      l3855 1152                      l2967 0DBF  
                    l2959 0DB2                      l2895 0CBD                      l2887 0CB2  
                    l2799 0BE8                      l2975 126F                      l3871 0019  
                    l3847 10C5                      l3839 130C                      l3951 1557  
                    l3943 1543                      l3935 1527                      l3927 1111  
                    l3695 17D4                      l3687 179F                      l2991 12C1  
                    l3599 0625                      l3791 0B41                      l3775 0AFF  
                    l3767 0AD1                      l3759 0A98                      l3919 129D  
                    l3865 1165                      l3857 1156                      l2969 0DC3  
                    l2897 0CC5                      l2889 0CB6                      l2977 1273  
                    l3873 001E                      l3961 0015                      l3849 10C7  
                    l3953 155B                      l3945 1547                      l3937 1533  
                    l3929 150E                      l2993 11C4                      l3697 17E8  
                    l3689 17B3                      l2985 12AD                      l3777 0B06  
                    l3785 0B10                      l3867 1168                      l3859 115A  
                    l2899 0CCA                      l2979 127E                      l3891 0064  
                    l3883 004B                      l3875 0022                      l3955 155F  
                    l3947 154F                      l3939 1537                      l3971 0810  
                    l3963 0806                      l2995 11C6                      l3699 17EF  
                    l2987 12B0                      l3795 0B54                      l3779 0B0B  
                    l3787 0B23                      l3893 006C                      l3885 004E  
                    l3877 0032                      l3957 0004                      l3949 1553  
                    l3973 0814                      l3981 118F                      l2997 11CA  
                    l2989 12BC                      l3797 0B64                      l3789 0B2E  
                    l3895 007A                      l3887 0059                      l3879 0042  
                    l3959 0014                      l3991 134E                      l3975 081A  
                    l3983 1193                      l2999 11D3                      l3799 0B74  
                    l3897 0083                      l3889 0060                      l3969 0807  
                    l3985 1198                      l3977 1188                      l3899 0087  
                    l3987 119D                      l3979 118B                      l3997 134F  
                    l3989 11A2                      l3999 1358                      STR_1 1800  
                    STR_2 180B                      STR_5 180F                      u3000 0D46  
                    u3001 0D45                      u3010 0D50                      u3011 0D4F  
                    u3100 0DA0                      u3020 0D56                      u3101 0D9F  
                    u3021 0D55                      u3110 0DA5                      u3030 0D5B  
                    u3111 0DA4                      u3031 0D5A                      u3120 0DB2  
                    u3040 0D61                      u4000 13C6                      u3121 0DB1  
                    u3041 0D60                      u4001 13C5                      u3130 0DB7  
                    u3050 0D68                      u4010 1605                      u3131 0DB6  
                    u3051 0D67                      u3140 0DC3                      u3060 0D6E  
                    u3220 11DE                      u3300 1768                      u4020 1613  
                    u4100 1254                      u3141 0DC2                      u3061 0D6D  
                    u3221 11DD                      u3205 11CF                      u3301 1767  
                    u4021 1612                      u4101 1253                      u3070 0D7A  
                    u3150 1273                      u3230 13E2                      u3310 10DC  
                    u4030 1620                      u4110 00E7                      u3071 0D79  
                    u3151 1272                      u3215 11D4                      u3231 13E1  
                    u3311 10DB                      u4015 1601                      u3080 0D88  
                    u2600 147A                      u3240 13FE                      u3400 15CF  
                    u3320 1579                      u4040 162A                      u4200 0192  
                    u4120 0102                      u2601 1479                      u3241 13FD  
                    u3305 1764                      u3401 15CE                      u3321 1578  
                    u4041 1629                      u4121 0101                      u3090 0D97  
                    u3170 1283                      u2610 1481                      u3250 1418  
                    u3410 15D4                      u3330 158F                      u4050 163A  
                    u4210 019C                      u4130 0108                      u3091 0D96  
                    u3171 1282                      u2611 1480                      u3251 1417  
                    u3411 15D3                      u4051 1639                      u4035 161C  
                    u4211 019B                      u4131 0107                      u4115 00E3  
                    u2620 1488                      u3500 08EE                      u3420 0849  
                    u3260 16F6                      u3340 15A2                      u4060 1647  
                    u4140 0116                      u4220 12F6                      u2700 1435  
                    u3180 12CF                      u4300 0222                      u3085 0D84  
                    u3165 1278                      u2621 1487                      u5005 1366  
                    u3501 08ED                      u3421 0848                      u3261 16F5  
                    u3341 15A1                      u4205 018E                      u4125 00FE  
                    u4221 12F5                      u2701 1434                      u3181 12CE  
                    u4301 0221                      u5030 1135                      u3190 11CA  
                    u4230 1146                      u3430 084F                      u3270 1712  
                    u3350 15A9                      u4070 1652                      u4150 0134  
                    u2710 1453                      u4310 0228                      u5031 1134  
                    u5015 1372                      u3191 11C9                      u4231 1144  
                    u3431 084E                      u3255 1414                      u3271 1711  
                    u3351 15A8                      u3335 158B                      u4071 1650  
                    u4151 0133                      u2711 1452                      u4311 0227  
                    u2800 0C1D                      u2720 0BC7                      u2640 149C  
                    u4240 1147                      u3440 0854                      u3280 171E  
                    u4080 1653                      u4160 0142                      u4400 0404  
                    u4320 0265                      u2801 0C1C                      u2721 0BC6  
                    u2641 149B                      u5025 137E                      u3441 0853  
                    u3281 171D                      u4065 1643                      u4145 0112  
                    u4401 0403                      u4321 0264                      u2810 0C57  
                    u2730 0BCD                      u2650 14A3                      u4250 122B  
                    u3610 0952                      u3530 0900                      u3450 0872  
                    u3290 173A                      u3370 15B9                      u4170 014C  
                    u4090 1201                      u4410 041B                      u4330 026B  
                    u2811 0C56                      u2731 0BCC                      u2651 14A2  
                    u2635 1492                      u4251 122A                      u3611 0951  
                    u3531 08FF                      u3515 08EF                      u3451 0871  
                    u3291 1739                      u3371 15B8                      u4171 014B  
                    u2715 144F                      u4091 1200                      u4411 041A  
                    u4331 026A                      u2900 0CAE                      u2820 0C61  
                    u2740 0BD2                      u2660 14AA                      u4260 123A  
                    u3700 09DB                      u3620 0957                      u3460 0878  
                    u3380 15C0                      u4180 0172                      u4500 068B  
                    u4420 041F                      u4340 02B8                      u2901 0CAD  
                    u2821 0C5F                      u2741 0BD1                      u2661 14A9  
                    u4261 1239                      u3701 09DA                      u3621 0956  
                    u3605 0944                      u3525 08F6                      u3461 0877  
                    u3381 15BF                      u3365 15AB                      u4165 013E  
                    u4501 068A                      u4421 041E                      u4341 02B7  
                    u2910 0CB2                      u2830 0C62                      u2750 0BEE  
                    u3710 0DCF                      u2670 14B1                      u2590 1471  
                    u3630 096B                      u3550 091A                      u3470 087D  
                    u4190 017C                      u4510 06A7                      u4430 042F  
                    u4350 0321                      u4270 01DE                      u2911 0CB1  
                    u2815 0C53                      u2751 0BED                      u3711 0DCE  
                    u2671 14B0                      u2591 1470                      u5207 1534  
                    u3631 096A                      u3551 0919                      u3471 087C  
                    u4191 017B                      u4511 06A6                      u4431 042E  
                    u4351 0320                      u4271 01DD                      u2920 0CBC  
                    u2840 0C72                      u2760 0BF5                      u3720 0DD5  
                    u4600 1794                      u3640 0972                      u3560 092D  
                    u3480 0898                      u2680 1421                      u4520 06AB  
                    u4440 0506                      u4360 0348                      u4280 0201  
                    u2921 0CBB                      u2841 0C71                      u2761 0BF4  
                    u3721 0DD4                      u5217 153C                      u4601 1793  
                    u3641 0971                      u3561 092C                      u3545 0902  
                    u3481 0897                      u4185 016E                      u2681 1420  
                    u4521 06AA                      u4505 0687                      u4441 0505  
                    u4361 0347                      u4281 0200                      u2850 0C7C  
                    u2770 0BFB                      u3810 0F14                      u3730 0DDA  
                    u4610 17E8                      u3650 0978                      u3570 0935  
                    u3490 08B6                      u2690 1426                      u4530 06D6  
                    u4450 0558                      u4370 0378                      u4290 0206  
                    u2851 0C7B                      u2771 0BFA                      u3731 0DD9  
                    u5227 1544                      u4611 17E7                      u3651 0977  
                    u3571 0934                      u3555 0916                      u3491 08B5  
                    u3395 15C2                      u2691 1425                      u4531 06D5  
                    u4451 0557                      u4371 0377                      u4291 0205  
                    u2940 0CE0                      u2780 0C00                      u3900 0F83  
                    u3820 0F2B                      u3740 0DF7                      u4620 17EF  
                    u3660 0984                      u4540 076A                      u4460 057A  
                    u4380 03D2                      u4700 0A3D                      u2941 0CDF  
                    u2781 0BFF                      u3901 0F82                      u3805 0EC2  
                    u3741 0DF6                      u5237 154A                      u4621 17EE  
                    u3661 0983                      u4541 0769                      u4461 0579  
                    u4445 0502                      u4381 03D1                      u4701 0A3C  
                    u4630 10BC                      u2950 0D0F                      u2870 0C90  
                    u2790 0C19                      u3910 0F89                      u3750 0DFD  
                    u3670 0992                      u3590 0942                      u4550 077A  
                    u4470 057F                      u4390 03FA                      u4710 0A7A  
                    u4631 10BB                      u2951 0D0E                      u2943 0CDC  
                    u2935 0CBF                      u2871 0C8F                      u2791 0C18  
                    u3911 0F88                      u3815 0F10                      u3751 0DFC  
                    u5247 1568                      u3591 0941                      u4551 0779  
                    u4471 057E                      u4391 03F9                      u4711 0A79  
                    u4640 10B5                      u2960 0D28                      u2880 0C94  
                    u3920 0F95                      u3760 0E02                      u4800 001E  
                    u3680 09AD                      u4560 07A4                      u4480 05F4  
                    u4720 0A8D                      u4641 10B4                      u2961 0D27  
                    u2881 0C93                      u2865 0C7F                      u3921 0F94  
                    u3825 0F27                      u3761 0E01                      u4801 001D  
                    u5257 131C                      u3681 09AC                      u3585 0938  
                    u4561 07A2                      u4545 0766                      u4481 05F3  
                    u4721 0A8C                      u5177 14D9                      u4650 10C3  
                    u2970 0D2D                      u2890 0C99                      u3930 0FA3  
                    u3850 0F53                      u3770 0E19                      u4810 0022  
                    u3690 09C8                      u4570 07A5                      u4490 062B  
                    u4730 0AAA                      u4651 10C2                      u2971 0D2C  
                    u2891 0C98                      u3851 0F52                      u3835 0F36  
                    u3771 0E18                      u4811 0021                      u5267 14B9  
                    u5187 151E                      u3691 09C7                      u3675 098E  
                    u4555 0776                      u4491 062A                      u4731 0AA9  
                    u4660 10E8                      u3940 0FBE                      u3780 0E1E  
                    u4900 0091                      u4820 0042                      u4580 07B4  
                    u4740 0AF6                      u4661 10E7                      u3941 0FBD  
                    u3845 0F49                      u3781 0E1D                      u4901 0090  
                    u4821 0041                      u5197 152A                      u3685 09A9  
                    u4581 07B3                      u4741 0AF5                      u4670 10F6  
                    u2990 0D41                      u3950 0FD6                      u3870 0F63  
                    u4910 00A5                      u4590 1780                      u4750 0B2D  
                    u4671 10F5                      u2991 0D40                      u3951 0FD5  
                    u3935 0F9F                      u3871 0F62                      u4591 177F  
                    u3695 09C4                      u4751 0B2C                      u3960 0FF0  
                    u3880 0F68                      u4920 00B4                      u4840 005F  
                    u4760 12FC                      u4680 09FE                      u2985 0D37  
                    u3961 0FEF                      u3945 0FBA                      u3881 0F67  
                    u3865 0F55                      u4921 00B3                      u4841 005E  
                    u4761 12FB                      u4681 09FD                      u3890 0F7C  
                    u4930 00B8                      u4770 1305                      u3970 138E  
                    u4690 0A24                      u3955 0FD2                      u3891 0F7B  
                    u3795 0E97                      u4931 00B7                      u4915 00A1  
                    u4835 0053                      u4771 1304                      u3971 138D  
                    u4691 0A23                      u4860 0079                      u4780 130C  
                    u3980 139A                      u4940 12A7                      u4861 0078  
                    u4781 130B                      u3981 1399                      u4941 12A6  
                    u4790 1313                      u4950 081A                      u3990 13C1  
                    u4855 006D                      u4791 1312                      u4951 0819  
                    u3991 13C0                      u4880 0087                      u4881 0086  
                    u4890 008D                      u4891 008C                      u4875 007D  
                    u3995 13BD                      u4965 081E                      u4990 1362  
                    u4991 1361                      u4975 082A                      u4985 0836  
                    _Hora 0137                      _dbuf 01A0                      _anio 00EB  
                    _labs 1243                      _atoi 176C                      _main 14BD  
                    _hora 006D                      _prec 00E8                      pad@i 0029  
                    pad@p 0027                      fsr0h 0005                      fsr1h 0007  
                    indf0 0000                      fsr0l 0004                      indf1 0001  
                    fsr1l 0006                      pad@w 002B                      btemp 007E  
           ___fpclassifyf 15E0          __end_of_I2C_init 0018          __end_of_I2C_read 10EB  
                    start 0002          __end_of_I2C_stop 10C4              ?_enviar_hora 0070  
         ___fldiv@new_exp 0025          ?_LCD_write_nible 0070                     ??_pad 007D  
        __end_of_LCD_dato 10D4          __end_of_LCD_init 1570          __end_of_LCD_goto 134E  
           ___fltol@sign1 0078                     ?_labs 0070                     ?_atoi 0076  
         __end_of___fladd 0DC5                     ?_main 0070           __end_of___fldiv 09E9  
         __end_of___flneg 10DF           __end_of___flmul 1000             _convertirHora 0806  
         __end_of___flsub 1222           __end_of___fltol 15E0              vfpfcnvrt@fmt 00CD  
                   _TRISC 0013                     _TRISD 0014                     _TRISE 0015  
                   _Fecha 0130                     _flags 00EA          __end_of_OSC_init 1103  
             LCD_cmd@dato 0072                     _fputc 141C                     _fputs 12AB  
         __end_of_isdigit 114E                     labs@a 0070                     atoi@n 0022  
                   pad@fp 002D                     atoi@s 0076                     _width 00E6  
                   _putch 10A3           __end_of_isspace 1243             ?_enviar_fecha 0070  
                   status 0003         __end_of_I2C_start 10BD                     wtemp0 007E  
         __end_of_sprintf 11C4            ?___fpclassifyf 0070         __end_of_I2C_write 10F7  
         __initialization 07D5         I2C_write@I2C_data 0070              __end_of_labs 1265  
            __end_of_atoi 1800              __end_of_main 150E            ?_convertirHora 0070  
                  ??_labs 0074                    ??_atoi 0078                    ??_main 006B  
               ??_LCD_cmd 0072         __end_of_LCD_write 14BD            _convertirFecha 134E  
                  ?_fputc 0074                    ?_fputs 007C                    ?_putch 0070  
                  _ANSELC 1F4E                    _ANSELD 1F59                    _ANSELE 1F64  
                  _RC3PPS 1F23                    _RC4PPS 1F24            ??_enviar_fecha 0071  
        __end_of___xxtofl 00C2              vfprintf@cfmt 005C                    ___flge 16E1  
                  ___fleq 13CE                 ??___fladd 0028                    ___wmul 11C4  
               ??___fldiv 0078                 ??___flneg 0074                 ??___flmul 0079  
               ??___flsub 007E                 ??___fltol 0074                    _efgtoa 01AD  
                  _floorf 00C2                    _memcpy 12D0  __end_of_PIN_MANAGER_init 1120  
                  pad@buf 0026                    _strcpy 11E3              LCD_dato@dato 0072  
                  fputc@c 0074                    fputs@c 0022                    fputs@i 0023  
                  fputs@s 0025                 ??_isdigit 0072           ___fpclassifyf@e 0020  
         ___fpclassifyf@u 0022           ___fpclassifyf@x 0070                 ??_isspace 0072  
               ?_I2C_init 0070                 ?_I2C_read 0070    __end_of_convertirFecha 1387  
               ?_I2C_stop 0070            LCD_printf@dato 0074   DS3231_read_temp@lowByte 003E  
        __end_of_vfprintf 12AB                 ??_sprintf 005E                ___flge@ff1 0035  
              ___flge@ff2 0039           ??___fpclassifyf 0074              ___xxtofl@arg 007A  
            ___xxtofl@exp 0079              ___xxtofl@val 0070                ___fleq@ff1 0070  
              ___fleq@ff2 0074   __end_of__initialization 07FD                ___flneg@f1 0070  
               ?_LCD_dato 0070                 ?_LCD_init 0070                 ?_LCD_goto 0073  
              ___fltol@f1 0070            __pcstackCOMMON 0070              __pidataBANK2 1103  
         ??_convertirHora 0070             __end_of_fputc 146C             __end_of_fputs 12D0  
               ?_OSC_init 0070             __end_of_putch 10A9                 LCD_goto@x 0077  
               LCD_goto@y 0073          LCD_goto@posicion 0076              ??_LCD_printf 0073  
       ?_DS3231_read_temp 0035                ??_I2C_init 0070                ??_I2C_read 0070  
         ?_convertirFecha 0070                ??_I2C_stop 0070        ??_DS3231_read_temp 0039  
                 ??_fputc 0077                   ??_fputs 0020                   ??_putch 0073  
              __pbssBANK0 006C                __pbssBANK1 00E6                __pbssBANK2 0120  
              __pbssBANK3 01A0                ??_LCD_dato 0072             ??_DS3231_read 0071  
              ??_LCD_init 0073                ??_LCD_goto 0074         __end_of__Umul8_16 1288  
              __pmaintext 14BD                   ?___flge 0035                   ?___fleq 0070  
      __end_of_LCD_printf 1136                   ?___wmul 0070                   ?_efgtoa 0041  
              ??_OSC_init 0070                   ?_floorf 002D                   ?_memcpy 0070  
    __end_of_enviar_fecha 1188                   ?_strcpy 0070                   _LCD_cmd 10C4  
               ?___xxtofl 0070                   _SSP1ADD 018D                   _SSP1BUF 018C  
           ??_I2C_restart 0070                 _I2C_start 10B6                 _I2C_write 10EB  
                 ___fladd 0BBD                   ___fldiv 083F                   ___flneg 10D4  
     __end_of_DS3231_read 116A                   ___flmul 0DC5                   ___flsub 1202  
                 ___fltol 1570                 ?_vfprintf 00CF                   __ptext1 11A6  
                 __ptext2 1288                   __ptext3 09E9                   __ptext4 01AD  
                 __ptext5 11E3                   __ptext6 1387                   __ptext7 12AB  
                 __ptext8 141C                   __ptext9 10A3                   _isdigit 1136  
              ??___xxtofl 0074                   _isspace 1222                   efgtoa@c 0045  
                 efgtoa@d 00AB                   efgtoa@e 00B0                   efgtoa@f 0041  
                 efgtoa@g 00C5                   efgtoa@h 00BA                   efgtoa@i 00B8  
                 efgtoa@l 00BE                   efgtoa@m 00AD                   efgtoa@n 00C3  
                 efgtoa@p 00A2                   efgtoa@t 00A4                   efgtoa@u 00C9  
                 efgtoa@w 00B2                   atoi@neg 0020                   _sprintf 11A6  
                 clrloop0 10AA      end_of_initialization 07FD                   floorf@e 003B  
                 floorf@m 0037                   floorf@u 003D                   floorf@x 002D  
                 memcpy@d 0076                   memcpy@n 0071                   memcpy@s 0077  
               _LCD_write 146C                   fputc@fp 0076                   init_ram 0800  
                 fputs@fp 007C  DS3231_read_temp@highByte 003D                   initloop 0801  
              ?_I2C_start 0070                ?_I2C_write 0070         __end_of_vfpfcnvrt 0BBD  
              efgtoa@mode 00A9                efgtoa@sign 00C2          vfpfcnvrt@convarg 004E  
     __end_of_I2C_restart 10B6                ??_vfprintf 005A                   strcpy@d 0076  
                 strcpy@s 0074         ?_PIN_MANAGER_init 0070               ___fladd@grs 0033  
      ??_PIN_MANAGER_init 0070             ___xxtofl@sign 0078                 _TRISDbits 0014  
               _TRISEbits 0015               ___fldiv@grs 0027               ___fldiv@rem 0020  
     LCD_write_nible@dato 0070                ?_LCD_write 0070               ___flmul@grs 0029  
              main@buffer 00D8               _DS3231_read 114E            __end_of___flge 176C  
          __end_of___fleq 141C               vfpfcnvrt@ap 00CE               vfpfcnvrt@cp 0058  
             vfpfcnvrt@fp 0056            __end_of___wmul 11E3            __end_of_efgtoa 07D5  
        ??_convertirFecha 0070            __end_of_floorf 01AD            __end_of_memcpy 12F7  
              floorf@F526 0128            __end_of_strcpy 1202       start_initialization 07D5  
             __end_of_pad 13CE         ??_LCD_write_nible 0070              _enviar_fecha 116A  
   __end_of___fpclassifyf 165F             ??_enviar_hora 0071               _I2C_restart 10AF  
             ??_I2C_start 0070               ??_I2C_write 0070               vfprintf@fmt 00CF  
                ??___flge 003D                  ??___fleq 0078                  ??___wmul 0074  
                ??_efgtoa 0046                 __Umul8_16 1265               __pdataBANK2 0130  
                ??_floorf 0031                  ??_memcpy 0073     __end_of_convertirHora 083F  
                ??_strcpy 0072                 ___fladd@a 0024                 ___fladd@b 0020  
               ___fldiv@a 0070                 ___fldiv@b 0074                  ?_LCD_cmd 0070  
               ___flmul@a 0024                 ___flmul@b 0020                 ___flsub@a 0035  
               ___flsub@b 0039                 ___latbits 0004             __pcstackBANK0 0020  
           __pcstackBANK1 00A0               ??_LCD_write 0070               _efgtoa$1032 00A6  
           LCD_write@dato 0071                  ?___fladd 0020                  ?___fldiv 0070  
                ?___flneg 0070                  ?___flmul 0020                  ?___flsub 0035  
                ?___fltol 0070                ?__Umul8_16 0070       __end_of_enviar_hora 11A6  
                ?_isdigit 0070                  ?_isspace 0070                  _I2C_init 0004  
                _I2C_read 10DF                  _I2C_stop 10BD                  ?_sprintf 00D2  
          ___wmul@product 0074                  _LATDbits 0019                  _LATEbits 001A  
                _LCD_dato 10CC                  _LCD_init 150E                  _LCD_goto 1320  
               clear_ram0 10A9          DS3231_read@valor 0072                  _PIR3bits 070F  
                _SSP1CON1 0190                  _SSP1CON3 0192                  _SSP1STAT 018F  
                _OSC_init 10F7                 _vfpfcnvrt 09E9         ___wmul@multiplier 0070  
            _isspace$1110 0074           convertirFecha@i 0071                vfpfcnvrt@c 0057  
            ?_DS3231_read 0070          _DS3231_read_temp 165F               _enviar_hora 1188  
       LCD_integer@F12189 0120                 memcpy@tmp 0074                vfprintf@ap 00D1  
              vfprintf@fp 005B               ??__Umul8_16 0072                ?_vfpfcnvrt 00CD  
         _LCD_write_nible 12F7        ___fpclassifyf@F465 012C                sprintf@fmt 00D2  
                ___xxtofl 0018                  __ptext10 12D0                  __ptext11 1243  
                __ptext20 176C                  __ptext12 00C2                  __ptext21 1222  
                __ptext13 15E0                  __ptext30 1120                  __ptext22 1136  
                __ptext14 1570                  __ptext31 10CC                  __ptext23 11C4  
                __ptext15 1202                  __ptext40 0DC5                  __ptext32 150E  
                __ptext24 1188                  __ptext16 10D4                  __ptext41 1265  
                __ptext33 12F7                  __ptext25 116A                  __ptext17 16E1  
                __ptext42 0BBD                  __ptext34 1320                  __ptext26 0806  
                __ptext18 13CE                  __ptext43 114E                  __ptext35 10C4  
                __ptext27 134E                  __ptext19 083F                  __ptext44 10EB  
                __ptext36 146C                  __ptext28 1111                  __ptext45 10BD  
                __ptext37 0004                  __ptext29 10F7                  __ptext46 10B6  
                __ptext38 165F                  __ptext47 10AF                  __ptext39 0018  
                __ptext48 10DF              _SSP1CON2bits 0191               _OSCCON1bits 088D  
              strcpy@dest 0077              ?_I2C_restart 0070                  efgtoa@fp 00AF  
                efgtoa@ne 00A0                  efgtoa@pp 00A8                  efgtoa@ou 00B4  
                _vfprintf 1288           main@temperatura 00E2        DS3231_read@address 0071  
          convertirHora@i 0071                 putch@dato 0073                _LCD_printf 1120  
                memcpy@d1 0075                  memcpy@s1 0070                  isdigit@c 0070  
    DS3231_read_temp@temp 003F                 sprintf@ap 0060                  isspace@c 0070  
               strcpy@src 0070                _OSCFRQbits 0893   __end_of_LCD_write_nible 1320  
             efgtoa@nmode 00AA               ??_vfpfcnvrt 004A             __pstringtext1 1800  
           __pstringtext2 180B             __pstringtext3 180F             __pstringtext4 0000  
  __Umul8_16@multiplicand 0070                  sprintf@f 0061                  sprintf@s 005F  
              _SSP1DATPPS 1EC6                _SSP1CLKPPS 1EC5             ___fladd@signs 0030  
        _PIN_MANAGER_init 1111              ___fladd@aexp 0031              ___fladd@bexp 0032  
    __Umul8_16@multiplier 0078         __Umul8_16@product 0074  
